 newton

 Timestamp is 497a1a19 (Fri Jan 23 11:27:21 2009)

 Preferred load address is 10000000

 Start         Length     Name                   Class
 0001:00000000 00073174H .text                   CODE
 0001:00073180 0000000cH .text$yc                CODE
 0001:00073190 00000001H .text$yd                CODE
 0002:00000000 00000148H .idata$5                DATA
 0002:00000148 00000004H .CRT$XCA                DATA
 0002:0000014c 00000004H .CRT$XCU                DATA
 0002:00000150 00000004H .CRT$XCZ                DATA
 0002:00000154 00000004H .CRT$XIA                DATA
 0002:00000158 00000014H .CRT$XIC                DATA
 0002:0000016c 00000004H .CRT$XIZ                DATA
 0002:00000170 00000004H .CRT$XPA                DATA
 0002:00000174 00000004H .CRT$XPX                DATA
 0002:00000178 00000004H .CRT$XPXA               DATA
 0002:0000017c 00000004H .CRT$XPZ                DATA
 0002:00000180 00000004H .CRT$XTA                DATA
 0002:00000184 00000004H .CRT$XTZ                DATA
 0002:00000190 00006978H .rdata                  DATA
 0002:00006b08 0000005cH .rdata$debug            DATA
 0002:00006b70 0000000cH .rdata$sxdata           DATA
 0002:00006b7c 00000004H .rtc$IAA                DATA
 0002:00006b80 00000004H .rtc$IZZ                DATA
 0002:00006b84 00000004H .rtc$TAA                DATA
 0002:00006b88 00000004H .rtc$TZZ                DATA
 0002:00006b90 000003d4H .xdata$x                DATA
 0002:00006f64 00000014H .idata$2                DATA
 0002:00006f78 00000014H .idata$3                DATA
 0002:00006f8c 00000148H .idata$4                DATA
 0002:000070d4 000005e0H .idata$6                DATA
 0002:000076c0 0000267dH .edata                  DATA
 0003:00000000 00001f90H .data                   DATA
 0003:00001fa0 00004384H .bss                    DATA

  Address         Publics by Value              Rva+Base       Lib:Object

 0000:00000000       __except_list              00000000     <absolute>
 0000:00000003       ___safe_se_handler_count   00000003     <absolute>
 0000:00000000       ___ImageBase               10000000     <linker-defined>
 0001:00000000       _DllMain@12                10001000 f   Newton.obj
 0001:00000010       _NewtonGetMemoryUsed       10001010 f   Newton.obj
 0001:00000020       _NewtonInvalidateCache     10001020 f   Newton.obj
 0001:00000030       _NewtonSetPlatformArchitecture 10001030 f   Newton.obj
 0001:00000040       _NewtonGetPlatformArchitecture 10001040 f   Newton.obj
 0001:00000050       _NewtonSetThreadsCount     10001050 f   Newton.obj
 0001:00000060       _NewtonGetThreadsCount     10001060 f   Newton.obj
 0001:00000070       _NewtonSetMultiThreadSolverOnSingleIsland 10001070 f   Newton.obj
 0001:00000080       _NewtonSetSolverModel      10001080 f   Newton.obj
 0001:00000090       _NewtonSetFrictionModel    10001090 f   Newton.obj
 0001:000000a0       _NewtonSetPerformanceClock 100010a0 f   Newton.obj
 0001:000000b0       _NewtonReadPerformanceTicks 100010b0 f   Newton.obj
 0001:000000d0       _NewtonCollisionUpdate     100010d0 f   Newton.obj
 0001:00000100       _NewtonSetIslandUpdateEvent 10001100 f   Newton.obj
 0001:00000110       _NewtonSetBodyLeaveWorldEvent 10001110 f   Newton.obj
 0001:00000120       _NewtonWorldGetVersion     10001120 f   Newton.obj
 0001:00000130       _NewtonWorldSetUserData    10001130 f   Newton.obj
 0001:00000140       _NewtonWorldGetUserData    10001140 f   Newton.obj
 0001:00000150       _NewtonWorldGetBodyCount   10001150 f   Newton.obj
 0001:00000160       _NewtonWorldGetConstraintCount 10001160 f   Newton.obj
 0001:00000170       _NewtonIslandGetBody       10001170 f   Newton.obj
 0001:00000190       _NewtonMaterialGetDefaultGroupID 10001190 f   Newton.obj
 0001:000001a0       _NewtonMaterialCreateGroupID 100011a0 f   Newton.obj
 0001:000001b0       _NewtonMaterialDestroyAllGroupID 100011b0 f   Newton.obj
 0001:000001c0       _NewtonMaterialSetDefaultCollidable 100011c0 f   Newton.obj
 0001:000001f0       _NewtonMaterialSetContinuousCollisionMode 100011f0 f   Newton.obj
 0001:00000220       _NewtonWorldGetFirstMaterial 10001220 f   Newton.obj
 0001:00000230       _NewtonWorldGetNextMaterial 10001230 f   Newton.obj
 0001:00000240       _NewtonMaterialGetContactFaceAttribute 10001240 f   Newton.obj
 0001:00000250       _NewtonMaterialGetContactPositionAndNormal 10001250 f   Newton.obj
 0001:00000280       _NewtonMaterialGetContactTangentDirections 10001280 f   Newton.obj
 0001:000002c0       _NewtonMaterialSetContactFrictionState 100012c0 f   Newton.obj
 0001:00000310       _NewtonMaterialSetContactNormalAcceleration 10001310 f   Newton.obj
 0001:00000330       _NewtonMaterialSetContactTangentAcceleration 10001330 f   Newton.obj
 0001:00000360       _NewtonCreateNull          10001360 f   Newton.obj
 0001:00000370       _NewtonCreateBox           10001370 f   Newton.obj
 0001:000003d0       _NewtonCreateSphere        100013d0 f   Newton.obj
 0001:000004c0       _NewtonCreateCone          100014c0 f   Newton.obj
 0001:00000520       _NewtonCreateCapsule       10001520 f   Newton.obj
 0001:00000580       _NewtonCreateCylinder      10001580 f   Newton.obj
 0001:000005e0       _NewtonCreateChamferCylinder 100015e0 f   Newton.obj
 0001:00000640       _NewtonCreateConvexHullFromMesh 10001640 f   Newton.obj
 0001:00000660       _NewtonCreateConvexHullModifier 10001660 f   Newton.obj
 0001:00000670       _NewtonConvexHullModifierGetMatrix 10001670 f   Newton.obj
 0001:000006a0       _NewtonConvexHullModifierSetMatrix 100016a0 f   Newton.obj
 0001:000006c0       _NewtonCreateCompoundCollision 100016c0 f   Newton.obj
 0001:000006e0       _NewtonCreateCompoundCollisionFromMesh 100016e0 f   Newton.obj
 0001:00000700       _NewtonCollisionIsTriggerVolume 10001700 f   Newton.obj
 0001:00000720       _NewtonCollisionSetAsTriggerVolume 10001720 f   Newton.obj
 0001:00000740       _NewtonConvexCollisionCalculateVolume 10001740 f   Newton.obj
 0001:00000750       _NewtonCreateTreeCollision 10001750 f   Newton.obj
 0001:00000760       _NewtonTreeCollisionSetUserRayCastCallback 10001760 f   Newton.obj
 0001:00000770       _NewtonTreeCollisionBeginBuild 10001770 f   Newton.obj
 0001:00000780       _NewtonTreeCollisionAddFace 10001780 f   Newton.obj
 0001:000007a0       _NewtonTreeCollisionEndBuild 100017a0 f   Newton.obj
 0001:000007b0       _NewtonCreateHeightFieldCollision 100017b0 f   Newton.obj
 0001:000007f0       _NewtonCreateSceneCollision 100017f0 f   Newton.obj
 0001:00000800       _NewtonSceneCollisionCreateProxy 10001800 f   Newton.obj
 0001:00000810       _NewtonSceneCollisionOptimize 10001810 f   Newton.obj
 0001:00000820       _NewtonCollisionPointDistance 10001820 f   Newton.obj
 0001:00000850       _NewtonCollisionClosestPoint 10001850 f   Newton.obj
 0001:00000890       _NewtonCollisionCollide    10001890 f   Newton.obj
 0001:000008d0       _NewtonCollisionCollideContinue 100018d0 f   Newton.obj
 0001:00000930       _NewtonCollisionForEachPolygonDo 10001930 f   Newton.obj
 0001:00000970       _NewtonCollisionMakeUnique 10001970 f   Newton.obj
 0001:00000980       _NewtonReleaseCollision    10001980 f   Newton.obj
 0001:00000990       _NewtonCollisionSerialize  10001990 f   Newton.obj
 0001:000009b0       _NewtonCreateCollisionFromSerialization 100019b0 f   Newton.obj
 0001:000009d0       _NewtonCollisionGetInfo    100019d0 f   Newton.obj
 0001:000009f0       _NewtonGetEulerAngle       100019f0 f   Newton.obj
 0001:00000a20       _NewtonCalculateSpringDamperAcceleration 10001a20 f   Newton.obj
 0001:00000a60       _NewtonCreateBody          10001a60 f   Newton.obj
 0001:00000a70       _NewtonDestroyBody         10001a70 f   Newton.obj
 0001:00000a80       _NewtonBodySetMatrix       10001a80 f   Newton.obj
 0001:00000ad0       _NewtonBodyGetFirstJoint   10001ad0 f   Newton.obj
 0001:00000ae0       _NewtonBodyGetNextJoint    10001ae0 f   Newton.obj
 0001:00000af0       _NewtonBodyGetFirstContactJoint 10001af0 f   Newton.obj
 0001:00000b00       _NewtonBodyGetNextContactJoint 10001b00 f   Newton.obj
 0001:00000b10       _NewtonBodySetCollision    10001b10 f   Newton.obj
 0001:00000b20       _NewtonBodySetFreezeState  10001b20 f   Newton.obj
 0001:00000b40       _NewtonBallSetUserCallback 10001b40 f   Newton.obj
 0001:00000b50       _NewtonBallGetJointAngle   10001b50 f   Newton.obj
 0001:00000b80       _NewtonBallGetJointOmega   10001b80 f   Newton.obj
 0001:00000bb0       _NewtonBallGetJointForce   10001bb0 f   Newton.obj
 0001:00000be0       _NewtonSliderGetJointPosit 10001be0 f   Newton.obj
 0001:00000be0       _NewtonCorkscrewGetJointAngle 10001be0 f   Newton.obj
 0001:00000be0       _NewtonUniversalGetJointAngle0 10001be0 f   Newton.obj
 0001:00000be0       _NewtonHingeGetJointAngle  10001be0 f   Newton.obj
 0001:00000bf0       _NewtonCorkscrewGetJointOmega 10001bf0 f   Newton.obj
 0001:00000bf0       _NewtonUniversalGetJointOmega0 10001bf0 f   Newton.obj
 0001:00000bf0       _NewtonHingeGetJointOmega  10001bf0 f   Newton.obj
 0001:00000c00       _NewtonHingeCalculateStopAlpha 10001c00 f   Newton.obj
 0001:00000c20       _NewtonHingeGetJointForce  10001c20 f   Newton.obj
 0001:00000c50       _NewtonHingeSetUserCallback 10001c50 f   Newton.obj
 0001:00000c50       _NewtonSliderSetUserCallback 10001c50 f   Newton.obj
 0001:00000c60       _NewtonSliderCalculateStopAccel 10001c60 f   Newton.obj
 0001:00000c80       _NewtonSliderGetJointForce 10001c80 f   Newton.obj
 0001:00000cb0       _NewtonUniversalGetJointAngle1 10001cb0 f   Newton.obj
 0001:00000cb0       _NewtonCorkscrewGetJointPosit 10001cb0 f   Newton.obj
 0001:00000cc0       _NewtonSliderGetJointVeloc 10001cc0 f   Newton.obj
 0001:00000cc0       _NewtonCorkscrewGetJointVeloc 10001cc0 f   Newton.obj
 0001:00000cd0       _NewtonCorkscrewCalculateStopAlpha 10001cd0 f   Newton.obj
 0001:00000cd0       _NewtonUniversalCalculateStopAlpha0 10001cd0 f   Newton.obj
 0001:00000cf0       _NewtonCorkscrewCalculateStopAccel 10001cf0 f   Newton.obj
 0001:00000d10       _NewtonCorkscrewSetUserCallback 10001d10 f   Newton.obj
 0001:00000d10       _NewtonUniversalSetUserCallback 10001d10 f   Newton.obj
 0001:00000d20       _NewtonUniversalGetJointOmega1 10001d20 f   Newton.obj
 0001:00000d30       _NewtonUniversalCalculateStopAlpha1 10001d30 f   Newton.obj
 0001:00000d50       _NewtonCorkscrewGetJointForce 10001d50 f   Newton.obj
 0001:00000d50       _NewtonUniversalGetJointForce 10001d50 f   Newton.obj
 0001:00000d80       _NewtonUpVectorGetPin      10001d80 f   Newton.obj
 0001:00000db0       _NewtonUserJointAddGeneralRow 10001db0 f   Newton.obj
 0001:00000dd0       _NewtonUserJointSetRowMaximumFriction 10001dd0 f   Newton.obj
 0001:00000df0       _NewtonUserJointSetRowMinimumFriction 10001df0 f   Newton.obj
 0001:00000e10       _NewtonUserJointSetRowAcceleration 10001e10 f   Newton.obj
 0001:00000e30       _NewtonUserJointSetRowSpringDamperAcceleration 10001e30 f   Newton.obj
 0001:00000e50       _NewtonUserJointSetRowStiffness 10001e50 f   Newton.obj
 0001:00000e70       _NewtonUserJointGetRowForce 10001e70 f   Newton.obj
 0001:00000e80       _NewtonUserJointSetFeedbackCollectorCallback 10001e80 f   Newton.obj
 0001:00000e90       _NewtonJointSetUserData    10001e90 f   Newton.obj
 0001:00000ea0       _NewtonJointGetUserData    10001ea0 f   Newton.obj
 0001:00000eb0       _NewtonJointGetInfo        10001eb0 f   Newton.obj
 0001:00000ed0       _NewtonJointSetStiffness   10001ed0 f   Newton.obj
 0001:00000ef0       _NewtonJointGetStiffness   10001ef0 f   Newton.obj
 0001:00000f00       _NewtonJointSetDestructor  10001f00 f   Newton.obj
 0001:00000f10       _NewtonDestroyJoint        10001f10 f   Newton.obj
 0001:00000f20       _NewtonMeshDestroy         10001f20 f   Newton.obj
 0001:00000f40       _NewtonMeshCalculateVertexNormals 10001f40 f   Newton.obj
 0001:00000f60       _NewtonMeshApplySphericalMapping 10001f60 f   Newton.obj
 0001:00000f70       _NewtonMeshApplyBoxMapping 10001f70 f   Newton.obj
 0001:00000f90       _NewtonMeshApplyCylindricalMapping 10001f90 f   Newton.obj
 0001:00000fb0       _NewtonMeshBeginFace       10001fb0 f   Newton.obj
 0001:00000fc0       _NewtonMeshAddFace         10001fc0 f   Newton.obj
 0001:00000fe0       _NewtonMeshEndFace         10001fe0 f   Newton.obj
 0001:00000ff0       _NewtonMeshGetVertexCount  10001ff0 f   Newton.obj
 0001:00001000       _NewtonMeshGetVertexStreams 10002000 f   Newton.obj
 0001:00001030       _NewtonMeshGetIndirectVertexStreams 10002030 f   Newton.obj
 0001:00001080       _NewtonMeshFirstMaterial   10002080 f   Newton.obj
 0001:00001090       _NewtonMeshNextMaterial    10002090 f   Newton.obj
 0001:000010a0       _NewtonMeshMaterialGetMaterial 100020a0 f   Newton.obj
 0001:000010b0       _NewtonMeshMaterialGetIndexCount 100020b0 f   Newton.obj
 0001:000010d0       _NewtonMeshMaterialGetIndexStream 100020d0 f   Newton.obj
 0001:000010f0       _NewtonMeshMaterialGetIndexStreamShort 100020f0 f   Newton.obj
 0001:00001110       ?dgGetUserLock@dgWorld@@QAEXXZ 10002110 f i Newton.obj
 0001:00001130       ?dgReleasedUserLock@dgWorld@@QAEXXZ 10002130 f i Newton.obj
 0001:00001150       ?Scale@?$dgTemplateVector@N@@QBE?AV1@N@Z 10002150 f i Newton.obj
 0001:00001180       ??H?$dgTemplateVector@N@@QBE?AV0@ABV0@@Z 10002180 f i Newton.obj
 0001:000011b0       ??G?$dgTemplateVector@N@@QBE?AV0@ABV0@@Z 100021b0 f i Newton.obj
 0001:000011e0       ??D?$dgTemplateVector@N@@QBE?AV0@ABV0@@Z 100021e0 f i Newton.obj
 0001:00001220       _NewtonDestroy             10002220 f   Newton.obj
 0001:00001260       _NewtonWorldCriticalSectionLock 10002260 f   Newton.obj
 0001:00001280       _NewtonWorldCriticalSectionUnlock 10002280 f   Newton.obj
 0001:000012a0       _NewtonUpdate              100022a0 f   Newton.obj
 0001:00001360       _NewtonSetMinimumFrameRate 10002360 f   Newton.obj
 0001:000013b0       _NewtonWorldGetFirstBody   100023b0 f   Newton.obj
 0001:000013d0       _NewtonWorldGetNextBody    100023d0 f   Newton.obj
 0001:000013f0       _NewtonIslandGetBodyAABB   100023f0 f   Newton.obj
 0001:00001450       _NewtonMaterialSetSurfaceThickness 10002450 f   Newton.obj
 0001:000014b0       _NewtonMaterialSetDefaultFriction 100024b0 f   Newton.obj
 0001:00001580       _NewtonMaterialSetDefaultElasticity 10002580 f   Newton.obj
 0001:000015d0       _NewtonMaterialSetDefaultSoftness 100025d0 f   Newton.obj
 0001:00001620       _NewtonMaterialSetCollisionCallback 10002620 f   Newton.obj
 0001:00001660       _NewtonMaterialGetUserData 10002660 f   Newton.obj
 0001:00001680       _NewtonMaterialGetMaterialPairUserData 10002680 f   Newton.obj
 0001:00001690       _NewtonMaterialGetContactNormalSpeed 10002690 f   Newton.obj
 0001:00001790       _NewtonMaterialGetContactForce 10002790 f   Newton.obj
 0001:00001810       _NewtonMaterialGetBodyCollisionID 10002810 f   Newton.obj
 0001:00001840       _NewtonMaterialSetContactSoftness 10002840 f   Newton.obj
 0001:00001890       _NewtonMaterialSetContactElasticity 10002890 f   Newton.obj
 0001:000018e0       _NewtonMaterialSetContactFrictionCoef 100028e0 f   Newton.obj
 0001:000019b0       _NewtonCreateConvexHull    100029b0 f   Newton.obj
 0001:00001a30       _NewtonCollisionSetUserID  10002a30 f   Newton.obj
 0001:00001a40       _NewtonCollisionGetUserID  10002a40 f   Newton.obj
 0001:00001a50       _NewtonStaticCollisionSetDebugCallback 10002a50 f   Newton.obj
 0001:00001a80       _NewtonTreeCollisionGetFaceAtribute 10002a80 f   Newton.obj
 0001:00001a90       _NewtonTreeCollisionSetFaceAtribute 10002a90 f   Newton.obj
 0001:00001aa0       _NewtonSceneProxySetMatrix 10002aa0 f   Newton.obj
 0001:00001ac0       _NewtonSceneProxyGetMatrix 10002ac0 f   Newton.obj
 0001:00001b00       _NewtonAddCollisionReference 10002b00 f   Newton.obj
 0001:00001b20       _NewtonBodySetUserData     10002b20 f   Newton.obj
 0001:00001b30       _NewtonBodyGetUserData     10002b30 f   Newton.obj
 0001:00001b40       _NewtonBodyGetWorld        10002b40 f   Newton.obj
 0001:00001b50       _NewtonBodySetTransformCallback 10002b50 f   Newton.obj
 0001:00001b60       _NewtonBodySetForceAndTorqueCallback 10002b60 f   Newton.obj
 0001:00001b70       _NewtonBodyGetForceAndTorqueCallback 10002b70 f   Newton.obj
 0001:00001b80       _NewtonBodySetDestructorCallback 10002b80 f   Newton.obj
 0001:00001b90       _NewtonBodySetMassMatrix   10002b90 f   Newton.obj
 0001:00001cf0       _NewtonBodyGetMassMatrix   10002cf0 f   Newton.obj
 0001:00001d50       _NewtonBodyGetInvMass      10002d50 f   Newton.obj
 0001:00001db0       _NewtonBodySetMatrixRecursive 10002db0 f   Newton.obj
 0001:00001df0       _NewtonBodyGetMatrix       10002df0 f   Newton.obj
 0001:00001e10       _NewtonBodyGetRotation     10002e10 f   Newton.obj
 0001:00001e30       _NewtonBodyGetForceAcc     10002e30 f   Newton.obj
 0001:00001e70       _NewtonBodyGetForce        10002e70 f   Newton.obj
 0001:00001eb0       _NewtonBodyCalculateInverseDynamicsForce 10002eb0 f   Newton.obj
 0001:00001f10       _NewtonBodyGetTorque       10002f10 f   Newton.obj
 0001:00001f50       _NewtonBodyGetTorqueAcc    10002f50 f   Newton.obj
 0001:00001f90       _NewtonBodyGetCentreOfMass 10002f90 f   Newton.obj
 0001:00001fd0       _NewtonContactJointGetContactCount 10002fd0 f   Newton.obj
 0001:00001ff0       _NewtonContactJointGetFirstContact 10002ff0 f   Newton.obj
 0001:00002020       _NewtonContactJointGetNextContact 10003020 f   Newton.obj
 0001:00002050       _NewtonContactGetMaterial  10003050 f   Newton.obj
 0001:00002060       _NewtonBodyAddBuoyancyForce 10003060 f   Newton.obj
 0001:000020c0       _NewtonBodyGetCollision    100030c0 f   Newton.obj
 0001:000020d0       _NewtonBodySetMaterialGroupID 100030d0 f   Newton.obj
 0001:000020e0       _NewtonBodyGetMaterialGroupID 100030e0 f   Newton.obj
 0001:000020f0       _NewtonBodySetContinuousCollisionMode 100030f0 f   Newton.obj
 0001:00002110       _NewtonBodyGetContinuousCollisionMode 10003110 f   Newton.obj
 0001:00002130       _NewtonBodySetJointRecursiveCollision 10003130 f   Newton.obj
 0001:00002160       _NewtonBodyGetJointRecursiveCollision 10003160 f   Newton.obj
 0001:00002180       _NewtonBodyGetFreezeState  10003180 f   Newton.obj
 0001:00002190       _NewtonBodySetAutoSleep    10003190 f   Newton.obj
 0001:000021c0       _NewtonBodyGetAutoSleep    100031c0 f   Newton.obj
 0001:000021e0       _NewtonBodyGetSleepState   100031e0 f   Newton.obj
 0001:000021f0       _NewtonBodyGetAABB         100031f0 f   Newton.obj
 0001:00002240       _NewtonBodySetVelocity     10003240 f   Newton.obj
 0001:00002280       _NewtonBodyGetVelocity     10003280 f   Newton.obj
 0001:000022c0       _NewtonBodySetOmega        100032c0 f   Newton.obj
 0001:00002300       _NewtonBodyGetOmega        10003300 f   Newton.obj
 0001:00002340       _NewtonBodyGetLinearDamping 10003340 f   Newton.obj
 0001:00002360       _NewtonBodyAddImpulse      10003360 f   Newton.obj
 0001:000023c0       _NewtonConstraintCreateBall 100033c0 f   Newton.obj
 0001:00002400       _NewtonBallSetConeLimits   10003400 f   Newton.obj
 0001:00002670       _NewtonConstraintCreateHinge 10003670 f   Newton.obj
 0001:000026d0       _NewtonConstraintCreateSlider 100036d0 f   Newton.obj
 0001:00002730       _NewtonConstraintCreateCorkscrew 10003730 f   Newton.obj
 0001:00002790       _NewtonConstraintCreateUniversal 10003790 f   Newton.obj
 0001:00002810       _NewtonConstraintCreateUpVector 10003810 f   Newton.obj
 0001:00002850       _NewtonUpVectorSetPin      10003850 f   Newton.obj
 0001:00002890       _NewtonConstraintCreateUserJoint 10003890 f   Newton.obj
 0001:000028d0       _NewtonUserJointAddLinearRow 100038d0 f   Newton.obj
 0001:000029a0       _NewtonUserJointAddAngularRow 100039a0 f   Newton.obj
 0001:00002a30       _NewtonJointGetBody0       10003a30 f   Newton.obj
 0001:00002a40       _NewtonJointGetBody1       10003a40 f   Newton.obj
 0001:00002a60       _NewtonJointSetCollisionState 10003a60 f   Newton.obj
 0001:00002a80       _NewtonJointGetCollisionState 10003a80 f   Newton.obj
 0001:00002a90       _NewtonMeshCreate          10003a90 f   Newton.obj
 0001:00002ab0       _NewtonMeshCreateFromCollision 10003ab0 f   Newton.obj
 0001:00002ad0       ?SetCentreOfMass@dgBody@@QAEXABVdgVector@@@Z 10003ad0 f i Newton.obj
 0001:00002b70       _NewtonMeshPlaneClip       10003b70 f   Newton.obj
 0001:00002bc0       ?SetLinearDamping@dgBody@@QAEXN@Z 10003bc0 f i Newton.obj
 0001:00002c20       ?SetAngularDamping@dgBody@@QAEXABVdgVector@@@Z 10003c20 f i Newton.obj
 0001:00002cd0       ?SetForce@dgBody@@QAEXABVdgVector@@@Z 10003cd0 f i Newton.obj
 0001:00002d50       ?SetTorque@dgBody@@QAEXABVdgVector@@@Z 10003d50 f i Newton.obj
 0001:00002dd0       ?Unlink@?$dgList@VdgContactMaterial@@@@QAEXPAVdgListNode@1@@Z 10003dd0 f i Newton.obj
 0001:00002e40       _NewtonSetWorldSize        10003e40 f   Newton.obj
 0001:00002ea0       _NewtonWorldForEachBodyInAABBDo 10003ea0 f   Newton.obj
 0001:00002f00       _NewtonWorldRayCast        10003f00 f   Newton.obj
 0001:00002f70       _NewtonWorldConvexCast     10003f70 f   Newton.obj
 0001:00002fd0       _NewtonMaterialGetContactTangentSpeed 10003fd0 f   Newton.obj
 0001:000030f0       _NewtonMaterialContactRotateTangentDirections 100040f0 f   Newton.obj
 0001:00003210       _NewtonConvexCollisionCalculateInertialMatrix 10004210 f   Newton.obj
 0001:00003260       _NewtonCreateUserMeshCollision 10004260 f   Newton.obj
 0001:000032f0       _NewtonTreeCollisionGetVertexListIndexListInAABB 100042f0 f   Newton.obj
 0001:000033b0       _NewtonCollisionSupportVertex 100043b0 f   Newton.obj
 0001:000034e0       _NewtonCollisionCalculateAABB 100044e0 f   Newton.obj
 0001:00003540       _NewtonSetEulerAngle       10004540 f   Newton.obj
 0001:00003920       _NewtonBodySetForce        10004920 f   Newton.obj
 0001:00003960       _NewtonBodySetTorque       10004960 f   Newton.obj
 0001:000039a0       _NewtonBodySetCentreOfMass 100049a0 f   Newton.obj
 0001:000039e0       _NewtonBodySetLinearDamping 100049e0 f   Newton.obj
 0001:00003a00       _NewtonBodySetAngularDamping 10004a00 f   Newton.obj
 0001:00003a40       _NewtonBodyGetAngularDamping 10004a40 f   Newton.obj
 0001:00003a90       _NewtonCreate              10004a90 f   Newton.obj
 0001:00003b60       _NewtonDestroyAllBodies    10004b60 f   Newton.obj
 0001:00003bb0       _NewtonCollisionRayCast    10004bb0 f   Newton.obj
 0001:00003d40       _NewtonBodyAddForce        10004d40 f   Newton.obj
 0001:00003da0       _NewtonBodyAddTorque       10004da0 f   Newton.obj
 0001:00003df0       _NewtonContactJointRemoveContact 10004df0 f   Newton.obj
 0001:00003e30       ?Insert@?$dgTree@PAVdgCollision@@I@@QAEPAVdgTreeNode@1@ABQAVdgCollision@@IAA_N@Z 10004e30 f i physics_2009:dgNarrowPhaseCollision.obj
 0001:00003e30       ?Insert@?$dgTree@PAVdgEdge@@PAX@@QAEPAVdgTreeNode@1@ABQAVdgEdge@@PAXAA_N@Z 10004e30 f i physics_2009:dgCollisionConvexHull.obj
 0001:00003e30       ?Insert@?$dgTree@PAVdgBody@@PAX@@QAEPAVdgTreeNode@1@ABQAVdgBody@@PAXAA_N@Z 10004e30 f i NewtonClass.obj
 0001:00003e30       ?Insert@?$dgTree@PAVdgConstraint@@PAV1@@@QAEPAVdgTreeNode@1@ABQAVdgConstraint@@PAV3@AA_N@Z 10004e30 f i Newton.obj
 0001:00003e30       ?Insert@?$dgTree@PAVdgConstraint@@PAX@@QAEPAVdgTreeNode@1@ABQAVdgConstraint@@PAXAA_N@Z 10004e30 f i NewtonClass.obj
 0001:00003f00       _NewtonWorldForEachJointDo 10004f00 f   Newton.obj
 0001:00003fb0       ?Append@?$dgList@UNewtonMeshPartition@@@@QAEPAVdgListNode@1@XZ 10004fb0 f i NewtonAproximateConvexPartition.obj
 0001:00004040       ?CalculateHulls@NewtonAproximateConvexPartition@@QAEXPBVdgVector@@H@Z 10005040 f   NewtonAproximateConvexPartition.obj
 0001:00004140       ?RemoveAll@?$dgList@UNewtonMeshPartition@@@@QAEXXZ 10005140 f i NewtonAproximateConvexPartition.obj
 0001:000041b0       ??0NewtonAproximateConvexPartition@@QAE@ABVNewtonMeshEffect@@NH@Z 100051b0 f   NewtonAproximateConvexPartition.obj
 0001:00004230       ??1NewtonAproximateConvexPartition@@QAE@XZ 10005230 f   NewtonAproximateConvexPartition.obj
 0001:00004240       ?__malloc__@dgMemoryAllocator@@CAPAXI@Z 10005240 f   corelib_2009:dgMemory.obj
 0001:00004240       ?DefaultAllocMemory@Newton@@SAPAXH@Z 10005240 f   NewtonClass.obj
 0001:00004250       ?__free__@dgMemoryAllocator@@CAXPAXI@Z 10005250 f   corelib_2009:dgMemory.obj
 0001:00004250       ?DefaultFreeMemory@Newton@@SAXPAXH@Z 10005250 f   NewtonClass.obj
 0001:00004260       ?JacobianDerivative@NewtonUserJoint@@UAEIAAVdgContraintDescritor@@@Z 10005260 f   NewtonClass.obj
 0001:000042a0       ?SetAcceleration@NewtonUserJoint@@QAEXN@Z 100052a0 f   NewtonClass.obj
 0001:000042d0       ?SetSpringDamperAcceleration@NewtonUserJoint@@QAEXNN@Z 100052d0 f   NewtonClass.obj
 0001:00004340       ?GetRowForce@NewtonUserJoint@@QBENH@Z 10005340 f   NewtonClass.obj
 0001:00004360       ?GetInfo@NewtonUserJoint@@UBEXPAVdgConstraintInfo@@@Z 10005360 f   NewtonClass.obj
 0001:000043a0       ??_GNewtonUserJoint@@UAEPAXI@Z 100053a0 f i NewtonClass.obj
 0001:000043a0       ??_ENewtonUserJoint@@UAEPAXI@Z 100053a0 f i NewtonClass.obj
 0001:000043e0       ?SetHighFriction@NewtonUserJoint@@QAEXN@Z 100053e0 f   NewtonClass.obj
 0001:00004450       ?SetLowerFriction@NewtonUserJoint@@QAEXN@Z 10005450 f   NewtonClass.obj
 0001:000044c0       ?SetRowStiffness@NewtonUserJoint@@QAEXN@Z 100054c0 f   NewtonClass.obj
 0001:00004520       ?SetUpdateFeedbackFunction@NewtonUserJoint@@QAEXP6AXPBUNewtonJoint@@NH@Z@Z 10005520 f   NewtonClass.obj
 0001:00004530       ?DestroyJoints@NewtonDeadJoints@@QAEXAAVNewton@@@Z 10005530 f   NewtonClass.obj
 0001:00004590       ??1Newton@@QAE@XZ          10005590 f   NewtonClass.obj
 0001:000045e0       ??0NewtonUserJoint@@QAE@PAVdgWorld@@HP6AXPBUNewtonJoint@@NH@ZP6AX1PAUNewtonJointRecord@@@ZPAVdgBody@@5@Z 100055e0 f   NewtonClass.obj
 0001:00004690       ?AddAngularRowJacobian@NewtonUserJoint@@QAEXABVdgVector@@N@Z 10005690 f   NewtonClass.obj
 0001:00004730       ?AddGeneralRowJacobian@NewtonUserJoint@@QAEXPBN0@Z 10005730 f   NewtonClass.obj
 0001:000047c0       ?AddLinearRowJacobian@NewtonUserJoint@@QAEXABVdgVector@@00@Z 100057c0 f   NewtonClass.obj
 0001:00004850       ??0Newton@@QAE@N@Z         10005850 f   NewtonClass.obj
 0001:000048c0       ?DestroyJoint@Newton@@QAEXPAVdgConstraint@@@Z 100058c0 f   NewtonClass.obj
 0001:000048f0       ?DestroyBody@Newton@@QAEXPAVdgBody@@@Z 100058f0 f   NewtonClass.obj
 0001:00004920       ?DestroyBodies@NewtonDeadBodies@@QAEXAAVNewton@@@Z 10005920 f   NewtonClass.obj
 0001:000049a0       ?UpdatePhysics@Newton@@QAEXN@Z 100059a0 f   NewtonClass.obj
 0001:000049e0       ?GetShapeFromCollision@NewtonMeshEffectBuilder@@SAXPAXHPBNH@Z 100059e0 f i NewtonMeshEffect.obj
 0001:00004ac0       ?BeginPolygon@NewtonMeshEffect@@QAEXXZ 10005ac0 f   NewtonMeshEffect.obj
 0001:00004ad0       ?AddVertex@NewtonMeshEffect@@AAEXPBNH@Z 10005ad0 f   NewtonMeshEffect.obj
 0001:00004c30       ?AddPolygon@NewtonMeshEffect@@QAEXHPBNHH@Z 10005c30 f   NewtonMeshEffect.obj
 0001:00004cb0       ?GetVertexStreams@NewtonMeshEffect@@QAEXHPANH0H0@Z 10005cb0 f   NewtonMeshEffect.obj
 0001:00004d70       ?GetIndirectVertexStreams@NewtonMeshEffect@@QAEXHPANPAH1H011H011@Z 10005d70 f   NewtonMeshEffect.obj
 0001:00004f50       ?GetNextMaterial@NewtonMeshEffect@@QAEHH@Z 10005f50 f   NewtonMeshEffect.obj
 0001:00004f80       ?GetMaterialGetIndexStream@NewtonMeshEffect@@QAEXHPAH@Z 10005f80 f   NewtonMeshEffect.obj
 0001:00004ff0       ?GetMaterialGetIndexStreamShort@NewtonMeshEffect@@QAEXHPAF@Z 10005ff0 f   NewtonMeshEffect.obj
 0001:00005060       ?CreateConvexAproximationCollision@NewtonMeshEffect@@QBEPAVdgCollision@@NH@Z 10006060 f   NewtonMeshEffect.obj
 0001:00005090       ??Y?$dgTemplateVector@N@@QAEAAV0@ABV0@@Z 10006090 f i NewtonMeshEffect.obj
 0001:000050c0       ??0NewtonMeshEffect@@QAE@_N@Z 100060c0 f   NewtonMeshEffect.obj
 0001:00005120       ??_GNewtonMeshEffect@@UAEPAXI@Z 10006120 f i NewtonMeshEffect.obj
 0001:00005120       ??_ENewtonMeshEffect@@UAEPAXI@Z 10006120 f i NewtonMeshEffect.obj
 0001:00005170       ?EndPolygon@NewtonMeshEffect@@QAEXXZ 10006170 f   NewtonMeshEffect.obj
 0001:00005340       ?CreateConvexCollision@NewtonMeshEffect@@QBEPAVdgCollision@@N@Z 10006340 f   NewtonMeshEffect.obj
 0001:000053a0       ??0NewtonMeshEffect@@QAE@PAVdgCollision@@@Z 100063a0 f   NewtonMeshEffect.obj
 0001:00005630       ?GetAttriubeArray@NewtonMeshEffect@@AAEXPAUdgVertexAtribute@1@@Z 10006630 f   NewtonMeshEffect.obj
 0001:000056c0       ?ApplyAttriubeArray@NewtonMeshEffect@@AAEXPAUdgVertexAtribute@1@@Z 100066c0 f   NewtonMeshEffect.obj
 0001:00005780       ?GetOrigin@NewtonMeshEffect@@ABE?AVdgVector@@XZ 10006780 f   NewtonMeshEffect.obj
 0001:00005850       ?FixCylindricalMapping@NewtonMeshEffect@@ABEXPAUdgVertexAtribute@1@@Z 10006850 f   NewtonMeshEffect.obj
 0001:000059a0       ?SphericalMapping@NewtonMeshEffect@@QAEXH@Z 100069a0 f   NewtonMeshEffect.obj
 0001:00005b70       ?CylindricalMapping@NewtonMeshEffect@@QAEXHH@Z 10006b70 f   NewtonMeshEffect.obj
 0001:00005ed0       ?BoxMapping@NewtonMeshEffect@@QAEXHHH@Z 10006ed0 f   NewtonMeshEffect.obj
 0001:00006190       ?CalcualetNormals@NewtonMeshEffect@@QAEXN@Z 10007190 f   NewtonMeshEffect.obj
 0001:00006550       ?GetFirstMaterial@NewtonMeshEffect@@QAEHXZ 10007550 f   NewtonMeshEffect.obj
 0001:00006750       ?CapClipFace@NewtonMeshEffect@@AAE_NABVdgPlane@@ABVdgMatrix@@HH@Z 10007750 f   NewtonMeshEffect.obj
 0001:00006980       ?PlaneClip@NewtonMeshEffect@@QAEHABVdgPlane@@ABVdgMatrix@@PAPAV1@HH@Z 10007980 f   NewtonMeshEffect.obj
 0001:00007490       ?ModifierGetMatrix@dgCollision@@UBE?AVdgMatrix@@XZ 10008490 f i physics_2009:dgWorld.obj
 0001:000074b0       ?Release@dgCollision@@UAEHXZ 100084b0 f i physics_2009:dgWorld.obj
 0001:000074d0       ?GetSentinelBody@dgWorld@@QBEPAVdgBody@@XZ 100084d0 f   physics_2009:dgWorld.obj
 0001:000074e0       ?SetFrictionMode@dgWorld@@QAEXH@Z 100084e0 f   physics_2009:dgWorld.obj
 0001:000074f0       ?SetHardwareMode@dgWorld@@QAEXH@Z 100084f0 f   physics_2009:dgWorld.obj
 0001:00007530       ?GetHardwareMode@dgWorld@@QAEHPAD@Z 10008530 f   physics_2009:dgWorld.obj
 0001:00007590       ?ThreadExecute@dgSetTrreadRoundMode@dgWorld@@UAEXXZ 10008590 f   physics_2009:dgWorld.obj
 0001:000075b0       ?SetThreadsCount@dgWorld@@QAEXH@Z 100085b0 f   physics_2009:dgWorld.obj
 0001:000075f0       ?GetThreadsCount@dgWorld@@QBEHXZ 100085f0 f   physics_2009:dgWorld.obj
 0001:00007600       ?EnableThreadOnSingleIsland@dgWorld@@QAEXH@Z 10008600 f   physics_2009:dgWorld.obj
 0001:00007620       ?DestroyConstraint@dgWorld@@QAEXPAVdgConstraint@@@Z 10008620 f   physics_2009:dgWorld.obj
 0001:00007640       ?UpdateCollision@dgWorld@@QAEXXZ 10008640 f   physics_2009:dgWorld.obj
 0001:000076b0       ?Update@dgWorld@@QAEXN@Z   100086b0 f   physics_2009:dgWorld.obj
 0001:00007740       ?SetPerfomanceCounter@dgWorld@@QAEXP6AIXZ@Z 10008740 f   physics_2009:dgWorld.obj
 0001:00007770       ?SetUserData@dgWorld@@QAEXPAX@Z 10008770 f   physics_2009:dgWorld.obj
 0001:00007780       ?GetUserData@dgWorld@@QBEPAXXZ 10008780 f   physics_2009:dgWorld.obj
 0001:00007790       ?SetIslandUpdateCallback@dgWorld@@QAEXP6AIPAXH@Z@Z 10008790 f   physics_2009:dgWorld.obj
 0001:000077a0       ?SetLeavingWorldCallback@dgWorld@@QAEXP6AXPAVdgBody@@H@Z@Z 100087a0 f   physics_2009:dgWorld.obj
 0001:000077b0       ?CreateBallConstraint@dgWorld@@QAEPAVdgBallConstraint@@ABVdgVector@@PAVdgBody@@1@Z 100087b0 f   physics_2009:dgWorld.obj
 0001:00007800       ?CreateHingeConstraint@dgWorld@@QAEPAVdgHingeConstraint@@ABVdgVector@@0PAVdgBody@@1@Z 10008800 f   physics_2009:dgWorld.obj
 0001:00007850       ?CreateUpVectorConstraint@dgWorld@@QAEPAVdgUpVectorConstraint@@ABVdgVector@@PAVdgBody@@@Z 10008850 f   physics_2009:dgWorld.obj
 0001:000078a0       ?CreateSlidingConstraint@dgWorld@@QAEPAVdgSlidingConstraint@@ABVdgVector@@0PAVdgBody@@1@Z 100088a0 f   physics_2009:dgWorld.obj
 0001:000078f0       ?CreateCorkscrewConstraint@dgWorld@@QAEPAVdgCorkscrewConstraint@@ABVdgVector@@0PAVdgBody@@1@Z 100088f0 f   physics_2009:dgWorld.obj
 0001:00007940       ?CreateUniversalConstraint@dgWorld@@QAEPAVdgUniversalConstraint@@ABVdgVector@@00PAVdgBody@@1@Z 10008940 f   physics_2009:dgWorld.obj
 0001:000079a0       ?GetConstraintsCount@dgWorld@@QBEHXZ 100089a0 f   physics_2009:dgWorld.obj
 0001:000079b0       ?AddBodyImpulse@dgWorld@@QAEXPAVdgBody@@ABVdgVector@@1@Z 100089b0 f   physics_2009:dgWorld.obj
 0001:000079e0       ??_GdgParallelSolverUpdateVeloc@@UAEPAXI@Z 100089e0 f i physics_2009:dgWorld.obj
 0001:000079e0       ??_EdgParallelSolverClear@@UAEPAXI@Z 100089e0 f i physics_2009:dgWorld.obj
 0001:000079e0       ??_GdgParallelSolverBuildJacobianMatrix@@UAEPAXI@Z 100089e0 f i physics_2009:dgWorld.obj
 0001:000079e0       ??_GdgBroadPhaseMaterialCallbackWorkerThread@@UAEPAXI@Z 100089e0 f i physics_2009:dgBroadPhaseCollision.obj
 0001:000079e0       ??_GdgParallelSolverInitFeedbackUpdate@@UAEPAXI@Z 100089e0 f i physics_2009:dgWorld.obj
 0001:000079e0       ??_EdgParallelSolverJointAcceleration@@UAEPAXI@Z 100089e0 f i physics_2009:dgWorld.obj
 0001:000079e0       ??_EdgParallelSolverBuildJacobianMatrix@@UAEPAXI@Z 100089e0 f i physics_2009:dgWorld.obj
 0001:000079e0       ??_EdgSetTrreadRoundMode@dgWorld@@UAEPAXI@Z 100089e0 f i physics_2009:dgWorld.obj
 0001:000079e0       ??_EdgBroadPhaseCalculateContactsWorkerThread@@UAEPAXI@Z 100089e0 f i physics_2009:dgBroadPhaseCollision.obj
 0001:000079e0       ??_GdgParallelSolverUpdateForce@@UAEPAXI@Z 100089e0 f i physics_2009:dgWorld.obj
 0001:000079e0       ??_GdgSetTrreadRoundMode@dgWorld@@UAEPAXI@Z 100089e0 f i physics_2009:dgWorld.obj
 0001:000079e0       ??_GdgBroadPhaseCellPairsWorkerThread@@UAEPAXI@Z 100089e0 f i physics_2009:dgBroadPhaseCollision.obj
 0001:000079e0       ??_GdgWorkerThread@@UAEPAXI@Z 100089e0 f i physics_2009:dgWorld.obj
 0001:000079e0       ??_EdgParallelSolverUpdateVeloc@@UAEPAXI@Z 100089e0 f i physics_2009:dgWorld.obj
 0001:000079e0       ??_EdgBroadPhaseCellPairsWorkerThread@@UAEPAXI@Z 100089e0 f i physics_2009:dgBroadPhaseCollision.obj
 0001:000079e0       ??_GdgBroadPhaseApplyExternalForce@@UAEPAXI@Z 100089e0 f i physics_2009:dgBroadPhaseCollision.obj
 0001:000079e0       ??_EdgParallelSolverInitInternalForces@@UAEPAXI@Z 100089e0 f i physics_2009:dgWorld.obj
 0001:000079e0       ??_GdgParallelSolverBuildJacobianRows@@UAEPAXI@Z 100089e0 f i physics_2009:dgWorld.obj
 0001:000079e0       ??_EdgParallelSolverInitFeedbackUpdate@@UAEPAXI@Z 100089e0 f i physics_2009:dgWorld.obj
 0001:000079e0       ??_EdgBroadPhaseMaterialCallbackWorkerThread@@UAEPAXI@Z 100089e0 f i physics_2009:dgBroadPhaseCollision.obj
 0001:000079e0       ??_GdgParallelSolverCalculateForces@@UAEPAXI@Z 100089e0 f i physics_2009:dgWorld.obj
 0001:000079e0       ??_GdgParallelSolverClear@@UAEPAXI@Z 100089e0 f i physics_2009:dgWorld.obj
 0001:000079e0       ??_GdgParallelSolverJointAcceleration@@UAEPAXI@Z 100089e0 f i physics_2009:dgWorld.obj
 0001:000079e0       ??_EdgWorkerThread@@UAEPAXI@Z 100089e0 f i physics_2009:dgWorld.obj
 0001:000079e0       ??_EdgParallelSolverBuildJacobianRows@@UAEPAXI@Z 100089e0 f i physics_2009:dgWorld.obj
 0001:000079e0       ??_EdgSolverWorlkerThreads@@UAEPAXI@Z 100089e0 f i physics_2009:dgWorld.obj
 0001:000079e0       ??_GdgParallelSolverInitInternalForces@@UAEPAXI@Z 100089e0 f i physics_2009:dgWorld.obj
 0001:000079e0       ??_EdgParallelSolverUpdateForce@@UAEPAXI@Z 100089e0 f i physics_2009:dgWorld.obj
 0001:000079e0       ??_EdgParallelSolverBodyInertia@@UAEPAXI@Z 100089e0 f i physics_2009:dgWorld.obj
 0001:000079e0       ??_GdgSolverWorlkerThreads@@UAEPAXI@Z 100089e0 f i physics_2009:dgWorld.obj
 0001:000079e0       ??_GdgParallelSolverBodyInertia@@UAEPAXI@Z 100089e0 f i physics_2009:dgWorld.obj
 0001:000079e0       ??_EdgParallelSolverCalculateForces@@UAEPAXI@Z 100089e0 f i physics_2009:dgWorld.obj
 0001:000079e0       ??_EdgBroadPhaseApplyExternalForce@@UAEPAXI@Z 100089e0 f i physics_2009:dgBroadPhaseCollision.obj
 0001:000079e0       ??_GdgBroadPhaseCalculateContactsWorkerThread@@UAEPAXI@Z 100089e0 f i physics_2009:dgBroadPhaseCollision.obj
 0001:00007a00       ??_GdgCollisionPoint@@UAEPAXI@Z 10008a00 f i physics_2009:dgWorld.obj
 0001:00007a00       ??_EdgCollisionPoint@@UAEPAXI@Z 10008a00 f i physics_2009:dgWorld.obj
 0001:00007a20       ?SetSolverMode@dgWorld@@QAEXH@Z 10008a20 f   physics_2009:dgWorld.obj
 0001:00007a40       ?RemoveAllGroupID@dgWorld@@QAEXXZ 10008a40 f   physics_2009:dgWorld.obj
 0001:00007a90       ?DestroyBody@dgWorld@@QAEXPAVdgBody@@@Z 10008a90 f   physics_2009:dgWorld.obj
 0001:00007ae0       ?GetPerfomanceTicks@dgWorld@@QBEIHI@Z 10008ae0 f   physics_2009:dgWorld.obj
 0001:00007b20       ?GetBodiesCount@dgWorld@@QBEHXZ 10008b20 f   physics_2009:dgWorld.obj
 0001:00007b30       ?AreBodyConnectedByJoints@dgWorld@@AAE_NPAVdgBody@@0@Z 10008b30 f   physics_2009:dgWorld.obj
 0001:00007c10       ?FlushCache@dgWorld@@QAEXXZ 10008c10 f   physics_2009:dgWorld.obj
 0001:00007c60       ??0dgWorldDynamicUpdate@@QAE@XZ 10008c60 f i physics_2009:dgWorld.obj
 0001:000080c0       ??1dgWorldDynamicUpdate@@QAE@XZ 100090c0 f i physics_2009:dgWorld.obj
 0001:00008220       ?DestroyAllBodies@dgWorld@@QAEXXZ 10009220 f   physics_2009:dgWorld.obj
 0001:00008280       ?CreateBody@dgWorld@@QAEPAVdgBody@@PAVdgCollision@@@Z 10009280 f   physics_2009:dgWorld.obj
 0001:000083d0       ?BodySetMatrix@dgWorld@@QAEXPAVdgBody@@ABVdgMatrix@@@Z 100093d0 f   physics_2009:dgWorld.obj
 0001:00008630       ?RemoveAll@?$dgList@PAVdgContact@@@@QAEXXZ 10009630 f i physics_2009:dgWorld.obj
 0001:00008630       ?RemoveAll@?$dgList@PAVdgEdge@@@@QAEXXZ 10009630 f i corelib_2009:dgPolyhedra.obj
 0001:00008690       ??1dgWorld@@QAE@XZ         10009690 f   physics_2009:dgWorld.obj
 0001:000087e0       ??0dgWorld@@QAE@XZ         100097e0 f   physics_2009:dgWorld.obj
 0001:00008c90       ?GetIslandBody@dgWorld@@QBEPAVdgBody@@PBXH@Z 10009c90 f   physics_2009:dgWorldDynamicUpdate.obj
 0001:00008cc0       ?SortIslands@dgWorldDynamicUpdate@@AAEXXZ 10009cc0 f   physics_2009:dgWorldDynamicUpdate.obj
 0001:00008f30       ?ReallocBodyMemory@dgWorldDynamicUpdate@@AAEXH@Z 10009f30 f   physics_2009:dgWorldDynamicUpdate.obj
 0001:00008ff0       ?ReallocIslandMemory@dgWorldDynamicUpdate@@AAEXH@Z 10009ff0 f   physics_2009:dgWorldDynamicUpdate.obj
 0001:000090b0       ?ReallocJointsMemory@dgWorldDynamicUpdate@@AAEXH@Z 1000a0b0 f   physics_2009:dgWorldDynamicUpdate.obj
 0001:000091b0       ?ReallocJacobiansMemory@dgWorldDynamicUpdate@@AAEXHH@Z 1000a1b0 f   physics_2009:dgWorldDynamicUpdate.obj
 0001:00009450       ?ReallocIntenalForcesMemory@dgWorldDynamicUpdate@@AAEXHH@Z 1000a450 f   physics_2009:dgWorldDynamicUpdate.obj
 0001:00009570       ?GetJacobialDerivativesParallel@dgWorldDynamicUpdate@@AAEHABVdgIsland@@_NHN@Z 1000a570 f   physics_2009:dgWorldDynamicUpdate.obj
 0001:00009670       ?ThreadExecute@dgParallelSolverJointAcceleration@@UAEXXZ 1000a670 f   physics_2009:dgWorldDynamicUpdate.obj
 0001:00009830       ?ThreadExecute@dgParallelSolverInitFeedbackUpdate@@UAEXXZ 1000a830 f   physics_2009:dgWorldDynamicUpdate.obj
 0001:000099b0       ?SpanningTree@dgWorldDynamicUpdate@@AAEXPAVdgBody@@@Z 1000a9b0 f   physics_2009:dgWorldDynamicUpdate.obj
 0001:00009d70       ?IntegrateArray@dgWorldDynamicUpdate@@ABEXPBVdgBodyInfo@@HNNH_N@Z 1000ad70 f   physics_2009:dgWorldDynamicUpdate.obj
 0001:0000a3d0       ?SortJointsArray@dgJacobianMemory@@QBEHXZ 1000b3d0 f   physics_2009:dgWorldDynamicUpdate.obj
 0001:0000a730       ?ApplyExternalForcesAndAcceleration@dgJacobianMemory@@QBEXN@Z 1000b730 f   physics_2009:dgWorldDynamicUpdate.obj
 0001:0000b350       ?SwapRows@dgJacobianMemory@@QBEXHH@Z 1000c350 f   physics_2009:dgWorldDynamicUpdate.obj
 0001:0000b4e0       ?CalculateSimpleBodyReactionsForces@dgJacobianMemory@@QBEXN@Z 1000c4e0 f   physics_2009:dgWorldDynamicUpdate.obj
 0001:0000d6e0       ?CalculateJointForces@dgJacobianMemory@@QBENHPANN@Z 1000e6e0 f   physics_2009:dgWorldDynamicUpdate.obj
 0001:0000eff0       ?CalculateForcesGameMode@dgJacobianMemory@@QBEXHN@Z 1000fff0 f   physics_2009:dgWorldDynamicUpdate.obj
 0001:000106a0       ?ThreadExecute@dgParallelSolverBuildJacobianRows@@UAEXXZ 100116a0 f   physics_2009:dgWorldDynamicUpdate.obj
 0001:00010ba0       ?BuildJacobianMatrixParallel@dgWorldDynamicUpdate@@AAEXABVdgIsland@@NH@Z 10011ba0 f   physics_2009:dgWorldDynamicUpdate.obj
 0001:00010ee0       ?ThreadExecute@dgParallelSolverClear@@UAEXXZ 10011ee0 f   physics_2009:dgWorldDynamicUpdate.obj
 0001:00011030       ?ThreadExecute@dgParallelSolverInitInternalForces@@UAEXXZ 10012030 f   physics_2009:dgWorldDynamicUpdate.obj
 0001:00011940       ?ThreadExecute@dgParallelSolverUpdateVeloc@@UAEXXZ 10012940 f   physics_2009:dgWorldDynamicUpdate.obj
 0001:00011b30       ?ThreadExecute@dgParallelSolverUpdateForce@@UAEXXZ 10012b30 f   physics_2009:dgWorldDynamicUpdate.obj
 0001:00011ea0       ?ThreadExecute@dgParallelSolverCalculateForces@@UAEXXZ 10012ea0 f   physics_2009:dgWorldDynamicUpdate.obj
 0001:000123e0       ?CalculateForcesGameModeParallel@dgJacobianMemory@@QBEXHNH@Z 100133e0 f   physics_2009:dgWorldDynamicUpdate.obj
 0001:00012bd0       ?AddDamingAcceleration@dgBody@@AAEXXZ 10013bd0 f i physics_2009:dgWorldDynamicUpdate.obj
 0001:00012d00       ?CalculateForcesSimulationMode@dgJacobianMemory@@QBEXN@Z 10013d00 f   physics_2009:dgWorldDynamicUpdate.obj
 0001:00016df0       ?ThreadExecute@dgParallelSolverBodyInertia@@UAEXXZ 10017df0 f   physics_2009:dgWorldDynamicUpdate.obj
 0001:00016ea0       ?UpdateDynamics@dgWorldDynamicUpdate@@AAEXPAVdgWorld@@HN@Z 10017ea0 f   physics_2009:dgWorldDynamicUpdate.obj
 0001:000172f0       ?ThreadExecute@dgParallelSolverBuildJacobianMatrix@@UAEXXZ 100182f0 f   physics_2009:dgWorldDynamicUpdate.obj
 0001:00017950       ?GetJacobialDerivatives@dgWorldDynamicUpdate@@AAEHABVdgIsland@@H_NHN@Z 10018950 f   physics_2009:dgWorldDynamicUpdate.obj
 0001:00017f20       ?BuildJacobianMatrix@dgWorldDynamicUpdate@@AAEXABVdgIsland@@HN@Z 10018f20 f   physics_2009:dgWorldDynamicUpdate.obj
 0001:000185a0       ?ThreadExecute@dgSolverWorlkerThreads@@UAEXXZ 100195a0 f   physics_2009:dgWorldDynamicUpdate.obj
 0001:00018e40       ?CreateConvexModifier@dgWorld@@QAEPAVdgCollision@@PAV2@@Z 10019e40 f   physics_2009:dgNarrowPhaseCollision.obj
 0001:00018e90       ?CreateCompoundCollision@dgWorld@@QAEPAVdgCollision@@HQBQAV2@@Z 10019e90 f   physics_2009:dgNarrowPhaseCollision.obj
 0001:00018ec0       ?CreateBVH@dgWorld@@QAEPAVdgCollision@@XZ 10019ec0 f   physics_2009:dgNarrowPhaseCollision.obj
 0001:00018ee0       ?CreateStaticUserMesh@dgWorld@@QAEPAVdgCollision@@ABVdgVector@@0ABVdgUserMeshCreation@@@Z 10019ee0 f   physics_2009:dgNarrowPhaseCollision.obj
 0001:00018f00       ?CreateBVHFieldCollision@dgWorld@@QAEPAVdgCollision@@HHHPAGPADNN@Z 10019f00 f   physics_2009:dgNarrowPhaseCollision.obj
 0001:00018f60       ?CreateScene@dgWorld@@QAEPAVdgCollision@@XZ 10019f60 f   physics_2009:dgNarrowPhaseCollision.obj
 0001:00018f90       ?Serialize@dgWorld@@QBEXPAVdgCollision@@P6AXPAXPBXI@Z1@Z 10019f90 f   physics_2009:dgNarrowPhaseCollision.obj
 0001:00019000       ?GetDefualtBodyGroupID@dgWorld@@QBEIXZ 1001a000 f   physics_2009:dgNarrowPhaseCollision.obj
 0001:00019010       ?GetFirstMaterial@dgWorld@@QBEPAVdgContactMaterial@@XZ 1001a010 f   physics_2009:dgNarrowPhaseCollision.obj
 0001:00019030       ?GetNextMaterial@dgWorld@@QBEPAVdgContactMaterial@@PAV2@@Z 1001a030 f   physics_2009:dgNarrowPhaseCollision.obj
 0001:00019060       ?SortContacts@dgWorld@@ABEXQAVdgContactPoint@@H@Z 1001a060 f   physics_2009:dgNarrowPhaseCollision.obj
 0001:00019240       ?ReduceContacts@dgWorld@@ABEHHQAVdgContactPoint@@HNH@Z 1001a240 f   physics_2009:dgNarrowPhaseCollision.obj
 0001:000193d0       ?PruneContacts@dgWorld@@ABEHHQAVdgContactPoint@@H@Z 1001a3d0 f   physics_2009:dgNarrowPhaseCollision.obj
 0001:00019550       ?ProcessCachedContacts@dgWorld@@ABEXPAVdgContact@@PBVdgContactMaterial@@NH@Z 1001a550 f   physics_2009:dgNarrowPhaseCollision.obj
 0001:00019660       ?ProcessTriggers@dgWorld@@AAEXAAUdgPair@dgCollidingPairCollector@@NH@Z 1001a660 f   physics_2009:dgNarrowPhaseCollision.obj
 0001:00019740       ?ValidateContactCache@dgWorld@@ABEHPAVdgBody@@0PAVdgContact@@@Z 1001a740 f   physics_2009:dgNarrowPhaseCollision.obj
 0001:00019c60       ?CompoundContactsSimd@dgWorld@@ABEXQAUdgPair@dgCollidingPairCollector@@AAVdgCollisionParamProxi@@@Z 1001ac60 f   physics_2009:dgNarrowPhaseCollision.obj
 0001:0001a440       ?CompoundContacts@dgWorld@@ABEXQAUdgPair@dgCollidingPairCollector@@AAVdgCollisionParamProxi@@@Z 1001b440 f   physics_2009:dgNarrowPhaseCollision.obj
 0001:0001b060       ?ConvexContactsSimd@dgWorld@@ABEXQAUdgPair@dgCollidingPairCollector@@AAVdgCollisionParamProxi@@@Z 1001c060 f   physics_2009:dgNarrowPhaseCollision.obj
 0001:0001b180       ?ConvexContacts@dgWorld@@ABEXQAUdgPair@dgCollidingPairCollector@@AAVdgCollisionParamProxi@@@Z 1001c180 f   physics_2009:dgNarrowPhaseCollision.obj
 0001:0001b2a0       ?SceneContacts@dgWorld@@ABEXABUdgProxy@dgCollisionScene@@QAUdgPair@dgCollidingPairCollector@@AAVdgCollisionParamProxi@@@Z 1001c2a0 f   physics_2009:dgNarrowPhaseCollision.obj
 0001:0001b370       ?SceneContacts@dgWorld@@ABEXQAUdgPair@dgCollidingPairCollector@@AAVdgCollisionParamProxi@@@Z 1001c370 f   physics_2009:dgNarrowPhaseCollision.obj
 0001:0001b410       ?SceneContactsSimd@dgWorld@@ABEXQAUdgPair@dgCollidingPairCollector@@AAVdgCollisionParamProxi@@@Z 1001c410 f   physics_2009:dgNarrowPhaseCollision.obj
 0001:0001b4b0       ?Append@?$dgList@VdgContactMaterial@@@@QAEPAVdgListNode@1@XZ 1001c4b0 f i physics_2009:dgNarrowPhaseCollision.obj
 0001:0001b560       ?Find@?$dgTree@VdgContactMaterial@@I@@QBEPAVdgTreeNode@1@I@Z 1001c560 f i physics_2009:dgNarrowPhaseCollision.obj
 0001:0001b590       ?GetMaterial@dgWorld@@QBEPAVdgContactMaterial@@II@Z 1001c590 f   physics_2009:dgNarrowPhaseCollision.obj
 0001:0001b5e0       ?RemoveFromCache@dgWorld@@QAEXPAVdgCollision@@@Z 1001c5e0 f   physics_2009:dgNarrowPhaseCollision.obj
 0001:0001b640       ?ReleaseCollision@dgWorld@@QAEXPAVdgCollision@@@Z 1001c640 f   physics_2009:dgNarrowPhaseCollision.obj
 0001:0001b6b0       ?ClosestCompoundPoint@dgWorld@@ABEHPAVdgBody@@0AAVdgTriplex@@11H@Z 1001c6b0 f   physics_2009:dgNarrowPhaseCollision.obj
 0001:0001bb40       ?CalculateContactsSimd@dgWorld@@AAEXQAUdgPair@dgCollidingPairCollector@@NH@Z 1001cb40 f   physics_2009:dgNarrowPhaseCollision.obj
 0001:0001bce0       ?CalculateContacts@dgWorld@@AAEXQAUdgPair@dgCollidingPairCollector@@NH@Z 1001cce0 f   physics_2009:dgNarrowPhaseCollision.obj
 0001:0001bea0       ?CollideContinueSimd@dgWorld@@QAEHPAVdgCollision@@ABVdgMatrix@@ABVdgVector@@20122AANPAVdgTriplex@@4PANHH@Z 1001cea0 f   physics_2009:dgNarrowPhaseCollision.obj
 0001:0001c4f0       ?CollideContinue@dgWorld@@QAEHPAVdgCollision@@ABVdgMatrix@@ABVdgVector@@20122AANPAVdgTriplex@@4PANHH@Z 1001d4f0 f   physics_2009:dgNarrowPhaseCollision.obj
 0001:0001cb40       ?Collide@dgWorld@@QAEHPAVdgCollision@@ABVdgMatrix@@01PAVdgTriplex@@2PANHH@Z 1001db40 f   physics_2009:dgNarrowPhaseCollision.obj
 0001:0001cfc0       ?ClosestPoint@dgWorld@@QBEHPAVdgCollision@@ABVdgMatrix@@01AAVdgTriplex@@22H@Z 1001dfc0 f   physics_2009:dgNarrowPhaseCollision.obj
 0001:0001d2a0       ?ProcessContacts@dgWorld@@AAEXAAUdgPair@dgCollidingPairCollector@@NH@Z 1001e2a0 f   physics_2009:dgNarrowPhaseCollision.obj
 0001:0001ddd0       ?Insert@?$dgTree@VdgContactMaterial@@I@@QAEPAVdgTreeNode@1@ABVdgContactMaterial@@IAA_N@Z 1001edd0 f i physics_2009:dgNarrowPhaseCollision.obj
 0001:0001deb0       ?ClosestPoint@dgWorld@@QBEHAAVdgTriplex@@PAVdgCollision@@ABVdgMatrix@@00H@Z 1001eeb0 f   physics_2009:dgNarrowPhaseCollision.obj
 0001:0001df30       ?Insert@?$dgTree@PAVdgCollision@@I@@QAEPAVdgTreeNode@1@ABQAVdgCollision@@I@Z 1001ef30 f i physics_2009:dgNarrowPhaseCollision.obj
 0001:0001df50       ?CreateNull@dgWorld@@QAEPAVdgCollision@@XZ 1001ef50 f   physics_2009:dgNarrowPhaseCollision.obj
 0001:0001dfe0       ?CreateBox@dgWorld@@QAEPAVdgCollision@@NNNABVdgMatrix@@@Z 1001efe0 f   physics_2009:dgNarrowPhaseCollision.obj
 0001:0001e140       ?CreateSphere@dgWorld@@QAEPAVdgCollision@@NABVdgMatrix@@@Z 1001f140 f   physics_2009:dgNarrowPhaseCollision.obj
 0001:0001e240       ?CreateEllipse@dgWorld@@QAEPAVdgCollision@@NNNABVdgMatrix@@@Z 1001f240 f   physics_2009:dgNarrowPhaseCollision.obj
 0001:0001e380       ?CreateCapsule@dgWorld@@QAEPAVdgCollision@@NNABVdgMatrix@@@Z 1001f380 f   physics_2009:dgNarrowPhaseCollision.obj
 0001:0001e4b0       ?CreateCone@dgWorld@@QAEPAVdgCollision@@NNABVdgMatrix@@@Z 1001f4b0 f   physics_2009:dgNarrowPhaseCollision.obj
 0001:0001e5e0       ?CreateCylinder@dgWorld@@QAEPAVdgCollision@@NNABVdgMatrix@@@Z 1001f5e0 f   physics_2009:dgNarrowPhaseCollision.obj
 0001:0001e710       ?CreateChamferCylinder@dgWorld@@QAEPAVdgCollision@@NNABVdgMatrix@@@Z 1001f710 f   physics_2009:dgNarrowPhaseCollision.obj
 0001:0001e840       ?CreateConvexHull@dgWorld@@QAEPAVdgCollision@@HPBNHNABVdgMatrix@@@Z 1001f840 f   physics_2009:dgNarrowPhaseCollision.obj
 0001:0001ea00       ?CreateFromSerialization@dgWorld@@QAEPAVdgCollision@@P6AXPAX0I@Z0@Z 1001fa00 f   physics_2009:dgNarrowPhaseCollision.obj
 0001:0001ed40       ?CreateBodyGroupID@dgWorld@@QAEIXZ 1001fd40 f   physics_2009:dgNarrowPhaseCollision.obj
 0001:0001edc0       ?CalculateSignature@dgCollisionConvexPolygon@dgCollisionMesh@@UBEHXZ 1001fdc0 f   physics_2009:dgCollisionMesh.obj
 0001:0001edd0       ?RayCast@dgCollisionConvexPolygon@dgCollisionMesh@@UBENABVdgVector@@0AAVdgContactPoint@@P6AIPBVdgBody@@PBVdgCollision@@PAX@Z24@Z 1001fdd0 f   physics_2009:dgCollisionMesh.obj
 0001:0001edd0       ?RayCastSimd@dgCollision@@UBENABVdgVector@@0AAVdgContactPoint@@P6AIPBVdgBody@@PBV1@PAX@Z24@Z 1001fdd0 f   physics_2009:dgCollision.obj
 0001:0001ede0       ??1dgCollisionMesh@@UAE@XZ 1001fde0 f   physics_2009:dgCollisionMesh.obj
 0001:0001ee20       ?CalculateSignature@dgCollisionMesh@@EBEHXZ 1001fe20 f   physics_2009:dgCollisionMesh.obj
 0001:0001ee20       ?GetUserData@dgCollision@@UBEPAXXZ 1001fe20 f   physics_2009:dgCollision.obj
 0001:0001ee20       ?GetPerformanceCount@dgWorld@@CAIXZ 1001fe20 f   physics_2009:dgWorld.obj
 0001:0001ee20       ?GetUserData@dgCollisionMesh@@UBEPAXXZ 1001fe20 f   physics_2009:dgCollisionMesh.obj
 0001:0001ee20       ?CalculateSignature@dgCollisionScene@@EBEHXZ 1001fe20 f   physics_2009:dgCollisionScene.obj
 0001:0001ee20       ?CalculateSignature@dgCollisionConvexModifier@@EBEHXZ 1001fe20 f   physics_2009:dgCollisionConvexModifier.obj
 0001:0001ee20       ?dgGetCpuType@@YA?AW4dgCpuClass@@XZ 1001fe20 f   corelib_2009:dgTypes.obj
 0001:0001ee20       ?CalculateSignature@dgCompoundCollision@@EBEHXZ 1001fe20 f   physics_2009:dgCompoundCollision.obj
 0001:0001ee30       ?SetCollisionCallback@dgCollisionMesh@@QAEXP6AXPBVdgBody@@0HHPBNH@Z@Z 1001fe30 f   physics_2009:dgCollisionMesh.obj
 0001:0001ee40       ?SetCollisionRayCastCallback@dgCollisionMesh@@QAEXP6ANNPANHPAX@Z@Z 1001fe40 f   physics_2009:dgCollisionMesh.obj
 0001:0001ee50       ?GetCollisionInfo@dgCollisionMesh@@EBEXPAVdgCollisionInfo@@@Z 1001fe50 f   physics_2009:dgCollisionMesh.obj
 0001:0001ee50       ?SetDestructorCallback@dgContact@@EAEXP6AXAAVdgConstraint@@@Z@Z 1001fe50 f   physics_2009:dgContact.obj
 0001:0001ee50       ?JointVelocityCorrection@dgBilateralConstraint@@MAEXABVdgJointAccelerationDecriptor@@@Z 1001fe50 f   physics_2009:dgBilateralConstraint.obj
 0001:0001ee50       ?GetInfo@dgConstraint@@UBEXPAVdgConstraintInfo@@@Z 1001fe50 f   physics_2009:dgConstraint.obj
 0001:0001ee50       ?JointAccelerationsSimd@dgBilateralConstraint@@MAEXABVdgJointAccelerationDecriptor@@@Z 1001fe50 f   physics_2009:dgBilateralConstraint.obj
 0001:0001ee50       ?Remove@dgBilateralConstraint@@MAEXPAVdgWorld@@@Z 1001fe50 f   NewtonClass.obj
 0001:0001ee50       ?JointAccelerationsSimd@dgContact@@EAEXABVdgJointAccelerationDecriptor@@@Z 1001fe50 f   physics_2009:dgContact.obj
 0001:0001ee50       ?ModifierSetMatrix@dgCollision@@UAEXABVdgMatrix@@@Z 1001fe50 f   physics_2009:dgWorld.obj
 0001:0001ee50       ?SetAsTriggerVolume@dgCollision@@UAEX_N@Z 1001fe50 f   physics_2009:dgCollisionMesh.obj
 0001:0001ee50       ?JointVelocityCorrection@dgContact@@EAEXABVdgJointAccelerationDecriptor@@@Z 1001fe50 f   physics_2009:dgContact.obj
 0001:0001ee50       ?SetUserData@dgCollision@@UAEXPAX@Z 1001fe50 f   physics_2009:dgCollision.obj
 0001:0001ee60       ?SupportVertex@dgCollisionConvexPolygon@dgCollisionMesh@@UBE?AVdgVector@@ABV3@@Z 1001fe60 f   physics_2009:dgCollisionMesh.obj
 0001:0001efb0       ?CalculatePlaneIntersection@dgCollisionConvexPolygon@dgCollisionMesh@@UBEHABVdgVector@@0QAV3@@Z 1001ffb0 f   physics_2009:dgCollisionMesh.obj
 0001:0001f800       ??_EdgCollisionMesh@@UAEPAXI@Z 10020800 f i physics_2009:dgCollisionMesh.obj
 0001:0001f800       ??_GdgCollisionMesh@@UAEPAXI@Z 10020800 f i physics_2009:dgCollisionMesh.obj
 0001:0001f820       ??0dgCollisionConvexPolygon@dgCollisionMesh@@QAE@XZ 10020820 f   physics_2009:dgCollisionMesh.obj
 0001:0001f8b0       ??_GdgCollisionConvexPolygon@dgCollisionMesh@@UAEPAXI@Z 100208b0 f i physics_2009:dgCollisionMesh.obj
 0001:0001f8b0       ??_EdgCollisionConvexPolygon@dgCollisionMesh@@UAEPAXI@Z 100208b0 f i physics_2009:dgCollisionMesh.obj
 0001:0001f8d0       ?CalculateNormal@dgCollisionConvexPolygon@dgCollisionMesh@@QAEXXZ 100208d0 f   physics_2009:dgCollisionMesh.obj
 0001:0001fa10       ?ClipContacts@dgCollisionConvexPolygon@dgCollisionMesh@@QBEHHQAVdgContactPoint@@ABVdgMatrix@@@Z 10020a10 f   physics_2009:dgCollisionMesh.obj
 0001:000200e0       ?ClosestDistanceToTriangle@dgCollisionConvexPolygon@dgCollisionMesh@@QBE?AVdgVector@@ABV3@000@Z 100210e0 f   physics_2009:dgCollisionMesh.obj
 0001:00020480       ?PointToPolygonDistance@dgCollisionConvexPolygon@dgCollisionMesh@@QAE_NABVdgVector@@NAAV3@@Z 10021480 f   physics_2009:dgCollisionMesh.obj
 0001:00020680       ?MovingPointToPolygonContact@dgCollisionConvexPolygon@dgCollisionMesh@@QAENABVdgVector@@0NAAVdgContactPoint@@@Z 10021680 f   physics_2009:dgCollisionMesh.obj
 0001:00020db0       ?SetCollisionBBox@dgCollisionScene@@EAEXABVdgVector@@0@Z 10021db0 f   physics_2009:dgCollisionScene.obj
 0001:00020db0       ?SetCollisionBBox@dgCollisionMesh@@MAEXABVdgVector@@0@Z 10021db0 f   physics_2009:dgCollisionMesh.obj
 0001:00020e40       ?QuickTestContinue@dgCollisionConvexPolygon@dgCollisionMesh@@QAEHPBVdgConvexCollision@@ABVdgMatrix@@@Z 10021e40 f   physics_2009:dgCollisionMesh.obj
 0001:00021090       ?QuickTest@dgCollisionConvexPolygon@dgCollisionMesh@@QAEHPBVdgConvexCollision@@ABVdgMatrix@@@Z 10022090 f   physics_2009:dgCollisionMesh.obj
 0001:000213d0       ??0dgCollisionMesh@@QAE@W4dgCollisionID@@@Z 100223d0 f   physics_2009:dgCollisionMesh.obj
 0001:00021490       ??0dgCollisionMesh@@QAE@PAVdgWorld@@P6AXPAX1I@Z1@Z 10022490 f   physics_2009:dgCollisionMesh.obj
 0001:00021550       ??0dgCollisionBVH@@QAE@XZ  10022550 f   physics_2009:dgCollisionBVH.obj
 0001:00021590       ?Serialize@dgCollisionBVH@@EBEXP6AXPAXPBXI@Z0@Z 10022590 f   physics_2009:dgCollisionBVH.obj
 0001:000215c0       ?AddFace@dgCollisionBVH@@QAEXHQBNHH@Z 100225c0 f   physics_2009:dgCollisionBVH.obj
 0001:00021630       ?CollectVertexListIndexList@dgCollisionBVH@@CA?AW4dgIntersectStatus@@PAXQBNHQBHH@Z 10022630 f   physics_2009:dgCollisionBVH.obj
 0001:000216d0       ?GetVertexListIndexList@dgCollisionBVH@@QBEXABVdgVector@@0AAVdgGetVertexListIndexList@1@@Z 100226d0 f   physics_2009:dgCollisionBVH.obj
 0001:00021700       ?SupportVertex@dgCollisionBVH@@EBE?AVdgVector@@ABV2@@Z 10022700 f   physics_2009:dgCollisionBVH.obj
 0001:00021730       ??_EdgCollisionBVH@@WBCA@AEPAXI@Z 10022730 f i physics_2009:dgCollisionBVH.obj
 0001:00021740       ?Serialize@dgCollisionBVH@@GBCA@BEXP6AXPAXPBXI@Z0@Z 10022740 f i physics_2009:dgCollisionBVH.obj
 0001:00021750       ??_GdgCollisionBVH@@UAEPAXI@Z 10022750 f i physics_2009:dgCollisionBVH.obj
 0001:00021750       ??_EdgCollisionBVH@@UAEPAXI@Z 10022750 f i physics_2009:dgCollisionBVH.obj
 0001:00021790       ?BeginBuild@dgCollisionBVH@@QAEXXZ 10022790 f   physics_2009:dgCollisionBVH.obj
 0001:000217d0       ??0dgCollisionBVH@@QAE@PAVdgWorld@@P6AXPAX1I@Z1@Z 100227d0 f   physics_2009:dgCollisionBVH.obj
 0001:00021860       ?EndBuild@dgCollisionBVH@@QAEXH@Z 10022860 f   physics_2009:dgCollisionBVH.obj
 0001:000218f0       ?RayHitSimd@dgCollisionBVH@@CANPAXQBNHQBHH@Z 100228f0 f   physics_2009:dgCollisionBVH.obj
 0001:000219a0       ?RayHit@dgCollisionBVH@@CANPAXQBNHQBHH@Z 100229a0 f   physics_2009:dgCollisionBVH.obj
 0001:00021a50       ?RayHitUserSimd@dgCollisionBVH@@CANPAXQBNHQBHH@Z 10022a50 f   physics_2009:dgCollisionBVH.obj
 0001:00021b50       ?RayHitUser@dgCollisionBVH@@CANPAXQBNHQBHH@Z 10022b50 f   physics_2009:dgCollisionBVH.obj
 0001:00021cb0       ?RayCastSimd@dgCollisionBVH@@EBENABVdgVector@@0AAVdgContactPoint@@P6AIPBVdgBody@@PBVdgCollision@@PAX@Z24@Z 10022cb0 f   physics_2009:dgCollisionBVH.obj
 0001:00021ee0       ?RayCast@dgCollisionBVH@@EBENABVdgVector@@0AAVdgContactPoint@@P6AIPBVdgBody@@PBVdgCollision@@PAX@Z24@Z 10022ee0 f   physics_2009:dgCollisionBVH.obj
 0001:00022110       ?GetPolygon@dgCollisionBVH@@CA?AW4dgIntersectStatus@@PAXQBNHQBHH@Z 10023110 f   physics_2009:dgCollisionBVH.obj
 0001:00022530       ?GetCollidingFacesSimd@dgCollisionBVH@@EBEXQAVdgPolygonMeshDesc@@@Z 10023530 f   physics_2009:dgCollisionBVH.obj
 0001:000225a0       ?GetCollidingFaces@dgCollisionBVH@@EBEXQAVdgPolygonMeshDesc@@@Z 100235a0 f   physics_2009:dgCollisionBVH.obj
 0001:00022610       ?ShowDebugPolygon@dgCollisionBVH@@CA?AW4dgIntersectStatus@@PAXQBNHQBHH@Z 10023610 f   physics_2009:dgCollisionBVH.obj
 0001:000228a0       ?DebugCollision@dgCollisionBVH@@EBEXABVdgMatrix@@P6AXPAXHPBNH@Z1@Z 100238a0 f   physics_2009:dgCollisionBVH.obj
 0001:00022930       ??_GdgSceneNode@dgCollisionScene@@QAEPAXI@Z 10023930 f i physics_2009:dgCollisionScene.obj
 0001:00022980       ?GetBoxMaxRadius@dgCollisionMesh@@UBENXZ 10023980 f   physics_2009:dgCollisionMesh.obj
 0001:00022980       ?GetVolume@dgCollisionPoint@@UBENXZ 10023980 f   physics_2009:dgCollisionSphere.obj
 0001:00022980       ?GetVolume@dgCollisionConvexPolygon@dgCollisionMesh@@UBENXZ 10023980 f   physics_2009:dgCollisionMesh.obj
 0001:00022980       ?GetVolume@dgCollisionMesh@@UBENXZ 10023980 f   physics_2009:dgCollisionMesh.obj
 0001:00022980       ?GetVolume@dgCollisionScene@@EBENXZ 10023980 f   physics_2009:dgCollisionScene.obj
 0001:00022980       ?GetVolume@dgCollisionNull@@MBENXZ 10023980 f   physics_2009:dgCollisionNull.obj
 0001:00022980       ?GetBoxMinRadius@dgCollisionScene@@EBENXZ 10023980 f   physics_2009:dgCollisionScene.obj
 0001:00022980       ?GetBoxMaxRadius@dgCollisionConvexPolygon@dgCollisionMesh@@UBENXZ 10023980 f   physics_2009:dgCollisionMesh.obj
 0001:00022980       ?GetBoxMinRadius@dgCollisionConvexPolygon@dgCollisionMesh@@UBENXZ 10023980 f   physics_2009:dgCollisionMesh.obj
 0001:00022980       ?GetBoxMaxRadius@dgCollisionScene@@EBENXZ 10023980 f   physics_2009:dgCollisionScene.obj
 0001:00022980       ?GetBoxMinRadius@dgCollisionMesh@@UBENXZ 10023980 f   physics_2009:dgCollisionMesh.obj
 0001:00022990       ?UpdateAABB@dgSceneNode@dgCollisionScene@@QAEXABVdgVector@@0@Z 10023990 f i physics_2009:dgCollisionScene.obj
 0001:00022a30       ?Serialize@dgCollisionScene@@EBEXP6AXPAXPBXI@Z0@Z 10023a30 f   physics_2009:dgCollisionScene.obj
 0001:00022bd0       ?SetProxyMatrix@dgCollisionScene@@QAEXPAXABVdgMatrix@@@Z 10023bd0 f   physics_2009:dgCollisionScene.obj
 0001:00022c30       ?SetCollisionCallback@dgCollisionScene@@QAEXP6AXPBVdgBody@@0HHPBNH@Z@Z 10023c30 f   physics_2009:dgCollisionScene.obj
 0001:00022c70       ?DebugCollision@dgCollisionScene@@EBEXABVdgMatrix@@P6AXPAXHPBNH@Z1@Z 10023c70 f   physics_2009:dgCollisionScene.obj
 0001:00022cf0       ?GetCollisionInfo@dgCollisionScene@@EBEXPAVdgCollisionInfo@@@Z 10023cf0 f   physics_2009:dgCollisionScene.obj
 0001:00022d30       ?RemoveAll@?$dgList@UdgProxy@dgCollisionScene@@@@QAEXXZ 10023d30 f i physics_2009:dgCollisionScene.obj
 0001:00022da0       ?GetProxyMatrix@dgCollisionScene@@QAE?AVdgMatrix@@PAX@Z 10023da0 f   physics_2009:dgCollisionScene.obj
 0001:00022ef0       ?CalcAABB@dgCollisionScene@@EBEXABVdgMatrix@@AAVdgVector@@1@Z 10023ef0 f   physics_2009:dgCollisionScene.obj
 0001:00022ef0       ?CalcAABB@dgCollisionMesh@@EBEXABVdgMatrix@@AAVdgVector@@1@Z 10023ef0 f   physics_2009:dgCollisionMesh.obj
 0001:000230e0       ?CalculateVolumeIntegral@dgCollisionScene@@EBE?AVdgVector@@ABVdgMatrix@@P6AIPAX10AAVdgPlane@@@Z1@Z 100240e0 f   physics_2009:dgCollisionScene.obj
 0001:000230e0       ?CalculateVolumeIntegral@dgCollisionNull@@MBE?AVdgVector@@ABVdgMatrix@@P6AIPAX10AAVdgPlane@@@Z1@Z 100240e0 f   physics_2009:dgCollisionNull.obj
 0001:000230e0       ?CalculateVolumeIntegral@dgCollisionMesh@@EBE?AVdgVector@@ABVdgMatrix@@P6AIPAX10AAVdgPlane@@@Z1@Z 100240e0 f   physics_2009:dgCollisionMesh.obj
 0001:00023100       ?GetAxis@dgCollisionScene@@ABEHQAPAVdgListNode@?$dgList@UdgProxy@dgCollisionScene@@@@H@Z 10024100 f   physics_2009:dgCollisionScene.obj
 0001:000234c0       ?RayCastSimd@dgCollisionScene@@EBENABVdgVector@@0AAVdgContactPoint@@P6AIPBVdgBody@@PBVdgCollision@@PAX@Z24@Z 100244c0 f   physics_2009:dgCollisionScene.obj
 0001:00023940       ?RayCast@dgCollisionScene@@EBENABVdgVector@@0AAVdgContactPoint@@P6AIPBVdgBody@@PBVdgCollision@@PAX@Z24@Z 10024940 f   physics_2009:dgCollisionScene.obj
 0001:00023dc0       ?CollidePairSimd@dgCollisionScene@@QBEXQAUdgPair@dgCollidingPairCollector@@AAVdgCollisionParamProxi@@@Z 10024dc0 f   physics_2009:dgCollisionScene.obj
 0001:00023f40       ?CollidePair@dgCollisionScene@@QBEXQAUdgPair@dgCollidingPairCollector@@AAVdgCollisionParamProxi@@@Z 10024f40 f   physics_2009:dgCollisionScene.obj
 0001:000243d0       ?SortAABBBoxes@dgCollisionScene@@ABEHQAPAVdgListNode@?$dgList@UdgProxy@dgCollisionScene@@@@H@Z 100253d0 f   physics_2009:dgCollisionScene.obj
 0001:00024540       ?SortAndSpliteSplite@dgCollisionScene@@ABEHQAPAVdgListNode@?$dgList@UdgProxy@dgCollisionScene@@@@H@Z 10025540 f   physics_2009:dgCollisionScene.obj
 0001:00024760       ?BuildTree@dgCollisionScene@@AAEPAUdgSceneNode@1@PAU21@QAPAVdgListNode@?$dgList@UdgProxy@dgCollisionScene@@@@HH@Z 10025760 f   physics_2009:dgCollisionScene.obj
 0001:00024880       ??0dgListNode@?$dgList@UdgProxy@dgCollisionScene@@@@AAE@PAV01@0@Z 10025880 f i physics_2009:dgCollisionScene.obj
 0001:000248d0       ??0dgCollisionScene@@QAE@PAVdgWorld@@@Z 100258d0 f   physics_2009:dgCollisionScene.obj
 0001:00024960       ??1dgCollisionScene@@UAE@XZ 10025960 f   physics_2009:dgCollisionScene.obj
 0001:000249e0       ?Append@?$dgList@UdgProxy@dgCollisionScene@@@@QAEPAVdgListNode@1@XZ 100259e0 f i physics_2009:dgCollisionScene.obj
 0001:00024a70       ??_GdgCollisionScene@@UAEPAXI@Z 10025a70 f i physics_2009:dgCollisionScene.obj
 0001:00024a70       ??_EdgCollisionScene@@UAEPAXI@Z 10025a70 f i physics_2009:dgCollisionScene.obj
 0001:00024a90       ?AddProxy@dgCollisionScene@@QAEPAXPAVdgCollision@@@Z 10025a90 f   physics_2009:dgCollisionScene.obj
 0001:00024ae0       ?BuildTree@dgCollisionScene@@QAEXXZ 10025ae0 f   physics_2009:dgCollisionScene.obj
 0001:00024c50       ??0dgCollisionScene@@QAE@PAVdgWorld@@P6AXPAX1I@Z1@Z 10025c50 f   physics_2009:dgCollisionScene.obj
 0001:00024f00       ?SetAparentMassMatrix@dgBody@@QAEXABVdgVector@@@Z 10025f00 f   physics_2009:dgBody.obj
 0001:00024f70       _NewtonMaterialSetContactNormalDirection 10025f70 f   Newton.obj
 0001:00024f70       ??1dgBody@@QAE@XZ          10025f70 f   physics_2009:dgBody.obj
 0001:00024f70       ??1dgCollidingPairCollector@@QAE@XZ 10025f70 f   physics_2009:dgContact.obj
 0001:00024f70       ?Init@dgBilateralConstraint@@MAEXXZ 10025f70 f   NewtonClass.obj
 0001:00024f70       ?BeginFace@dgPolyhedra@@QAEXXZ 10025f70 f   corelib_2009:dgPolyhedra.obj
 0001:00024f70       ?CalcInvInertiaMatrixSimD@dgBody@@QAEXXZ 10025f70 f   physics_2009:dgBody.obj
 0001:00024f70       ??3@YAXPAX@Z               10025f70 f   NewtonStdAfx.obj
 0001:00024f80       ??DdgQuaternion@@QBE?AV0@ABV0@@Z 10025f80 f i physics_2009:dgBody.obj
 0001:00025010       ?AddBuoyancyForce@dgBody@@QAEXNNNABVdgVector@@P6AIPAX1ABVdgMatrix@@AAVdgPlane@@@Z1@Z 10026010 f   physics_2009:dgBody.obj
 0001:000252b0       ?CalcInvInertiaMatrix@dgBody@@QAEXXZ 100262b0 f   physics_2009:dgBody.obj
 0001:00025380       ?CalculateInverseDynamicForce@dgBody@@QBE?AVdgVector@@ABV2@N@Z 10026380 f   physics_2009:dgBody.obj
 0001:000253f0       ?GetFirstJoint@dgBody@@QBEPAVdgConstraint@@XZ 100263f0 f   physics_2009:dgBody.obj
 0001:00025420       ?GetNextJoint@dgBody@@QBEPAVdgConstraint@@PAV2@@Z 10026420 f   physics_2009:dgBody.obj
 0001:00025460       ?GetFirstContact@dgBody@@QBEPAVdgConstraint@@XZ 10026460 f   physics_2009:dgBody.obj
 0001:00025490       ?GetNextContact@dgBody@@QBEPAVdgConstraint@@PAV2@@Z 10026490 f   physics_2009:dgBody.obj
 0001:000254d0       ?Freeze@dgBody@@QAEXXZ     100264d0 f   physics_2009:dgBody.obj
 0001:00025520       ?Unfreeze@dgBody@@QAEXXZ   10026520 f   physics_2009:dgBody.obj
 0001:00025570       ?RotateToEnd@?$dgList@VdgBodyMasterListRow@@@@QAEXPAVdgListNode@1@@Z 10026570 f i physics_2009:dgBody.obj
 0001:000255d0       ?InsertAfter@?$dgList@VdgSortArrayEntry@@@@QAEXPAVdgListNode@1@0@Z 100265d0 f i physics_2009:dgBroadPhaseCollision.obj
 0001:000255d0       ?InsertAfter@?$dgList@VdgBodyMasterListRow@@@@QAEXPAVdgListNode@1@0@Z 100265d0 f i physics_2009:dgBody.obj
 0001:00025640       ??0dgBody@@QAE@XZ          10026640 f   physics_2009:dgBody.obj
 0001:00025660       ?SetMassMatrix@dgBody@@QAEXNNNN@Z 10026660 f   physics_2009:dgBody.obj
 0001:00025770       ?UpdateCollisionMatrix@dgBody@@AAEXNH@Z 10026770 f   physics_2009:dgBody.obj
 0001:00025be0       ?UpdateMatrix@dgBody@@AAEXNH@Z 10026be0 f   physics_2009:dgBody.obj
 0001:00025c20       ?IntegrateVelocity@dgBody@@AAEXN@Z 10026c20 f   physics_2009:dgBody.obj
 0001:00025f10       ?CalculateContinueVelocity@dgBody@@ABEXNAAVdgVector@@0@Z 10026f10 f   physics_2009:dgBody.obj
 0001:00026060       ?SetFreeze@dgBody@@QAEX_N@Z 10027060 f   physics_2009:dgBody.obj
 0001:00026080       ?AddImpulse@dgBody@@AAEXABVdgVector@@0@Z 10027080 f   physics_2009:dgBody.obj
 0001:00026470       ?SetMatrix@dgBody@@QAEXABVdgMatrix@@@Z 10027470 f   physics_2009:dgBody.obj
 0001:00026560       ?SetMatrixIgnoreSleep@dgBody@@QAEXABVdgMatrix@@@Z 10027560 f   physics_2009:dgBody.obj
 0001:00026600       ?RayCast@dgBody@@QBENABUdgLineBox@@P6ANPBV1@ABVdgVector@@HPAXN@ZP6AI1PBVdgCollision@@3@Z3N@Z 10027600 f   physics_2009:dgBody.obj
 0001:00026830       ?AttachCollision@dgBody@@QAEXPAVdgCollision@@@Z 10027830 f   physics_2009:dgBody.obj
 0001:00026950       ?SetJointParameterCallBack@dgBallConstraint@@QAEXP6AIABV1@N@Z@Z 10027950 f   physics_2009:dgBallConstraint.obj
 0001:00026960       ?GetJointAngle@dgBallConstraint@@QBE?AVdgVector@@XZ 10027960 f   physics_2009:dgBallConstraint.obj
 0001:00026980       ?SetTwistLimitState@dgBallConstraint@@QAEX_N@Z 10027980 f   physics_2009:dgBallConstraint.obj
 0001:000269a0       ?SetConeLimitState@dgBallConstraint@@QAEX_N@Z 100279a0 f   physics_2009:dgBallConstraint.obj
 0001:000269c0       ?SetLatealLimitState@dgBallConstraint@@QAEX_N@Z 100279c0 f   physics_2009:dgBallConstraint.obj
 0001:000269e0       ??_GdgBallConstraint@@EAEPAXI@Z 100279e0 f i physics_2009:dgBallConstraint.obj
 0001:000269e0       ??_EdgBallConstraint@@EAEPAXI@Z 100279e0 f i physics_2009:dgBallConstraint.obj
 0001:00026a10       ??0dgBallConstraint@@AAE@XZ 10027a10 f   physics_2009:dgBallConstraint.obj
 0001:00026a70       ?GetJointOmega@dgBallConstraint@@QBE?AVdgVector@@XZ 10027a70 f   physics_2009:dgBallConstraint.obj
 0001:00026be0       ?GetJointForce@dgBallConstraint@@QBE?AVdgVector@@XZ 10027be0 f   physics_2009:dgBallConstraint.obj
 0001:00026c90       ?SetLimits@dgBallConstraint@@QAEXABVdgVector@@NNN0NN@Z 10027c90 f   physics_2009:dgBallConstraint.obj
 0001:00027380       ?SetPivotPoint@dgBallConstraint@@AAEXABVdgVector@@@Z 10028380 f   physics_2009:dgBallConstraint.obj
 0001:00027460       ?JacobianDerivative@dgBallConstraint@@EAEIAAVdgContraintDescritor@@@Z 10028460 f   physics_2009:dgBallConstraint.obj
 0001:00027b50       ??0dgHingeConstraint@@AAE@XZ 10028b50 f   physics_2009:dgHingeConstraint.obj
 0001:00027b90       ?SetJointParameterCallBack@dgSlidingConstraint@@QAEXP6AIABV1@PAVdgJointCallBackParam@@@Z@Z 10028b90 f   physics_2009:dgSlidingConstraint.obj
 0001:00027b90       ?SetJointParameterCallBack@dgHingeConstraint@@QAEXP6AIABV1@PAVdgJointCallBackParam@@@Z@Z 10028b90 f   physics_2009:dgHingeConstraint.obj
 0001:00027ba0       ??_EdgHingeConstraint@@EAEPAXI@Z 10028ba0 f i physics_2009:dgHingeConstraint.obj
 0001:00027ba0       ??_GdgHingeConstraint@@EAEPAXI@Z 10028ba0 f i physics_2009:dgHingeConstraint.obj
 0001:00027bd0       ?CalculateStopAlpha@dgHingeConstraint@@QBENNPBVdgJointCallBackParam@@@Z 10028bd0 f   physics_2009:dgHingeConstraint.obj
 0001:00027c80       ?GetJointForce@dgHingeConstraint@@QBE?AVdgVector@@XZ 10028c80 f   physics_2009:dgHingeConstraint.obj
 0001:00027de0       ?JacobianDerivative@dgHingeConstraint@@EAEIAAVdgContraintDescritor@@@Z 10028de0 f   physics_2009:dgHingeConstraint.obj
 0001:000280a0       ??0dgSlidingConstraint@@AAE@XZ 100290a0 f   physics_2009:dgSlidingConstraint.obj
 0001:000280e0       ??_GdgSlidingConstraint@@EAEPAXI@Z 100290e0 f i physics_2009:dgSlidingConstraint.obj
 0001:000280e0       ??_EdgSlidingConstraint@@EAEPAXI@Z 100290e0 f i physics_2009:dgSlidingConstraint.obj
 0001:00028110       ?GetJointVeloc@dgCorkscrewConstraint@@QBENXZ 10029110 f   physics_2009:dgCorkscrewConstraint.obj
 0001:00028110       ?GetJointVeloc@dgSlidingConstraint@@QBENXZ 10029110 f   physics_2009:dgSlidingConstraint.obj
 0001:00028190       ?CalculateStopAccel@dgSlidingConstraint@@QBENNPBVdgJointCallBackParam@@@Z 10029190 f   physics_2009:dgSlidingConstraint.obj
 0001:00028230       ?GetJointForce@dgSlidingConstraint@@QBE?AVdgVector@@XZ 10029230 f   physics_2009:dgSlidingConstraint.obj
 0001:00028360       ?JacobianDerivative@dgSlidingConstraint@@EAEIAAVdgContraintDescritor@@@Z 10029360 f   physics_2009:dgSlidingConstraint.obj
 0001:000288c0       ??0dgCorkscrewConstraint@@AAE@XZ 100298c0 f   physics_2009:dgCorkscrewConstraint.obj
 0001:00028900       ?GetJointAngle@dgHingeConstraint@@QBENXZ 10029900 f   physics_2009:dgHingeConstraint.obj
 0001:00028900       ?GetJointAngle@dgCorkscrewConstraint@@QBENXZ 10029900 f   physics_2009:dgCorkscrewConstraint.obj
 0001:00028900       ?GetJointPosit@dgSlidingConstraint@@QBENXZ 10029900 f   physics_2009:dgSlidingConstraint.obj
 0001:00028900       ?GetJointAngle0@dgUniversalConstraint@@QBENXZ 10029900 f   physics_2009:dgUniversalConstraint.obj
 0001:00028910       ?GetJointAngle1@dgUniversalConstraint@@QBENXZ 10029910 f   physics_2009:dgUniversalConstraint.obj
 0001:00028910       ?GetJointPosit@dgCorkscrewConstraint@@QBENXZ 10029910 f   physics_2009:dgCorkscrewConstraint.obj
 0001:00028920       ??_EdgCorkscrewConstraint@@EAEPAXI@Z 10029920 f i physics_2009:dgCorkscrewConstraint.obj
 0001:00028920       ??_GdgCorkscrewConstraint@@EAEPAXI@Z 10029920 f i physics_2009:dgCorkscrewConstraint.obj
 0001:00028950       ?CalculateStopAlpha@dgCorkscrewConstraint@@QBENNPBVdgJointCallBackParam@@@Z 10029950 f   physics_2009:dgCorkscrewConstraint.obj
 0001:00028950       ?CalculateStopAlpha0@dgUniversalConstraint@@QBENNPBVdgJointCallBackParam@@@Z 10029950 f   physics_2009:dgUniversalConstraint.obj
 0001:000289f0       ?CalculateStopAccel@dgCorkscrewConstraint@@QBENNPBVdgJointCallBackParam@@@Z 100299f0 f   physics_2009:dgCorkscrewConstraint.obj
 0001:00028a90       ?JacobianDerivative@dgCorkscrewConstraint@@EAEIAAVdgContraintDescritor@@@Z 10029a90 f   physics_2009:dgCorkscrewConstraint.obj
 0001:00028f80       ??0dgUniversalConstraint@@AAE@XZ 10029f80 f   physics_2009:dgUniversalConstraint.obj
 0001:00028fc0       ?SetJointParameterCallBack@dgUniversalConstraint@@QAEXP6AIABV1@PAVdgJointCallBackParam@@@Z@Z 10029fc0 f   physics_2009:dgUniversalConstraint.obj
 0001:00028fc0       ?SetJointParameterCallBack@dgCorkscrewConstraint@@QAEXP6AIABV1@PAVdgJointCallBackParam@@@Z@Z 10029fc0 f   physics_2009:dgCorkscrewConstraint.obj
 0001:00028fd0       ??_GdgUniversalConstraint@@EAEPAXI@Z 10029fd0 f i physics_2009:dgUniversalConstraint.obj
 0001:00028fd0       ??_EdgUniversalConstraint@@EAEPAXI@Z 10029fd0 f i physics_2009:dgUniversalConstraint.obj
 0001:00029000       ?GetJointOmega@dgHingeConstraint@@QBENXZ 1002a000 f   physics_2009:dgHingeConstraint.obj
 0001:00029000       ?GetJointOmega0@dgUniversalConstraint@@QBENXZ 1002a000 f   physics_2009:dgUniversalConstraint.obj
 0001:00029000       ?GetJointOmega@dgCorkscrewConstraint@@QBENXZ 1002a000 f   physics_2009:dgCorkscrewConstraint.obj
 0001:00029080       ?GetJointOmega1@dgUniversalConstraint@@QBENXZ 1002a080 f   physics_2009:dgUniversalConstraint.obj
 0001:00029120       ?CalculateStopAlpha1@dgUniversalConstraint@@QBENNPBVdgJointCallBackParam@@@Z 1002a120 f   physics_2009:dgUniversalConstraint.obj
 0001:000291c0       ?GetJointForce@dgUniversalConstraint@@QBE?AVdgVector@@XZ 1002a1c0 f   physics_2009:dgUniversalConstraint.obj
 0001:000291c0       ?GetJointForce@dgCorkscrewConstraint@@QBE?AVdgVector@@XZ 1002a1c0 f   physics_2009:dgCorkscrewConstraint.obj
 0001:000292c0       ?JacobianDerivative@dgUniversalConstraint@@EAEIAAVdgContraintDescritor@@@Z 1002a2c0 f   physics_2009:dgUniversalConstraint.obj
 0001:00029820       ??0dgUpVectorConstraint@@AAE@XZ 1002a820 f   physics_2009:dgUpVectorConstraint.obj
 0001:00029860       ?IsBilateral@dgUpVectorConstraint@@UBE_NXZ 1002a860 f   physics_2009:dgUpVectorConstraint.obj
 0001:00029860       ?IsTriggerVolume@dgCollision@@UBE_NXZ 1002a860 f   physics_2009:dgCollisionMesh.obj
 0001:00029860       ?IsBilateral@dgConstraint@@MBE_NXZ 1002a860 f   physics_2009:dgConstraint.obj
 0001:00029870       ?InitPinDir@dgUpVectorConstraint@@QAEXABVdgVector@@@Z 1002a870 f   physics_2009:dgUpVectorConstraint.obj
 0001:000298b0       ?GetPinDir@dgUpVectorConstraint@@QBE?AVdgVector@@XZ 1002a8b0 f   physics_2009:dgUpVectorConstraint.obj
 0001:000298d0       ??_EdgUpVectorConstraint@@EAEPAXI@Z 1002a8d0 f i physics_2009:dgUpVectorConstraint.obj
 0001:000298d0       ??_GdgUpVectorConstraint@@EAEPAXI@Z 1002a8d0 f i physics_2009:dgUpVectorConstraint.obj
 0001:00029900       ?SetPinDir@dgUpVectorConstraint@@QAEXABVdgVector@@@Z 1002a900 f   physics_2009:dgUpVectorConstraint.obj
 0001:00029a70       ?JacobianDerivative@dgUpVectorConstraint@@EAEIAAVdgContraintDescritor@@@Z 1002aa70 f   physics_2009:dgUpVectorConstraint.obj
 0001:00029c60       ?GetUserData@dgConstraint@@QBEPAXXZ 1002ac60 f   physics_2009:dgConstraint.obj
 0001:00029c70       ?SetUserData@dgConstraint@@QAEXPAX@Z 1002ac70 f   physics_2009:dgConstraint.obj
 0001:00029c80       ?InitInfo@dgConstraint@@IBEXPAVdgConstraintInfo@@@Z 1002ac80 f   physics_2009:dgConstraint.obj
 0001:00029d10       ?InitPointParam@dgConstraint@@IBEXAAVdgPointParam@1@NABVdgVector@@1@Z 1002ad10 f   physics_2009:dgConstraint.obj
 0001:00029f80       ?Realloc@dgBroadPhaseCalculateContactsWorkerThread@@QAEXHHH@Z 1002af80 f   physics_2009:dgBroadPhaseCollision.obj
 0001:0002a070       ?ThreadExecute@dgBroadPhaseCalculateContactsWorkerThread@@UAEXXZ 1002b070 f   physics_2009:dgBroadPhaseCollision.obj
 0001:0002a240       ?ThreadExecute@dgBroadPhaseMaterialCallbackWorkerThread@@UAEXXZ 1002b240 f   physics_2009:dgBroadPhaseCollision.obj
 0001:0002a350       ?RayCast@dgSortArray@@QBENNABUdgLineBox@@P6ANPBVdgBody@@ABVdgVector@@HPAXN@ZP6AI1PBVdgCollision@@3@Z3@Z 1002b350 f   physics_2009:dgBroadPhaseCollision.obj
 0001:0002a3b0       ?UpdateAutoPair@dgBroadPhaseCell@@AAEXPAVdgWorld@@H@Z 1002b3b0 f   physics_2009:dgBroadPhaseCollision.obj
 0001:0002a510       ?UpdatePairs@dgBroadPhaseCollision@@ABEXPAVdgBody@@PAVdgListNode@?$dgList@VdgSortArrayEntry@@@@HH@Z 1002b510 f   physics_2009:dgBroadPhaseCollision.obj
 0001:0002a600       ?UpdatePairs@dgBroadPhaseCollision@@ABEXAAVdgBroadPhaseCell@@0H@Z 1002b600 f   physics_2009:dgBroadPhaseCollision.obj
 0001:0002a680       ?ThreadExecute@dgBroadPhaseCellPairsWorkerThread@@UAEXXZ 1002b680 f   physics_2009:dgBroadPhaseCollision.obj
 0001:0002a740       ?UpdateContactsBroadPhaseEnd@dgBroadPhaseCollision@@AAEXN@Z 1002b740 f   physics_2009:dgBroadPhaseCollision.obj
 0001:0002a7e0       ?Append@?$dgList@VdgSortArrayEntry@@@@QAEPAVdgListNode@1@XZ 1002b7e0 f i physics_2009:dgBroadPhaseCollision.obj
 0001:0002a860       ?InsertBefore@?$dgList@VdgSortArrayEntry@@@@QAEXPAVdgListNode@1@0@Z 1002b860 f i physics_2009:dgBroadPhaseCollision.obj
 0001:0002a8d0       ?RemoveAll@?$dgList@VdgSortArrayEntry@@@@QAEXXZ 1002b8d0 f i physics_2009:dgBroadPhaseCollision.obj
 0001:0002a930       ?ApplyExtenalForces@dgBody@@AAEXNH@Z 1002b930 f i physics_2009:dgBroadPhaseCollision.obj
 0001:0002a9a0       ?IsInEquelibrium@dgBody@@QBE_NXZ 1002b9a0 f i physics_2009:dgBroadPhaseCollision.obj
 0001:0002ab20       ?Add@dgSortArray@@QAEXPAVdgBody@@@Z 1002bb20 f   physics_2009:dgBroadPhaseCollision.obj
 0001:0002abd0       ?UpdatePoisition@dgSortArray@@QAEXPAVdgBody@@@Z 1002bbd0 f   physics_2009:dgBroadPhaseCollision.obj
 0001:0002ad20       ?Add@dgBroadPhaseCell@@AAEXPAVdgBody@@@Z 1002bd20 f   physics_2009:dgBroadPhaseCollision.obj
 0001:0002ad60       ?UpdatePoisition@dgBroadPhaseCell@@AAEXPAVdgBody@@@Z 1002bd60 f   physics_2009:dgBroadPhaseCollision.obj
 0001:0002ad90       ?ForEachBodyInAABB@dgBroadPhaseCollision@@QBEXABVdgVector@@0P6AXPAVdgBody@@@Z@Z 1002bd90 f   physics_2009:dgBroadPhaseCollision.obj
 0001:0002b050       ?ConvexCast@dgBroadPhaseCollision@@QBEHPAVdgCollision@@ABVdgMatrix@@ABVdgVector@@AANP6AIPBVdgBody@@PBV2@PAX@Z6QAVdgConvexCastReturnInfo@@HH@Z 1002c050 f   physics_2009:dgBroadPhaseCollision.obj
 0001:0002b6e0       ?ThreadExecute@dgBroadPhaseApplyExternalForce@@UAEXXZ 1002c6e0 f   physics_2009:dgBroadPhaseCollision.obj
 0001:0002b920       ?RayCast@dgBroadPhaseCollision@@QBEXABVdgVector@@0P6ANPBVdgBody@@0HPAXN@ZP6AI1PBVdgCollision@@2@Z2@Z 1002c920 f   physics_2009:dgBroadPhaseCollision.obj
 0001:0002bff0       ?Remove@?$dgList@VdgSortArrayEntry@@@@QAEXPAVdgListNode@1@@Z 1002cff0 f i physics_2009:dgBroadPhaseCollision.obj
 0001:0002c040       ?Remove@dgBroadPhaseCell@@AAEXPAVdgBody@@@Z 1002d040 f   physics_2009:dgBroadPhaseCollision.obj
 0001:0002c0c0       ??0dgBroadPhaseCollision@@AAE@XZ 1002d0c0 f   physics_2009:dgBroadPhaseCollision.obj
 0001:0002c3d0       ??1dgBroadPhaseCollision@@AAE@XZ 1002d3d0 f   physics_2009:dgBroadPhaseCollision.obj
 0001:0002c4a0       ?Remove@dgBroadPhaseCollision@@AAEXPAVdgBody@@@Z 1002d4a0 f   physics_2009:dgBroadPhaseCollision.obj
 0001:0002c500       ?UpdateContactsBroadPhaseBegin@dgBroadPhaseCollision@@AAEXN_N@Z 1002d500 f   physics_2009:dgBroadPhaseCollision.obj
 0001:0002cc60       ?UpdateContacts@dgBroadPhaseCollision@@AAEXN_N@Z 1002dc60 f   physics_2009:dgBroadPhaseCollision.obj
 0001:0002ce90       ?Insert@?$dgTree@VdgBroadPhaseCell@@I@@QAEPAVdgTreeNode@1@ABVdgBroadPhaseCell@@IAA_N@Z 1002de90 f i physics_2009:dgBroadPhaseCollision.obj
 0001:0002cf60       ?FindCreate@dgBroadPhaseLayer@@AAEPAVdgBroadPhaseCell@@HH@Z 1002df60 f   physics_2009:dgBroadPhaseCollision.obj
 0001:0002d060       ?Add@dgBroadPhaseCollision@@AAEXPAVdgBody@@@Z 1002e060 f   physics_2009:dgBroadPhaseCollision.obj
 0001:0002d0b0       ?UpdateBodyBroadphase@dgBroadPhaseCollision@@AAEXPAVdgBody@@H@Z 1002e0b0 f   physics_2009:dgBroadPhaseCollision.obj
 0001:0002d540       ?SetWorldSize@dgBroadPhaseCollision@@QAEXABVdgVector@@0@Z 1002e540 f   physics_2009:dgBroadPhaseCollision.obj
 0001:0002d840       ?Init@dgBroadPhaseCollision@@AAEXPAVdgWorld@@@Z 1002e840 f   physics_2009:dgBroadPhaseCollision.obj
 0001:0002d8a0       ??0dgCollisionConvexHull@@QAE@PAVdgWorld@@P6AXPAX1I@Z1@Z 1002e8a0 f   physics_2009:dgCollisionConvexHull.obj
 0001:0002da30       ?CalculateSignature@dgCollisionConvexHull@@EBEHXZ 1002ea30 f   physics_2009:dgCollisionConvexHull.obj
 0001:0002da30       ?CalculateSignature@dgCollisionNull@@EBEHXZ 1002ea30 f   physics_2009:dgCollisionNull.obj
 0001:0002da40       ?GetCollisionInfo@dgCollisionConvexHull@@EBEXPAVdgCollisionInfo@@@Z 1002ea40 f   physics_2009:dgCollisionConvexHull.obj
 0001:0002da40       ?GetCollisionInfo@dgCollisionBVH@@EBEXPAVdgCollisionInfo@@@Z 1002ea40 f   physics_2009:dgCollisionBVH.obj
 0001:0002da70       ?Serialize@dgCollisionConvexHull@@EBEXP6AXPAXPBXI@Z0@Z 1002ea70 f   physics_2009:dgCollisionConvexHull.obj
 0001:0002dba0       ??_EdgCollisionConvexHull@@UAEPAXI@Z 1002eba0 f i physics_2009:dgCollisionConvexHull.obj
 0001:0002dba0       ??_GdgCollisionConvexHull@@UAEPAXI@Z 1002eba0 f i physics_2009:dgCollisionConvexHull.obj
 0001:0002dbe0       ?BruteForceSupportVertex@dgCollisionConvexHull@@ABEHHPAVdgVector@@ABV2@@Z 1002ebe0 f   physics_2009:dgCollisionConvexHull.obj
 0001:0002dd00       ?DebugCollision@dgCollisionConvexHull@@EBEXABVdgMatrix@@P6AXPAXHPBNH@Z1@Z 1002ed00 f   physics_2009:dgCollisionConvexHull.obj
 0001:0002de10       ?FaceNormal@dgCollisionConvexHull@@ABE?AVdgVector@@PBVdgEdge@@PBV2@@Z 1002ee10 f   physics_2009:dgCollisionConvexHull.obj
 0001:0002df70       ?RemoveCoplanarEdge@dgCollisionConvexHull@@ABE_NAAVdgPolyhedra@@QAVdgVector@@@Z 1002ef70 f   physics_2009:dgCollisionConvexHull.obj
 0001:0002e400       ?OOBBTest@dgCollisionConvexHull@@EBE_NABVdgMatrix@@QBVdgConvexCollision@@PAX@Z 1002f400 f   physics_2009:dgCollisionConvexHull.obj
 0001:0002e7c0       ?Create@dgCollisionConvexHull@@AAE_NHHPBNN@Z 1002f7c0 f   physics_2009:dgCollisionConvexHull.obj
 0001:0002fef0       ??0dgCollisionConvexHull@@QAE@IHHNPBNABVdgMatrix@@@Z 10030ef0 f   physics_2009:dgCollisionConvexHull.obj
 0001:00030270       ??0dgUserConstraint@@IAE@PAVdgWorld@@PAVdgBody@@1H@Z 10031270 f   physics_2009:dgUserConstraint.obj
 0001:000302d0       ??1dgUserConstraint@@MAE@XZ 100312d0 f   physics_2009:dgUserConstraint.obj
 0001:000302e0       ?GetInfo@dgUserConstraint@@MBEXPAVdgConstraintInfo@@@Z 100312e0 f   physics_2009:dgUserConstraint.obj
 0001:000302f0       ??_EdgUserConstraint@@MAEPAXI@Z 100312f0 f i physics_2009:dgUserConstraint.obj
 0001:000302f0       ??_GdgUserConstraint@@MAEPAXI@Z 100312f0 f i physics_2009:dgUserConstraint.obj
 0001:00030320       ?GetStiffness@dgConstraint@@UBENXZ 10031320 f i physics_2009:dgBilateralConstraint.obj
 0001:00030330       ??1dgBilateralConstraint@@MAE@XZ 10031330 f   physics_2009:dgBilateralConstraint.obj
 0001:00030360       ?IsBilateral@dgBilateralConstraint@@MBE_NXZ 10031360 f   physics_2009:dgBilateralConstraint.obj
 0001:00030370       ?GetStiffness@dgBilateralConstraint@@MBENXZ 10031370 f   physics_2009:dgBilateralConstraint.obj
 0001:00030390       ?SetDestructorCallback@dgBilateralConstraint@@UAEXP6AXAAVdgConstraint@@@Z@Z 10031390 f   physics_2009:dgBilateralConstraint.obj
 0001:000303a0       ?SetMotorAcceleration@dgBilateralConstraint@@IAEXHNAAVdgContraintDescritor@@@Z 100313a0 f   physics_2009:dgBilateralConstraint.obj
 0001:000303e0       ??_GdgConstraint@@MAEPAXI@Z 100313e0 f i physics_2009:dgBilateralConstraint.obj
 0001:000303e0       ??_EdgConstraint@@MAEPAXI@Z 100313e0 f i physics_2009:dgBilateralConstraint.obj
 0001:00030400       ??_GdgBilateralConstraint@@MAEPAXI@Z 10031400 f i physics_2009:dgBilateralConstraint.obj
 0001:00030400       ??_EdgBilateralConstraint@@MAEPAXI@Z 10031400 f i physics_2009:dgBilateralConstraint.obj
 0001:00030440       ?SetStiffness@dgBilateralConstraint@@MAEXN@Z 10031440 f   physics_2009:dgBilateralConstraint.obj
 0001:00030480       ?SetJacobianDerivative@dgBilateralConstraint@@IAEXHAAVdgContraintDescritor@@PBN1PAN@Z 10031480 f   physics_2009:dgBilateralConstraint.obj
 0001:00030540       ?CalculatePointDerivative@dgBilateralConstraint@@IAEXHAAVdgContraintDescritor@@ABVdgVector@@ABVdgPointParam@dgConstraint@@PAN@Z 10031540 f   physics_2009:dgBilateralConstraint.obj
 0001:00030760       ??0dgBilateralConstraint@@IAE@XZ 10031760 f   physics_2009:dgBilateralConstraint.obj
 0001:00030810       ?CalculateMatrixOffset@dgBilateralConstraint@@IAEXABVdgVector@@0AAVdgMatrix@@1@Z 10031810 f   physics_2009:dgBilateralConstraint.obj
 0001:00030c80       ?SetPivotAndPinDir@dgBilateralConstraint@@IAEXABVdgVector@@0@Z 10031c80 f   physics_2009:dgBilateralConstraint.obj
 0001:00030ca0       ?SetPivotAndPinDir@dgBilateralConstraint@@IAEXABVdgVector@@00@Z 10031ca0 f   physics_2009:dgBilateralConstraint.obj
 0001:000310c0       ?CalculateGlobalMatrixAndAngle@dgBilateralConstraint@@IBE?AVdgVector@@AAVdgMatrix@@0@Z 100320c0 f   physics_2009:dgBilateralConstraint.obj
 0001:00031280       ?CalculateSpringDamperAcceleration@dgBilateralConstraint@@IAENHABVdgContraintDescritor@@NABVdgVector@@1NN@Z 10032280 f   physics_2009:dgBilateralConstraint.obj
 0001:00031410       ?CalculateAngularDerivative@dgBilateralConstraint@@IAEXHAAVdgContraintDescritor@@ABVdgVector@@NNPAN@Z 10032410 f   physics_2009:dgBilateralConstraint.obj
 0001:00031560       ?JointAccelerations@dgBilateralConstraint@@MAEXABVdgJointAccelerationDecriptor@@@Z 10032560 f   physics_2009:dgBilateralConstraint.obj
 0001:000316d0       ??1dgCollisionSphere@@UAE@XZ 100326d0 f   physics_2009:dgCollisionSphere.obj
 0001:000316f0       ?CalculateSignature@dgCollisionSphere@@MBEHXZ 100326f0 f   physics_2009:dgCollisionSphere.obj
 0001:00031760       ?CalculatePlaneIntersectionSimd@dgCollisionSphere@@MBEHABVdgVector@@0QAV2@@Z 10032760 f   physics_2009:dgCollisionSphere.obj
 0001:00031760       ?CalculatePlaneIntersectionSimd@dgCollisionConvexPolygon@dgCollisionMesh@@UBEHABVdgVector@@0QAV3@@Z 10032760 f   physics_2009:dgCollisionMesh.obj
 0001:00031760       ?CalculatePlaneIntersectionSimd@dgConvexCollision@@UBEHABVdgVector@@0QAV2@@Z 10032760 f   physics_2009:dgConvexCollision.obj
 0001:00031760       ?CalculatePlaneIntersectionSimd@dgCollisionCylinder@@EBEHABVdgVector@@0QAV2@@Z 10032760 f   physics_2009:dgCollisionCylinder.obj
 0001:00031760       ?CalculatePlaneIntersectionSimd@dgCollisionCone@@EBEHABVdgVector@@0QAV2@@Z 10032760 f   physics_2009:dgCollisionCone.obj
 0001:00031760       ?CalculatePlaneIntersectionSimd@dgCollisionEllipse@@EBEHABVdgVector@@0QAV2@@Z 10032760 f   physics_2009:dgCollisionEllipse.obj
 0001:00031760       ?CalculatePlaneIntersectionSimd@dgCollisionCapsule@@EBEHABVdgVector@@0QAV2@@Z 10032760 f   physics_2009:dgCollisionCapsule.obj
 0001:00031760       ?CalculatePlaneIntersectionSimd@dgCollisionBox@@MBEHABVdgVector@@0QAV2@@Z 10032760 f   physics_2009:dgCollisionBox.obj
 0001:00031770       ?RayCastSimd@dgCollisionUserMesh@@EBENABVdgVector@@0AAVdgContactPoint@@P6AIPBVdgBody@@PBVdgCollision@@PAX@Z24@Z 10032770 f   physics_2009:dgCollisionUserMesh.obj
 0001:00031770       ?RayCastSimd@dgCollisionBox@@MBENABVdgVector@@0AAVdgContactPoint@@P6AIPBVdgBody@@PBVdgCollision@@PAX@Z24@Z 10032770 f   physics_2009:dgCollisionBox.obj
 0001:00031770       ?RayCastSimd@dgConvexCollision@@UBENABVdgVector@@0AAVdgContactPoint@@P6AIPBVdgBody@@PBVdgCollision@@PAX@Z24@Z 10032770 f   physics_2009:dgConvexCollision.obj
 0001:00031770       ?RayCastSimd@dgCollisionSphere@@MBENABVdgVector@@0AAVdgContactPoint@@P6AIPBVdgBody@@PBVdgCollision@@PAX@Z24@Z 10032770 f   physics_2009:dgCollisionSphere.obj
 0001:00031770       ?RayCastSimd@dgCollisionCapsule@@EBENABVdgVector@@0AAVdgContactPoint@@P6AIPBVdgBody@@PBVdgCollision@@PAX@Z24@Z 10032770 f   physics_2009:dgCollisionCapsule.obj
 0001:00031770       ?RayCastSimd@dgCollisionCylinder@@EBENABVdgVector@@0AAVdgContactPoint@@P6AIPBVdgBody@@PBVdgCollision@@PAX@Z24@Z 10032770 f   physics_2009:dgCollisionCylinder.obj
 0001:00031780       ?GetCollisionInfo@dgCollisionSphere@@MBEXPAVdgCollisionInfo@@@Z 10032780 f   physics_2009:dgCollisionSphere.obj
 0001:000317e0       ??_GdgCollisionSphere@@UAEPAXI@Z 100327e0 f i physics_2009:dgCollisionSphere.obj
 0001:000317e0       ??_EdgCollisionSphere@@UAEPAXI@Z 100327e0 f i physics_2009:dgCollisionSphere.obj
 0001:00031820       ?SupportVertexSimd@dgCollisionSphere@@MBE?AVdgVector@@ABV2@@Z 10032820 f   physics_2009:dgCollisionSphere.obj
 0001:00031820       ?SupportVertex@dgCollisionSphere@@MBE?AVdgVector@@ABV2@@Z 10032820 f   physics_2009:dgCollisionSphere.obj
 0001:00031860       ?CalcAABB@dgCollisionSphere@@MBEXABVdgMatrix@@AAVdgVector@@1@Z 10032860 f   physics_2009:dgCollisionSphere.obj
 0001:000318b0       ?CalculatePlaneIntersection@dgCollisionSphere@@MBEHABVdgVector@@0QAV2@@Z 100328b0 f   physics_2009:dgCollisionSphere.obj
 0001:00031900       ?TesselateTriangle@dgCollisionSphere@@IBEXHABVdgVector@@00AAHPAV2@@Z 10032900 f   physics_2009:dgCollisionSphere.obj
 0001:00031b60       ?DebugCollision@dgCollisionSphere@@MBEXABVdgMatrix@@P6AXPAXHPBNH@Z1@Z 10032b60 f   physics_2009:dgCollisionSphere.obj
 0001:00031e00       ?RayCast@dgCollisionSphere@@MBENABVdgVector@@0AAVdgContactPoint@@P6AIPBVdgBody@@PBVdgCollision@@PAX@Z24@Z 10032e00 f   physics_2009:dgCollisionSphere.obj
 0001:00031fe0       ?CalculateMassProperties@dgCollisionSphere@@MBENAAVdgVector@@00@Z 10032fe0 f   physics_2009:dgCollisionSphere.obj
 0001:000320b0       ?Serialize@dgCollisionSphere@@MBEXP6AXPAXPBXI@Z0@Z 100330b0 f   physics_2009:dgCollisionSphere.obj
 0001:00032110       ?Init@dgCollisionSphere@@IAEXN@Z 10033110 f   physics_2009:dgCollisionSphere.obj
 0001:00032520       ??0dgCollisionSphere@@QAE@INABVdgMatrix@@@Z 10033520 f   physics_2009:dgCollisionSphere.obj
 0001:00032560       ??0dgCollisionSphere@@QAE@PAVdgWorld@@P6AXPAX1I@Z1@Z 10033560 f   physics_2009:dgCollisionSphere.obj
 0001:000325b0       ?MassProperties@dgConvexMassData@@QAENAAVdgVector@@00@Z 100335b0 f i physics_2009:dgConvexCollision.obj
 0001:00032680       ??1dgConvexCollision@@MAE@XZ 10033680 f   physics_2009:dgConvexCollision.obj
 0001:000326c0       ?SerializeLow@dgConvexCollision@@MBEXP6AXPAXPBXI@Z0@Z 100336c0 f   physics_2009:dgConvexCollision.obj
 0001:00032700       ?GetUserData@dgConvexCollision@@MBEPAXXZ 10033700 f   physics_2009:dgConvexCollision.obj
 0001:00032710       ?SetUserData@dgConvexCollision@@MAEXPAX@Z 10033710 f   physics_2009:dgConvexCollision.obj
 0001:00032720       ?DebugCollision@dgCollisionUserMesh@@EBEXABVdgMatrix@@P6AXPAXHPBNH@Z1@Z 10033720 f   physics_2009:dgCollisionUserMesh.obj
 0001:00032720       ?CalcAABBSimD@dgCollisionConvexModifier@@MBEXABVdgMatrix@@AAVdgVector@@1@Z 10033720 f   physics_2009:dgCollisionConvexModifier.obj
 0001:00032720       ?ForAllSectorsRayHitSimd@dgPolygonSoupDatabase@@MBEXABVFastRayTest@@P6ANPAXQBNHQBHH@ZQAX@Z 10033720 f   corelib_2009:dgAABBPolygonSoup.obj
 0001:00032720       ?CalcAABBSimD@dgCollisionBox@@MBEXABVdgMatrix@@AAVdgVector@@1@Z 10033720 f   physics_2009:dgCollisionBox.obj
 0001:00032720       ?DebugCollision@dgCollisionMesh@@EBEXABVdgMatrix@@P6AXPAXHPBNH@Z1@Z 10033720 f   physics_2009:dgCollisionMesh.obj
 0001:00032720       ?ForAllSectorsRayHit@dgPolygonSoupDatabase@@MBEXABVFastRayTest@@P6ANPAXQBNHQBHH@ZQAX@Z 10033720 f   corelib_2009:dgAABBPolygonSoup.obj
 0001:00032720       ?UpdateCollisionMatrixSimD@dgBody@@AAEXNH@Z 10033720 f   physics_2009:dgBody.obj
 0001:00032720       ?DebugCollision@dgCollisionNull@@MBEXABVdgMatrix@@P6AXPAXHPBNH@Z1@Z 10033720 f   physics_2009:dgCollisionNull.obj
 0001:00032720       ?CalcAABBSimD@dgCompoundCollision@@MBEXABVdgMatrix@@AAVdgVector@@1@Z 10033720 f   physics_2009:dgCompoundCollision.obj
 0001:00032720       ?SpliteAcrossPlane@dgConvexCollision@@IBEXABVdgPlane@@PAPAVdgCollisionConvexHull@@1@Z 10033720 f   physics_2009:dgConvexCollision.obj
 0001:00032720       ?CalcAABBSimD@dgConvexCollision@@UBEXABVdgMatrix@@AAVdgVector@@1@Z 10033720 f   physics_2009:dgConvexCollision.obj
 0001:00032720       ?ForAllSectorsRayHitSimd@dgAABBPolygonSoup@@MBEXABVFastRayTest@@P6ANPAXQBNHQBHH@ZQAX@Z 10033720 f   corelib_2009:dgAABBPolygonSoup.obj
 0001:00032730       ?GetVolume@dgConvexCollision@@EBENXZ 10033730 f   physics_2009:dgConvexCollision.obj
 0001:00032740       ?GetBoxMinRadius@dgConvexCollision@@EBENXZ 10033740 f   physics_2009:dgConvexCollision.obj
 0001:00032750       ?GetBoxMaxRadius@dgConvexCollision@@EBENXZ 10033750 f   physics_2009:dgConvexCollision.obj
 0001:00032760       ?IsTriggerVolume@dgConvexCollision@@UBE_NXZ 10033760 f   physics_2009:dgConvexCollision.obj
 0001:00032770       ?SetAsTriggerVolume@dgConvexCollision@@MAEX_N@Z 10033770 f   physics_2009:dgConvexCollision.obj
 0001:00032790       ??0dgConvexCollision@@IAE@IABVdgMatrix@@W4dgCollisionID@@@Z 10033790 f   physics_2009:dgConvexCollision.obj
 0001:000328a0       ??_GdgConvexCollision@@MAEPAXI@Z 100338a0 f i physics_2009:dgConvexCollision.obj
 0001:000328a0       ??_EdgConvexCollision@@MAEPAXI@Z 100338a0 f i physics_2009:dgConvexCollision.obj
 0001:000328f0       ??0dgConvexCollision@@IAE@PAVdgWorld@@P6AXPAX1I@Z1@Z 100338f0 f   physics_2009:dgConvexCollision.obj
 0001:000329d0       ?GetDiscretedAngleStep@dgConvexCollision@@IBENN@Z 100339d0 f   physics_2009:dgConvexCollision.obj
 0001:00032a20       ?DebugCollision@dgConvexCollision@@MBEXABVdgMatrix@@P6AXPAXHPBNH@Z1@Z 10033a20 f   physics_2009:dgConvexCollision.obj
 0001:00032b50       ?GetSupportEdge@dgConvexCollision@@IBEPAVdgConvexSimplexEdge@@ABVdgVector@@@Z 10033b50 f   physics_2009:dgConvexCollision.obj
 0001:00032bd0       ?CalculateInertia@dgConvexCollision@@EBEXAAVdgVector@@0@Z 10033bd0 f   physics_2009:dgConvexCollision.obj
 0001:00032cb0       ?RayCastClosestFace@dgConvexCollision@@ABEHPAVdgVector@@ABV2@AAN@Z 10033cb0 f   physics_2009:dgConvexCollision.obj
 0001:000331c0       ?RayHitBox@dgConvexCollision@@ABE_NABVdgVector@@0@Z 100341c0 f   physics_2009:dgConvexCollision.obj
 0001:00033320       ?SupportVertex@dgConvexCollision@@UBE?AVdgVector@@ABV2@@Z 10034320 f   physics_2009:dgConvexCollision.obj
 0001:000334f0       ?RayCast@dgConvexCollision@@UBENABVdgVector@@0AAVdgContactPoint@@P6AIPBVdgBody@@PBVdgCollision@@PAX@Z24@Z 100344f0 f   physics_2009:dgConvexCollision.obj
 0001:000342c0       ?OOBBTest@dgConvexCollision@@UBE_NABVdgMatrix@@QBV1@PAX@Z 100352c0 f   physics_2009:dgConvexCollision.obj
 0001:00034470       ?AddCg@dgConvexMassData@@QAEXHPBVdgVector@@@Z 10035470 f i physics_2009:dgConvexCollision.obj
 0001:000345b0       ?AddInertia@dgConvexMassData@@QAEXHPBN@Z 100355b0 f i physics_2009:dgConvexCollision.obj
 0001:00034880       ?SetVolumeAndCG@dgConvexCollision@@IAEXXZ 10035880 f   physics_2009:dgConvexCollision.obj
 0001:00034c30       ?CalcAABB@dgConvexCollision@@UBEXABVdgMatrix@@AAVdgVector@@1@Z 10035c30 f   physics_2009:dgConvexCollision.obj
 0001:00034e20       ?CalculateInertia@dgConvexCollision@@CAXPAXHPBNH@Z 10035e20 f   physics_2009:dgConvexCollision.obj
 0001:00034e40       ?CalculateMassProperties@dgConvexCollision@@MBENAAVdgVector@@00@Z 10035e40 f   physics_2009:dgConvexCollision.obj
 0001:00034ea0       ?CalculateVolumeIntegral@dgConvexCollision@@IBE?AVdgVector@@ABVdgPlane@@@Z 10035ea0 f   physics_2009:dgConvexCollision.obj
 0001:000353c0       ?SimplifyClipPolygon@dgConvexCollision@@ABEHHABVdgVector@@PAV2@@Z 100363c0 f   physics_2009:dgConvexCollision.obj
 0001:000355a0       ?RectifyConvexSlice@dgConvexCollision@@IBEHHABVdgVector@@QAV2@@Z 100365a0 f   physics_2009:dgConvexCollision.obj
 0001:00035910       ?CalculatePlaneIntersection@dgConvexCollision@@UBEHABVdgVector@@0QAV2@@Z 10036910 f   physics_2009:dgConvexCollision.obj
 0001:00035da0       ?CalculateVolumeIntegral@dgConvexCollision@@EBE?AVdgVector@@ABVdgMatrix@@P6AIPAX10AAVdgPlane@@@Z1@Z 10036da0 f   physics_2009:dgConvexCollision.obj
 0001:00035f00       ?FindConstraintLink@dgBodyMasterList@@QBEPAVdgListNode@?$dgList@VdgBodyMasterListCell@@@@PBVdgBody@@0@Z 10036f00 f   physics_2009:dgBodyMasterList.obj
 0001:00035f30       ?FindConstraintLinkNext@dgBodyMasterList@@QBEPAVdgListNode@?$dgList@VdgBodyMasterListCell@@@@PBV23@PBVdgBody@@@Z 10036f30 f   physics_2009:dgBodyMasterList.obj
 0001:00035f60       ?Addtop@?$dgList@VdgBodyMasterListCell@@@@QAEPAVdgListNode@1@XZ 10036f60 f i physics_2009:dgBodyMasterList.obj
 0001:00035fd0       ?RemoveAll@?$dgList@VdgBodyMasterListCell@@@@QAEXXZ 10036fd0 f i physics_2009:dgBodyMasterList.obj
 0001:00036030       ?SortList@dgBodyMasterListRow@@QAEXXZ 10037030 f   physics_2009:dgBodyMasterList.obj
 0001:00036120       ?AttachConstraint@dgBodyMasterList@@QAEXPAVdgConstraint@@PAVdgBody@@1@Z 10037120 f   physics_2009:dgBodyMasterList.obj
 0001:000361e0       ?SortMasterList@dgBodyMasterList@@QAEXXZ 100371e0 f   physics_2009:dgBodyMasterList.obj
 0001:00036370       ?Remove@?$dgList@VdgBodyMasterListCell@@@@QAEXPAVdgListNode@1@@Z 10037370 f i physics_2009:dgBodyMasterList.obj
 0001:000363c0       ?RemoveConstraint@dgBodyMasterList@@QAEXPAVdgConstraint@@@Z 100373c0 f   physics_2009:dgBodyMasterList.obj
 0001:00036460       ?Append@?$dgList@VdgBodyMasterListRow@@@@QAEPAVdgListNode@1@XZ 10037460 f i physics_2009:dgBodyMasterList.obj
 0001:000364e0       ?RemoveAll@?$dgList@VdgBodyMasterListRow@@@@QAEXXZ 100374e0 f i physics_2009:dgBodyMasterList.obj
 0001:00036540       ?AddBody@dgBodyMasterList@@QAEXPAVdgBody@@@Z 10037540 f   physics_2009:dgBodyMasterList.obj
 0001:00036570       ?Remove@?$dgList@VdgBodyMasterListRow@@@@QAEXPAVdgListNode@1@@Z 10037570 f i physics_2009:dgBodyMasterList.obj
 0001:000365d0       ??0dgBodyMasterList@@QAE@XZ 100375d0 f   physics_2009:dgBodyMasterList.obj
 0001:000365e0       ??1dgBodyMasterList@@QAE@XZ 100375e0 f   physics_2009:dgBodyMasterList.obj
 0001:000365f0       ?RemoveBody@dgBodyMasterList@@QAEXPAVdgBody@@@Z 100375f0 f   physics_2009:dgBodyMasterList.obj
 0001:00036640       ??0dgCollisionNull@@QAE@I@Z 10037640 f   physics_2009:dgCollisionNull.obj
 0001:00036670       ??0dgCollisionNull@@QAE@PAVdgWorld@@P6AXPAX1I@Z1@Z 10037670 f   physics_2009:dgCollisionNull.obj
 0001:000366a0       ?Serialize@dgCollisionNull@@EBEXP6AXPAXPBXI@Z0@Z 100376a0 f   physics_2009:dgCollisionNull.obj
 0001:000366b0       ?CalcAABBSimD@dgCollisionNull@@MBEXABVdgMatrix@@AAVdgVector@@1@Z 100376b0 f   physics_2009:dgCollisionNull.obj
 0001:000366b0       ?CalcAABBSimD@dgCollisionScene@@EBEXABVdgMatrix@@AAVdgVector@@1@Z 100376b0 f   physics_2009:dgCollisionScene.obj
 0001:000366b0       ?CalcAABBSimD@dgCollisionMesh@@EBEXABVdgMatrix@@AAVdgVector@@1@Z 100376b0 f   physics_2009:dgCollisionMesh.obj
 0001:000366c0       ?RayCastSimd@dgCollisionNull@@MBENABVdgVector@@0AAVdgContactPoint@@P6AIPBVdgBody@@PBVdgCollision@@PAX@Z24@Z 100376c0 f   physics_2009:dgCollisionNull.obj
 0001:000366c0       ?RayCast@dgCollisionNull@@MBENABVdgVector@@0AAVdgContactPoint@@P6AIPBVdgBody@@PBVdgCollision@@PAX@Z24@Z 100376c0 f   physics_2009:dgCollisionNull.obj
 0001:000366d0       ?CalculateInertia@dgCollisionMesh@@UBEXAAVdgVector@@0@Z 100376d0 f   physics_2009:dgCollisionMesh.obj
 0001:000366d0       ?CalculateInertia@dgCollisionScene@@EBEXAAVdgVector@@0@Z 100376d0 f   physics_2009:dgCollisionScene.obj
 0001:000366d0       ?CalculateInertia@dgCollisionConvexPolygon@dgCollisionMesh@@UBEXAAVdgVector@@0@Z 100376d0 f   physics_2009:dgCollisionMesh.obj
 0001:000366d0       ?CalculateInertia@dgCollisionPoint@@UBEXAAVdgVector@@0@Z 100376d0 f   physics_2009:dgCollisionSphere.obj
 0001:000366d0       ?CalculateInertia@dgCollisionNull@@MBEXAAVdgVector@@0@Z 100376d0 f   physics_2009:dgCollisionNull.obj
 0001:000366f0       ??_EdgCollisionNull@@UAEPAXI@Z 100376f0 f i physics_2009:dgCollisionNull.obj
 0001:000366f0       ??_GdgCollisionNull@@UAEPAXI@Z 100376f0 f i physics_2009:dgCollisionNull.obj
 0001:00036720       ?CalcAABB@dgCollisionNull@@MBEXABVdgMatrix@@AAVdgVector@@1@Z 10037720 f   physics_2009:dgCollisionNull.obj
 0001:00036760       ??0dgCollidingPairCollector@@QAE@XZ 10037760 f   physics_2009:dgContact.obj
 0001:00036780       ?Init@dgCollidingPairCollector@@QAEXPAVdgWorld@@@Z 10037780 f   physics_2009:dgContact.obj
 0001:000367b0       ?SetCaches@dgCollidingPairCollector@@QAEXQAUdgThreadPairCache@1@@Z 100377b0 f   physics_2009:dgContact.obj
 0001:00036830       ?FlushChache@dgCollidingPairCollector@@QAEXQAUdgThreadPairCache@1@@Z 10037830 f   physics_2009:dgContact.obj
 0001:00036910       ?GetInfo@dgContact@@EBEXPAVdgConstraintInfo@@@Z 10037910 f   physics_2009:dgContact.obj
 0001:00036960       ?CalculatePointDerivative@dgContact@@ABEXHAAVdgContraintDescritor@@ABVdgVector@@ABVdgPointParam@dgConstraint@@@Z 10037960 f   physics_2009:dgContact.obj
 0001:00036a20       ?JointAccelerations@dgContact@@EAEXABVdgJointAccelerationDecriptor@@@Z 10037a20 f   physics_2009:dgContact.obj
 0001:00036bc0       ?AddPair@dgCollidingPairCollector@@QAEXPAVdgBody@@0H@Z 10037bc0 f   physics_2009:dgContact.obj
 0001:00036e70       ?RemoveAll@?$dgList@VdgContactMaterial@@@@QAEXXZ 10037e70 f i physics_2009:dgContact.obj
 0001:00036ee0       ??0dgContactMaterial@@QAE@XZ 10037ee0 f   physics_2009:dgContact.obj
 0001:00036f50       ?JacobianContactDerivative@dgContact@@AAEXAAVdgContraintDescritor@@ABVdgContactMaterial@@HAAH@Z 10037f50 f   physics_2009:dgContact.obj
 0001:00037320       ??0dgContact@@AAE@PAVdgWorld@@@Z 10038320 f   physics_2009:dgContact.obj
 0001:000373e0       ?Remove@?$dgList@PAVdgContact@@@@QAEXPAVdgListNode@1@@Z 100383e0 f i physics_2009:dgContact.obj
 0001:00037430       ?JacobianDerivative@dgContact@@EAEIAAVdgContraintDescritor@@@Z 10038430 f   physics_2009:dgContact.obj
 0001:00037480       ??_EdgContact@@EAEPAXI@Z   10038480 f i physics_2009:dgContact.obj
 0001:00037480       ??_GdgContact@@EAEPAXI@Z   10038480 f i physics_2009:dgContact.obj
 0001:000374e0       ??0dgCollisionConvexModifier@@QAE@PAVdgConvexCollision@@PAVdgWorld@@@Z 100384e0 f   physics_2009:dgCollisionConvexModifier.obj
 0001:00037580       ?ModifierGetMatrix@dgCollisionConvexModifier@@UBE?AVdgMatrix@@XZ 10038580 f   physics_2009:dgCollisionConvexModifier.obj
 0001:000375a0       ?GetBoxMinRadius@dgCollisionConvexModifier@@EBENXZ 100385a0 f   physics_2009:dgCollisionConvexModifier.obj
 0001:000375b0       ?GetBoxMaxRadius@dgCollisionConvexModifier@@EBENXZ 100385b0 f   physics_2009:dgCollisionConvexModifier.obj
 0001:000375c0       ?CalculatePlaneIntersectionSimd@dgCollisionConvexModifier@@EBEHABVdgVector@@0QAV2@@Z 100385c0 f   physics_2009:dgCollisionConvexModifier.obj
 0001:000375d0       ?DebugCollision@dgCollisionConvexModifier@@MBEXABVdgMatrix@@P6AXPAXHPBNH@Z1@Z 100385d0 f   physics_2009:dgCollisionConvexModifier.obj
 0001:00037640       ?GetVolume@dgCollisionConvexModifier@@MBENXZ 10038640 f   physics_2009:dgCollisionConvexModifier.obj
 0001:00037660       ?GetCollisionInfo@dgCollisionConvexModifier@@EBEXPAVdgCollisionInfo@@@Z 10038660 f   physics_2009:dgCollisionConvexModifier.obj
 0001:000376a0       ?Serialize@dgCollisionConvexModifier@@EBEXP6AXPAXPBXI@Z0@Z 100386a0 f   physics_2009:dgCollisionConvexModifier.obj
 0001:000376f0       ??_EdgCollisionConvexModifier@@UAEPAXI@Z 100386f0 f i physics_2009:dgCollisionConvexModifier.obj
 0001:000376f0       ??_GdgCollisionConvexModifier@@UAEPAXI@Z 100386f0 f i physics_2009:dgCollisionConvexModifier.obj
 0001:00037740       ?ModifierSetMatrix@dgCollisionConvexModifier@@UAEXABVdgMatrix@@@Z 10038740 f   physics_2009:dgCollisionConvexModifier.obj
 0001:000379b0       ??0dgCollisionConvexModifier@@QAE@PAVdgWorld@@P6AXPAX1I@Z1@Z 100389b0 f   physics_2009:dgCollisionConvexModifier.obj
 0001:00037a50       ?CalcAABB@dgCollisionConvexModifier@@MBEXABVdgMatrix@@AAVdgVector@@1@Z 10038a50 f   physics_2009:dgCollisionConvexModifier.obj
 0001:00037ce0       ?SupportVertex@dgCollisionConvexModifier@@MBE?AVdgVector@@ABV2@@Z 10038ce0 f   physics_2009:dgCollisionConvexModifier.obj
 0001:00037e50       ?SupportVertex@dgCollisionNull@@MBE?AVdgVector@@ABV2@@Z 10038e50 f   physics_2009:dgCollisionNull.obj
 0001:00037e50       ?SupportVertexSimd@dgConvexCollision@@UBE?AVdgVector@@ABV2@@Z 10038e50 f   physics_2009:dgConvexCollision.obj
 0001:00037e50       ?SupportVertex@dgCollisionPoint@@UBE?AVdgVector@@ABV2@@Z 10038e50 f   physics_2009:dgCollisionSphere.obj
 0001:00037e50       ?SupportVertexSimd@dgCollisionConvexModifier@@MBE?AVdgVector@@ABV2@@Z 10038e50 f   physics_2009:dgCollisionConvexModifier.obj
 0001:00037e50       ?SupportVertexSimd@dgCollisionEllipse@@MBE?AVdgVector@@ABV2@@Z 10038e50 f   physics_2009:dgCollisionEllipse.obj
 0001:00037e50       ?SupportVertexSimd@dgCollisionPoint@@UBE?AVdgVector@@ABV2@@Z 10038e50 f   physics_2009:dgCollisionSphere.obj
 0001:00037e50       ?SupportVertexSimd@dgCollisionConvexPolygon@dgCollisionMesh@@UBE?AVdgVector@@ABV3@@Z 10038e50 f   physics_2009:dgCollisionMesh.obj
 0001:00037e50       ?SupportVertexSimd@dgCollisionNull@@MBE?AVdgVector@@ABV2@@Z 10038e50 f   physics_2009:dgCollisionNull.obj
 0001:00037e50       ?SupportVertexSimd@dgCollisionBox@@MBE?AVdgVector@@ABV2@@Z 10038e50 f   physics_2009:dgCollisionBox.obj
 0001:00037e50       ?SupportVertexSimd@dgCollisionCapsule@@EBE?AVdgVector@@ABV2@@Z 10038e50 f   physics_2009:dgCollisionCapsule.obj
 0001:00037e50       ?SupportVertex@dgCollisionScene@@EBE?AVdgVector@@ABV2@@Z 10038e50 f   physics_2009:dgCollisionScene.obj
 0001:00037e50       ?SupportVertex@dgCollisionMesh@@EBE?AVdgVector@@ABV2@@Z 10038e50 f   physics_2009:dgCollisionMesh.obj
 0001:00037e70       ?CalculatePlaneIntersection@dgCollisionConvexModifier@@EBEHABVdgVector@@0QAV2@@Z 10038e70 f   physics_2009:dgCollisionConvexModifier.obj
 0001:000382d0       ?RayCast@dgCollisionConvexModifier@@MBENABVdgVector@@0AAVdgContactPoint@@P6AIPBVdgBody@@PBVdgCollision@@PAX@Z24@Z 100392d0 f   physics_2009:dgCollisionConvexModifier.obj
 0001:00038520       ?RayCastSimd@dgCollisionConvexModifier@@MBENABVdgVector@@0AAVdgContactPoint@@P6AIPBVdgBody@@PBVdgCollision@@PAX@Z24@Z 10039520 f   physics_2009:dgCollisionConvexModifier.obj
 0001:00038600       ?CalculateVolumeIntegral@dgCollisionConvexModifier@@MBE?AVdgVector@@ABVdgMatrix@@P6AIPAX10AAVdgPlane@@@Z1@Z 10039600 f   physics_2009:dgCollisionConvexModifier.obj
 0001:000389b0       ??1dgCompoundCollision@@UAE@XZ 100399b0 f   physics_2009:dgCompoundCollision.obj
 0001:00038a00       ?Serialize@dgCollisionMesh@@EBEXP6AXPAXPBXI@Z0@Z 10039a00 f   physics_2009:dgCollisionMesh.obj
 0001:00038a00       ?SetCollisionBBox@dgCollisionCone@@EAEXABVdgVector@@0@Z 10039a00 f   physics_2009:dgCollisionCone.obj
 0001:00038a00       ?SetCollisionBBox@dgCompoundCollision@@EAEXABVdgVector@@0@Z 10039a00 f   physics_2009:dgCompoundCollision.obj
 0001:00038a00       ?Serialize@dgCollisionConvexPolygon@dgCollisionMesh@@UBEXP6AXPAXPBXI@Z0@Z 10039a00 f   physics_2009:dgCollisionMesh.obj
 0001:00038a00       ?SetCollisionBBox@dgCollisionSphere@@MAEXABVdgVector@@0@Z 10039a00 f   physics_2009:dgCollisionSphere.obj
 0001:00038a00       ?SetCollisionBBox@dgCollisionCylinder@@EAEXABVdgVector@@0@Z 10039a00 f   physics_2009:dgCollisionCylinder.obj
 0001:00038a00       ?SetCollisionBBox@dgCollisionConvexHull@@EAEXABVdgVector@@0@Z 10039a00 f   physics_2009:dgCollisionConvexHull.obj
 0001:00038a00       ?SetStiffness@dgConstraint@@UAEXN@Z 10039a00 f   physics_2009:dgBilateralConstraint.obj
 0001:00038a00       ?Serialize@dgCollisionUserMesh@@EBEXP6AXPAXPBXI@Z0@Z 10039a00 f   physics_2009:dgCollisionUserMesh.obj
 0001:00038a00       ?SetCollisionBBox@dgCollisionConvexModifier@@EAEXABVdgVector@@0@Z 10039a00 f   physics_2009:dgCollisionConvexModifier.obj
 0001:00038a00       ?SetCollisionBBox@dgCollisionCapsule@@EAEXABVdgVector@@0@Z 10039a00 f   physics_2009:dgCollisionCapsule.obj
 0001:00038a00       ?SetCollisionBBox@dgCollisionEllipse@@EAEXABVdgVector@@0@Z 10039a00 f   physics_2009:dgCollisionEllipse.obj
 0001:00038a00       ?GetAABB@dgPolygonSoupDatabase@@UBEXAAVdgVector@@0@Z 10039a00 f   corelib_2009:dgAABBPolygonSoup.obj
 0001:00038a00       ?SetCollisionBBox@dgCollisionConvexPolygon@dgCollisionMesh@@UAEXABVdgVector@@0@Z 10039a00 f   physics_2009:dgCollisionMesh.obj
 0001:00038a00       ?SetCollisionBBox@dgCollisionBox@@MAEXABVdgVector@@0@Z 10039a00 f   physics_2009:dgCollisionBox.obj
 0001:00038a00       ?SetCollisionBBox@dgCollisionChamferCylinder@@MAEXABVdgVector@@0@Z 10039a00 f   physics_2009:dgCollisionChamferCylinder.obj
 0001:00038a00       ?SetCollisionBBox@dgCollisionNull@@EAEXABVdgVector@@0@Z 10039a00 f   physics_2009:dgCollisionNull.obj
 0001:00038a10       ?DebugCollision@dgCompoundCollision@@MBEXABVdgMatrix@@P6AXPAXHPBNH@Z1@Z 10039a10 f   physics_2009:dgCompoundCollision.obj
 0001:00038a60       ?GetVolume@dgCompoundCollision@@MBENXZ 10039a60 f   physics_2009:dgCompoundCollision.obj
 0001:00038ab0       ?GetBoxMinRadius@dgCompoundCollision@@MBENXZ 10039ab0 f   physics_2009:dgCompoundCollision.obj
 0001:00038ac0       ?GetBoxMaxRadius@dgCompoundCollision@@MBENXZ 10039ac0 f   physics_2009:dgCompoundCollision.obj
 0001:00038ad0       ?GetCollisionInfo@dgCompoundCollision@@EBEXPAVdgCollisionInfo@@@Z 10039ad0 f   physics_2009:dgCompoundCollision.obj
 0001:00038b20       ?Serialize@dgCompoundCollision@@EBEXP6AXPAXPBXI@Z0@Z 10039b20 f   physics_2009:dgCompoundCollision.obj
 0001:00038ba0       ?OOBBTest@dgCollisionMesh@@EBE_NABVdgMatrix@@QBVdgConvexCollision@@PAX@Z 10039ba0 f   physics_2009:dgCollisionMesh.obj
 0001:00038ba0       ?OOBBTest@dgCollisionConvexPolygon@dgCollisionMesh@@UBE_NABVdgMatrix@@QBVdgConvexCollision@@PAX@Z 10039ba0 f   physics_2009:dgCollisionMesh.obj
 0001:00038ba0       ?OOBBTest@dgCollisionScene@@EBE_NABVdgMatrix@@QBVdgConvexCollision@@PAX@Z 10039ba0 f   physics_2009:dgCollisionScene.obj
 0001:00038ba0       ?OOBBTest@dgCollisionConvexModifier@@MBE_NABVdgMatrix@@QBVdgConvexCollision@@PAX@Z 10039ba0 f   physics_2009:dgCollisionConvexModifier.obj
 0001:00038ba0       ?OOBBTest@dgCompoundCollision@@MBE_NABVdgMatrix@@QBVdgConvexCollision@@PAX@Z 10039ba0 f   physics_2009:dgCompoundCollision.obj
 0001:00038bb0       ??_EdgCompoundCollision@@UAEPAXI@Z 10039bb0 f i physics_2009:dgCompoundCollision.obj
 0001:00038bb0       ??_GdgCompoundCollision@@UAEPAXI@Z 10039bb0 f i physics_2009:dgCompoundCollision.obj
 0001:00038bd0       ?CalcAABB@dgCompoundCollision@@MBEXABVdgMatrix@@AAVdgVector@@1@Z 10039bd0 f   physics_2009:dgCompoundCollision.obj
 0001:00038d80       ?Init@dgCompoundCollision@@IAEXHQBQAVdgConvexCollision@@PAVdgWorld@@@Z 10039d80 f   physics_2009:dgCompoundCollision.obj
 0001:00038ec0       ?RayCastSimd@dgCompoundCollision@@MBENABVdgVector@@0AAVdgContactPoint@@P6AIPBVdgBody@@PBVdgCollision@@PAX@Z24@Z 10039ec0 f   physics_2009:dgCompoundCollision.obj
 0001:00039080       ?CalculateVolumeIntegral@dgCompoundCollision@@MBE?AVdgVector@@ABVdgMatrix@@P6AIPAX10AAVdgPlane@@@Z1@Z 1003a080 f   physics_2009:dgCompoundCollision.obj
 0001:00039150       ?CalculateInertia@dgCompoundCollision@@MBEXAAVdgVector@@0@Z 1003a150 f   physics_2009:dgCompoundCollision.obj
 0001:000392c0       ?SupportVertex@dgCompoundCollision@@MBE?AVdgVector@@ABV2@@Z 1003a2c0 f   physics_2009:dgCompoundCollision.obj
 0001:00039420       ??0dgCompoundCollision@@QAE@HQBQAVdgConvexCollision@@PAVdgWorld@@@Z 1003a420 f   physics_2009:dgCompoundCollision.obj
 0001:00039460       ??0dgCompoundCollision@@QAE@PAVdgWorld@@P6AXPAX1I@Z1@Z 1003a460 f   physics_2009:dgCompoundCollision.obj
 0001:00039510       ?RayCast@dgCompoundCollision@@MBENABVdgVector@@0AAVdgContactPoint@@P6AIPBVdgBody@@PBVdgCollision@@PAX@Z24@Z 1003a510 f   physics_2009:dgCompoundCollision.obj
 0001:00039730       ??0dgCollisionUserMesh@@QAE@ABVdgVector@@0ABVdgUserMeshCreation@@@Z 1003a730 f   physics_2009:dgCollisionUserMesh.obj
 0001:000397a0       ?GetCollisionInfo@dgCollisionUserMesh@@EBEXPAVdgCollisionInfo@@@Z 1003a7a0 f   physics_2009:dgCollisionUserMesh.obj
 0001:000397e0       ?GetCollidingFacesSimd@dgCollisionUserMesh@@EBEXQAVdgPolygonMeshDesc@@@Z 1003a7e0 f   physics_2009:dgCollisionUserMesh.obj
 0001:000397e0       ?GetCollidingFacesSimd@dgCollisionHeightField@@EBEXQAVdgPolygonMeshDesc@@@Z 1003a7e0 f   physics_2009:dgCollisionHeightField.obj
 0001:000397f0       ?GetCollidingFaces@dgCollisionUserMesh@@EBEXQAVdgPolygonMeshDesc@@@Z 1003a7f0 f   physics_2009:dgCollisionUserMesh.obj
 0001:00039820       ??_GdgCollisionUserMesh@@UAEPAXI@Z 1003a820 f i physics_2009:dgCollisionUserMesh.obj
 0001:00039820       ??_EdgCollisionUserMesh@@UAEPAXI@Z 1003a820 f i physics_2009:dgCollisionUserMesh.obj
 0001:00039860       ?RayCast@dgCollisionUserMesh@@EBENABVdgVector@@0AAVdgContactPoint@@P6AIPBVdgBody@@PBVdgCollision@@PAX@Z24@Z 1003a860 f   physics_2009:dgCollisionUserMesh.obj
 0001:00039980       ??1dgCollisionHeightField@@UAE@XZ 1003a980 f   physics_2009:dgCollisionHeightField.obj
 0001:000399e0       ?Serialize@dgCollisionHeightField@@EBEXP6AXPAXPBXI@Z0@Z 1003a9e0 f   physics_2009:dgCollisionHeightField.obj
 0001:00039a90       ?GetCollisionInfo@dgCollisionHeightField@@EBEXPAVdgCollisionInfo@@@Z 1003aa90 f   physics_2009:dgCollisionHeightField.obj
 0001:00039b20       ??_EdgCollisionHeightField@@UAEPAXI@Z 1003ab20 f i physics_2009:dgCollisionHeightField.obj
 0001:00039b20       ??_GdgCollisionHeightField@@UAEPAXI@Z 1003ab20 f i physics_2009:dgCollisionHeightField.obj
 0001:00039b40       ?CalculateMinExtend2d@dgCollisionHeightField@@ABEXABVdgVector@@0AAV2@1@Z 1003ab40 f   physics_2009:dgCollisionHeightField.obj
 0001:00039cf0       ?CalculateMinExtend3d@dgCollisionHeightField@@ABEXABVdgVector@@0AAV2@1@Z 1003acf0 f   physics_2009:dgCollisionHeightField.obj
 0001:00039e50       ?DebugCollision@dgCollisionHeightField@@EBEXABVdgMatrix@@P6AXPAXHPBNH@Z1@Z 1003ae50 f   physics_2009:dgCollisionHeightField.obj
 0001:0003a3b0       ??0dgCollisionHeightField@@QAE@PAVdgWorld@@HHHPAGPADNN@Z 1003b3b0 f   physics_2009:dgCollisionHeightField.obj
 0001:0003a5e0       ??0dgCollisionHeightField@@QAE@PAVdgWorld@@P6AXPAX1I@Z1@Z 1003b5e0 f   physics_2009:dgCollisionHeightField.obj
 0001:0003a780       ?RayCastCellSimd@dgCollisionHeightField@@ABENABVFastRayTest@@HHAAVdgVector@@@Z 1003b780 f   physics_2009:dgCollisionHeightField.obj
 0001:0003ac00       ?RayCastCell@dgCollisionHeightField@@ABENABVFastRayTest@@HHAAVdgVector@@@Z 1003bc00 f   physics_2009:dgCollisionHeightField.obj
 0001:0003b080       ?RayCastSimd@dgCollisionHeightField@@EBENABVdgVector@@0AAVdgContactPoint@@P6AIPBVdgBody@@PBVdgCollision@@PAX@Z24@Z 1003c080 f   physics_2009:dgCollisionHeightField.obj
 0001:0003b480       ?RayCast@dgCollisionHeightField@@EBENABVdgVector@@0AAVdgContactPoint@@P6AIPBVdgBody@@PBVdgCollision@@PAX@Z24@Z 1003c480 f   physics_2009:dgCollisionHeightField.obj
 0001:0003b7e0       ?GetCollidingFaces@dgCollisionHeightField@@EBEXQAVdgPolygonMeshDesc@@@Z 1003c7e0 f   physics_2009:dgCollisionHeightField.obj
 0001:0003ccc0       ?FilterPolygonEdgeContacts@dgWorld@@ABEHHQAVdgContactPoint@@@Z 1003dcc0 f   physics_2009:dgMinkowskiConv.obj
 0001:0003cdd0       ?CalculateConvexToConvexContactsSimd@dgWorld@@ABEHAAVdgCollisionParamProxi@@@Z 1003ddd0 f   physics_2009:dgMinkowskiConv.obj
 0001:0003cdd0       ?CalculateConvexToNonConvexContactsSimd@dgWorld@@ABEHAAVdgCollisionParamProxi@@@Z 1003ddd0 f   physics_2009:dgMinkowskiConv.obj
 0001:0003cde0       ?Pop@?$dgDownHeap@PAVdgListNode@?$dgList@UEDGE_HANDLE@InternalPolyhedra@@@@N@@QAEXXZ 1003dde0 f i corelib_2009:dgPolyhedra.obj
 0001:0003cde0       ?Pop@?$dgDownHeap@PAVdgMinkFace@dgContactSolver@@N@@QAEXXZ 1003dde0 f i physics_2009:dgMinkowskiConv.obj
 0001:0003cde0       ?Pop@?$dgDownHeap@PAVdgEdge@@N@@QAEXXZ 1003dde0 f i corelib_2009:dgPolyhedra.obj
 0001:0003ce80       ?Pop@?$dgUpHeap@HN@@QAEXXZ 1003de80 f i physics_2009:dgConvexCollision.obj
 0001:0003ce80       ?Pop@?$dgUpHeap@PAUdgPerimenterEdge@dgContactSolver@@N@@QAEXXZ 1003de80 f i physics_2009:dgMinkowskiConv.obj
 0001:0003cf20       ?Push@?$dgUpHeap@PAUdgPerimenterEdge@dgContactSolver@@N@@QAEXAAPAUdgPerimenterEdge@dgContactSolver@@N@Z 1003df20 f i physics_2009:dgMinkowskiConv.obj
 0001:0003cf20       ?Push@?$dgUpHeap@HN@@QAEXAAHN@Z 1003df20 f i physics_2009:dgConvexCollision.obj
 0001:0003cf90       ?Remove@?$dgUpHeap@PAUdgPerimenterEdge@dgContactSolver@@N@@QAEXH@Z 1003df90 f i physics_2009:dgMinkowskiConv.obj
 0001:0003d030       ?CheckTetraHedronVolume@dgContactSolver@@ABE_NXZ 1003e030 f i physics_2009:dgMinkowskiConv.obj
 0001:0003d100       ?CheckTetraHedronVolumeLarge@dgContactSolver@@ABE_NXZ 1003e100 f i physics_2009:dgMinkowskiConv.obj
 0001:0003d1a0       ?ReduceLine@dgContactSolver@@AAE?AVdgVector@@ABV2@@Z 1003e1a0 f i physics_2009:dgMinkowskiConv.obj
 0001:0003d2c0       ?ReduceLineLarge@dgContactSolver@@AAE?AVdgBigVector@@ABV2@@Z 1003e2c0 f i physics_2009:dgMinkowskiConv.obj
 0001:0003d440       ?ReduceTriangle@dgContactSolver@@AAE?AVdgVector@@ABV2@@Z 1003e440 f i physics_2009:dgMinkowskiConv.obj
 0001:0003d960       ?ReduceTriangleLarge@dgContactSolver@@AAE?AVdgBigVector@@ABV2@@Z 1003e960 f i physics_2009:dgMinkowskiConv.obj
 0001:0003de80       ?ReduceTetrahedrum@dgContactSolver@@AAE?AVdgVector@@ABV2@@Z 1003ee80 f i physics_2009:dgMinkowskiConv.obj
 0001:0003e150       ?ReduceTetrahedrumLarge@dgContactSolver@@AAE?AVdgBigVector@@ABV2@@Z 1003f150 f i physics_2009:dgMinkowskiConv.obj
 0001:0003e410       ?CalcFacePlane@dgContactSolver@@AAE_NQAVdgMinkFace@1@@Z 1003f410 f i physics_2009:dgMinkowskiConv.obj
 0001:0003e540       ?CalcFacePlaneLarge@dgContactSolver@@AAE_NQAVdgMinkFace@1@@Z 1003f540 f i physics_2009:dgMinkowskiConv.obj
 0001:0003e670       ?CalculateVelocities@dgContactSolver@@QAEXN@Z 1003f670 f i physics_2009:dgMinkowskiConv.obj
 0001:0003e740       ?InitConvexCollision@dgWorld@@CAXXZ 1003f740 f   physics_2009:dgMinkowskiConv.obj
 0001:0003ebd0       ?SphereSphereCollision@dgWorld@@ABEHABVdgVector@@N0NAAVdgCollisionParamProxi@@@Z 1003fbd0 f   physics_2009:dgMinkowskiConv.obj
 0001:0003edb0       ?CalculateSphereToSphereContacts@dgWorld@@ABEHAAVdgCollisionParamProxi@@@Z 1003fdb0 f   physics_2009:dgMinkowskiConv.obj
 0001:0003edf0       ?CalculateCapsuleToSphereContacts@dgWorld@@ABEHAAVdgCollisionParamProxi@@@Z 1003fdf0 f   physics_2009:dgMinkowskiConv.obj
 0001:0003ef60       ?CalculateCapsuleToCapsuleContacts@dgWorld@@ABEHAAVdgCollisionParamProxi@@@Z 1003ff60 f   physics_2009:dgMinkowskiConv.obj
 0001:0003fc20       ?CalculatePolySoupToSphereContactsDescrete@dgWorld@@ABEHAAVdgCollisionParamProxi@@@Z 10040c20 f   physics_2009:dgMinkowskiConv.obj
 0001:00040140       ?CalcSupportVertex@dgContactSolver@@AAEXABVdgVector@@H@Z 10041140 f i physics_2009:dgMinkowskiConv.obj
 0001:000402a0       ?CalcSupportVertexLarge@dgContactSolver@@AAEXABVdgVector@@H@Z 100412a0 f i physics_2009:dgMinkowskiConv.obj
 0001:00040410       ?CalculateConvexShapeIntersectionLine@dgContactSolver@@ABEHABVdgMatrix@@ABVdgVector@@INHQAV3@H2QAVdgContactPoint@@@Z 10041410 f i physics_2009:dgMinkowskiConv.obj
 0001:00040810       ?ReduceContacts@dgContactSolver@@ABEPAUdgPerimenterEdge@1@PAU21@H@Z 10041810 f i physics_2009:dgMinkowskiConv.obj
 0001:000409a0       ?CalculateConvexShapeIntersection@dgContactSolver@@ABEHABVdgMatrix@@ABVdgVector@@INHQAV3@H2QAVdgContactPoint@@H@Z 100419a0 f i physics_2009:dgMinkowskiConv.obj
 0001:00040fd0       ?UpdateSeparatingPlaneFallbackSolution@dgContactSolver@@AAE?AW4dgMinkReturnCode@1@AAPAVdgMinkFace@1@ABVdgVector@@@Z 10041fd0 f i physics_2009:dgMinkowskiConv.obj
 0001:000422b0       ?UpdateSeparatingPlaneFallbackSolutionLarge@dgContactSolver@@AAE?AW4dgMinkReturnCode@1@AAPAVdgMinkFace@1@ABVdgBigVector@@@Z 100432b0 f i physics_2009:dgMinkowskiConv.obj
 0001:00043400       ?UpdateSeparatingPlane@dgContactSolver@@AAE?AW4dgMinkReturnCode@1@AAPAVdgMinkFace@1@ABVdgVector@@@Z 10044400 f i physics_2009:dgMinkowskiConv.obj
 0001:000439e0       ?UpdateSeparatingPlaneLarge@dgContactSolver@@AAE?AW4dgMinkReturnCode@1@AAPAVdgMinkFace@1@ABVdgBigVector@@@Z 100449e0 f i physics_2009:dgMinkowskiConv.obj
 0001:00044000       ?CalcSeparatingPlane@dgContactSolver@@AAE?AW4dgMinkReturnCode@1@AAPAVdgMinkFace@1@ABVdgVector@@@Z 10045000 f i physics_2009:dgMinkowskiConv.obj
 0001:00044620       ?CalcSeparatingPlaneLarge@dgContactSolver@@AAE?AW4dgMinkReturnCode@1@AAPAVdgMinkFace@1@ABVdgBigVector@@@Z 10045620 f i physics_2009:dgMinkowskiConv.obj
 0001:00044ba0       ??0dgContactSolver@@QAE@AAVdgCollisionParamProxi@@PAVdgCollision@@@Z 10045ba0 f i physics_2009:dgMinkowskiConv.obj
 0001:00044c20       ??0dgContactSolver@@QAE@AAVdgCollisionParamProxi@@@Z 10045c20 f i physics_2009:dgMinkowskiConv.obj
 0001:00044ca0       ?CalculatePolySoupToSphereContactsContinue@dgWorld@@ABEHAAVdgCollisionParamProxi@@@Z 10045ca0 f   physics_2009:dgMinkowskiConv.obj
 0001:00045180       ?CalculateClosestPoints@dgContactSolver@@AAEHXZ 10046180 f i physics_2009:dgMinkowskiConv.obj
 0001:00045dd0       ?CalculateContactAlternateMethod@dgContactSolver@@AAEHQAVdgMinkFace@1@HQAVdgContactPoint@@H@Z 10046dd0 f i physics_2009:dgMinkowskiConv.obj
 0001:00046f10       ?CalculateContacts@dgContactSolver@@AAEHQAVdgMinkFace@1@HQAVdgContactPoint@@H@Z 10047f10 f i physics_2009:dgMinkowskiConv.obj
 0001:00048160       ?CalculateContactsContinues@dgContactSolver@@AAEHHQAVdgContactPoint@@HPBVdgVector@@1N@Z 10049160 f i physics_2009:dgMinkowskiConv.obj
 0001:000483c0       ?CalculateClipPlane@dgContactSolver@@AAEPAVdgMinkFace@1@XZ 100493c0 f i physics_2009:dgMinkowskiConv.obj
 0001:00048e30       ?CalculateClipPlaneLarge@dgContactSolver@@AAEPAVdgMinkFace@1@XZ 10049e30 f i physics_2009:dgMinkowskiConv.obj
 0001:000498d0       ?HullHullContacts@dgContactSolver@@QAEHH@Z 1004a8d0 f i physics_2009:dgMinkowskiConv.obj
 0001:00049c10       ?HullHullContactsLarge@dgContactSolver@@QAEHH@Z 1004ac10 f i physics_2009:dgMinkowskiConv.obj
 0001:00049f90       ?HullHullContinueContacts@dgContactSolver@@QAEHAANQAVdgContactPoint@@HHH@Z 1004af90 f i physics_2009:dgMinkowskiConv.obj
 0001:0004a850       ?ClosestPoint@dgWorld@@ABEHAAVdgCollisionParamProxi@@@Z 1004b850 f   physics_2009:dgMinkowskiConv.obj
 0001:0004aa20       ?CalculateHullToHullContacts@dgWorld@@ABEHAAVdgCollisionParamProxi@@@Z 1004ba20 f   physics_2009:dgMinkowskiConv.obj
 0001:0004ac10       ?CalculatePolySoupToHullContactsDescrete@dgWorld@@ABEHAAVdgCollisionParamProxi@@@Z 1004bc10 f   physics_2009:dgMinkowskiConv.obj
 0001:0004ae70       ?CalculateConvexToNonConvexContactsContinue@dgWorld@@ABEHAAVdgCollisionParamProxi@@@Z 1004be70 f   physics_2009:dgMinkowskiConv.obj
 0001:0004b1d0       ?CalculateConvexToNonConvexContacts@dgWorld@@ABEHAAVdgCollisionParamProxi@@@Z 1004c1d0 f   physics_2009:dgMinkowskiConv.obj
 0001:0004ba90       ?CalculateBoxToSphereContacts@dgWorld@@ABEHAAVdgCollisionParamProxi@@@Z 1004ca90 f   physics_2009:dgMinkowskiConv.obj
 0001:0004d1a0       ?CalculateConvexToConvexContacts@dgWorld@@ABEHAAVdgCollisionParamProxi@@@Z 1004e1a0 f   physics_2009:dgMinkowskiConv.obj
 0001:0004d920       ?CalculateSignature@dgCollisionBox@@MBEHXZ 1004e920 f   physics_2009:dgCollisionBox.obj
 0001:0004d9b0       ?GetCollisionInfo@dgCollisionBox@@MBEXPAVdgCollisionInfo@@@Z 1004e9b0 f   physics_2009:dgCollisionBox.obj
 0001:0004da10       ?PlaneSplite@dgCollisionConvexHull@@EBEXABVdgPlane@@PAPAV1@1@Z 1004ea10 f   physics_2009:dgCollisionConvexHull.obj
 0001:0004da10       ?PlaneSplite@dgCollisionBox@@MBEXABVdgPlane@@PAPAVdgCollisionConvexHull@@1@Z 1004ea10 f   physics_2009:dgCollisionBox.obj
 0001:0004da20       ??_EdgCollisionBox@@UAEPAXI@Z 1004ea20 f i physics_2009:dgCollisionBox.obj
 0001:0004da20       ??_GdgCollisionBox@@UAEPAXI@Z 1004ea20 f i physics_2009:dgCollisionBox.obj
 0001:0004da60       ?CalcAABB@dgCollisionBox@@MBEXABVdgMatrix@@AAVdgVector@@1@Z 1004ea60 f   physics_2009:dgCollisionBox.obj
 0001:0004dbb0       ?CalculatePlaneIntersection@dgCollisionBox@@MBEHABVdgVector@@0QAV2@@Z 1004ebb0 f   physics_2009:dgCollisionBox.obj
 0001:0004de60       ?Serialize@dgCollisionBox@@MBEXP6AXPAXPBXI@Z0@Z 1004ee60 f   physics_2009:dgCollisionBox.obj
 0001:0004ded0       ?Init@dgCollisionBox@@IAEXNNN@Z 1004eed0 f   physics_2009:dgCollisionBox.obj
 0001:0004e220       ?SupportVertex@dgCollisionBox@@MBE?AVdgVector@@ABV2@@Z 1004f220 f   physics_2009:dgCollisionBox.obj
 0001:0004e280       ?RayCast@dgCollisionBox@@MBENABVdgVector@@0AAVdgContactPoint@@P6AIPBVdgBody@@PBVdgCollision@@PAX@Z24@Z 1004f280 f   physics_2009:dgCollisionBox.obj
 0001:0004e400       ?CalculateMassProperties@dgCollisionBox@@MBENAAVdgVector@@00@Z 1004f400 f   physics_2009:dgCollisionBox.obj
 0001:0004e6d0       ??0dgCollisionBox@@QAE@INNNABVdgMatrix@@@Z 1004f6d0 f   physics_2009:dgCollisionBox.obj
 0001:0004e720       ??0dgCollisionBox@@QAE@PAVdgWorld@@P6AXPAX1I@Z1@Z 1004f720 f   physics_2009:dgCollisionBox.obj
 0001:0004e780       ??1dgCollision@@MAE@XZ     1004f780 f   physics_2009:dgCollision.obj
 0001:0004e790       ?Quantize@dgCollision@@SAIN@Z 1004f790 f   physics_2009:dgCollision.obj
 0001:0004e7c0       ?MakeCRC@dgCollision@@SAIPAXH@Z 1004f7c0 f   physics_2009:dgCollision.obj
 0001:0004e7e0       ?GetCollisionInfo@dgCollision@@UBEXPAVdgCollisionInfo@@@Z 1004f7e0 f   physics_2009:dgCollision.obj
 0001:0004e830       ?SerializeLow@dgCollision@@UBEXP6AXPAXPBXI@Z0@Z 1004f830 f   physics_2009:dgCollision.obj
 0001:0004e890       ??_GdgCollision@@MAEPAXI@Z 1004f890 f i physics_2009:dgCollision.obj
 0001:0004e890       ??_EdgCollision@@MAEPAXI@Z 1004f890 f i physics_2009:dgCollision.obj
 0001:0004e8b0       ??0dgCollision@@IAE@IABVdgMatrix@@W4dgCollisionID@@@Z 1004f8b0 f   physics_2009:dgCollision.obj
 0001:0004e910       ??0dgCollision@@IAE@PAVdgWorld@@P6AXPAX1I@Z1@Z 1004f910 f   physics_2009:dgCollision.obj
 0001:0004e980       ?CalculateSignature@dgCollisionEllipse@@EBEHXZ 1004f980 f   physics_2009:dgCollisionEllipse.obj
 0001:0004ea10       ?CalculateMassProperties@dgCollisionEllipse@@EBENAAVdgVector@@00@Z 1004fa10 f   physics_2009:dgCollisionEllipse.obj
 0001:0004ea20       ?GetCollisionInfo@dgCollisionEllipse@@EBEXPAVdgCollisionInfo@@@Z 1004fa20 f   physics_2009:dgCollisionEllipse.obj
 0001:0004ea70       ?Serialize@dgCollisionEllipse@@EBEXP6AXPAXPBXI@Z0@Z 1004fa70 f   physics_2009:dgCollisionEllipse.obj
 0001:0004eaa0       ??_GdgCollisionEllipse@@UAEPAXI@Z 1004faa0 f i physics_2009:dgCollisionEllipse.obj
 0001:0004eaa0       ??_EdgCollisionEllipse@@UAEPAXI@Z 1004faa0 f i physics_2009:dgCollisionEllipse.obj
 0001:0004ead0       ?CalcAABB@dgCollisionEllipse@@MBEXABVdgMatrix@@AAVdgVector@@1@Z 1004fad0 f   physics_2009:dgCollisionEllipse.obj
 0001:0004eba0       ??0dgCollisionEllipse@@QAE@INNNABVdgMatrix@@@Z 1004fba0 f   physics_2009:dgCollisionEllipse.obj
 0001:0004ec30       ??0dgCollisionEllipse@@QAE@PAVdgWorld@@P6AXPAX1I@Z1@Z 1004fc30 f   physics_2009:dgCollisionEllipse.obj
 0001:0004ecb0       ?SupportVertex@dgCollisionEllipse@@MBE?AVdgVector@@ABV2@@Z 1004fcb0 f   physics_2009:dgCollisionEllipse.obj
 0001:0004ed80       ?CalculatePlaneIntersection@dgCollisionEllipse@@EBEHABVdgVector@@0QAV2@@Z 1004fd80 f   physics_2009:dgCollisionEllipse.obj
 0001:0004ee10       ?DebugCollision@dgCollisionEllipse@@MBEXABVdgMatrix@@P6AXPAXHPBNH@Z1@Z 1004fe10 f   physics_2009:dgCollisionEllipse.obj
 0001:0004f060       ?RayCast@dgCollisionEllipse@@MBENABVdgVector@@0AAVdgContactPoint@@P6AIPBVdgBody@@PBVdgCollision@@PAX@Z24@Z 10050060 f   physics_2009:dgCollisionEllipse.obj
 0001:0004f110       ?RayCastSimd@dgCollisionEllipse@@MBENABVdgVector@@0AAVdgContactPoint@@P6AIPBVdgBody@@PBVdgCollision@@PAX@Z24@Z 10050110 f   physics_2009:dgCollisionEllipse.obj
 0001:0004f1c0       ?CalculateSignature@dgCollisionCapsule@@EBEHXZ 100501c0 f   physics_2009:dgCollisionCapsule.obj
 0001:0004f240       ?GetCollisionInfo@dgCollisionCapsule@@EBEXPAVdgCollisionInfo@@@Z 10050240 f   physics_2009:dgCollisionCapsule.obj
 0001:0004f2a0       ??_EdgCollisionCapsule@@UAEPAXI@Z 100502a0 f i physics_2009:dgCollisionCapsule.obj
 0001:0004f2a0       ??_GdgCollisionCapsule@@UAEPAXI@Z 100502a0 f i physics_2009:dgCollisionCapsule.obj
 0001:0004f2e0       ?SupportVertex@dgCollisionCapsule@@EBE?AVdgVector@@ABV2@@Z 100502e0 f   physics_2009:dgCollisionCapsule.obj
 0001:0004f340       ?Serialize@dgCollisionCapsule@@EBEXP6AXPAXPBXI@Z0@Z 10050340 f   physics_2009:dgCollisionCapsule.obj
 0001:0004f3a0       ?Init@dgCollisionCapsule@@AAEXNN@Z 100503a0 f   physics_2009:dgCollisionCapsule.obj
 0001:0004f800       ?TesselateTriangle@dgCollisionCapsule@@ABEXHNABVdgVector@@00AAHPAV2@@Z 10050800 f   physics_2009:dgCollisionCapsule.obj
 0001:0004fb00       ?DebugCollision@dgCollisionCapsule@@EBEXABVdgMatrix@@P6AXPAXHPBNH@Z1@Z 10050b00 f   physics_2009:dgCollisionCapsule.obj
 0001:0004ffd0       ?RayCast@dgCollisionCapsule@@EBENABVdgVector@@0AAVdgContactPoint@@P6AIPBVdgBody@@PBVdgCollision@@PAX@Z24@Z 10050fd0 f   physics_2009:dgCollisionCapsule.obj
 0001:000508f0       ?CalculateMassProperties@dgCollisionCapsule@@EBENAAVdgVector@@00@Z 100518f0 f   physics_2009:dgCollisionCapsule.obj
 0001:00050c00       ?CalculatePlaneIntersection@dgCollisionCapsule@@EBEHABVdgVector@@0QAV2@@Z 10051c00 f   physics_2009:dgCollisionCapsule.obj
 0001:000513f0       ??0dgCollisionCapsule@@QAE@INNABVdgMatrix@@@Z 100523f0 f   physics_2009:dgCollisionCapsule.obj
 0001:00051430       ??0dgCollisionCapsule@@QAE@PAVdgWorld@@P6AXPAX1I@Z1@Z 10052430 f   physics_2009:dgCollisionCapsule.obj
 0001:00051490       ?CalculateSignature@dgCollisionCone@@EBEHXZ 10052490 f   physics_2009:dgCollisionCone.obj
 0001:00051510       ?DebugCollision@dgCollisionCone@@EBEXABVdgMatrix@@P6AXPAXHPBNH@Z1@Z 10052510 f   physics_2009:dgCollisionCone.obj
 0001:00051720       ?GetCollisionInfo@dgCollisionCone@@EBEXPAVdgCollisionInfo@@@Z 10052720 f   physics_2009:dgCollisionCone.obj
 0001:00051770       ??_EdgCollisionCone@@UAEPAXI@Z 10052770 f i physics_2009:dgCollisionCone.obj
 0001:00051770       ??_GdgCollisionCone@@UAEPAXI@Z 10052770 f i physics_2009:dgCollisionCone.obj
 0001:000517b0       ?Init@dgCollisionCone@@AAEXNN@Z 100527b0 f   physics_2009:dgCollisionCone.obj
 0001:00051a30       ?SupportVertex@dgCollisionCone@@EBE?AVdgVector@@ABV2@@Z 10052a30 f   physics_2009:dgCollisionCone.obj
 0001:00051ae0       ?CalculateMassProperties@dgCollisionCone@@EBENAAVdgVector@@00@Z 10052ae0 f   physics_2009:dgCollisionCone.obj
 0001:00051de0       ?Serialize@dgCollisionCone@@EBEXP6AXPAXPBXI@Z0@Z 10052de0 f   physics_2009:dgCollisionCone.obj
 0001:00051e30       ??0dgCollisionCone@@QAE@INNABVdgMatrix@@@Z 10052e30 f   physics_2009:dgCollisionCone.obj
 0001:00051e70       ??0dgCollisionCone@@QAE@PAVdgWorld@@P6AXPAX1I@Z1@Z 10052e70 f   physics_2009:dgCollisionCone.obj
 0001:00051ed0       ?CalculateSignature@dgCollisionCylinder@@EBEHXZ 10052ed0 f   physics_2009:dgCollisionCylinder.obj
 0001:00051f50       ?DebugCollision@dgCollisionCylinder@@EBEXABVdgMatrix@@P6AXPAXHPBNH@Z1@Z 10052f50 f   physics_2009:dgCollisionCylinder.obj
 0001:000521c0       ?SupportVertexSimd@dgCollisionChamferCylinder@@MBE?AVdgVector@@ABV2@@Z 100531c0 f   physics_2009:dgCollisionChamferCylinder.obj
 0001:000521c0       ?SupportVertexSimd@dgCollisionCone@@EBE?AVdgVector@@ABV2@@Z 100531c0 f   physics_2009:dgCollisionCone.obj
 0001:000521c0       ?SupportVertexSimd@dgCollisionCylinder@@EBE?AVdgVector@@ABV2@@Z 100531c0 f   physics_2009:dgCollisionCylinder.obj
 0001:000521e0       ?GetCollisionInfo@dgCollisionCylinder@@EBEXPAVdgCollisionInfo@@@Z 100531e0 f   physics_2009:dgCollisionCylinder.obj
 0001:00052240       ??_GdgCollisionCylinder@@UAEPAXI@Z 10053240 f i physics_2009:dgCollisionCylinder.obj
 0001:00052240       ??_EdgCollisionCylinder@@UAEPAXI@Z 10053240 f i physics_2009:dgCollisionCylinder.obj
 0001:00052280       ?Init@dgCollisionCylinder@@AAEXNN@Z 10053280 f   physics_2009:dgCollisionCylinder.obj
 0001:000524f0       ?SupportVertex@dgCollisionCylinder@@EBE?AVdgVector@@ABV2@@Z 100534f0 f   physics_2009:dgCollisionCylinder.obj
 0001:00052580       ?CalculateMassProperties@dgCollisionCylinder@@EBENAAVdgVector@@00@Z 10053580 f   physics_2009:dgCollisionCylinder.obj
 0001:00052850       ?CalculatePlaneIntersection@dgCollisionCylinder@@EBEHABVdgVector@@0QAV2@@Z 10053850 f   physics_2009:dgCollisionCylinder.obj
 0001:00052850       ?CalculatePlaneIntersection@dgCollisionCone@@EBEHABVdgVector@@0QAV2@@Z 10053850 f   physics_2009:dgCollisionCone.obj
 0001:00052a30       ?RayCast@dgCollisionCylinder@@EBENABVdgVector@@0AAVdgContactPoint@@P6AIPBVdgBody@@PBVdgCollision@@PAX@Z24@Z 10053a30 f   physics_2009:dgCollisionCylinder.obj
 0001:00052ec0       ?Serialize@dgCollisionCylinder@@EBEXP6AXPAXPBXI@Z0@Z 10053ec0 f   physics_2009:dgCollisionCylinder.obj
 0001:00052f30       ??0dgCollisionCylinder@@QAE@INNABVdgMatrix@@@Z 10053f30 f   physics_2009:dgCollisionCylinder.obj
 0001:00052f70       ??0dgCollisionCylinder@@QAE@PAVdgWorld@@P6AXPAX1I@Z1@Z 10053f70 f   physics_2009:dgCollisionCylinder.obj
 0001:00052fd0       ?CalculateSignature@dgCollisionChamferCylinder@@MBEHXZ 10053fd0 f   physics_2009:dgCollisionChamferCylinder.obj
 0001:00053050       ?GetCollisionInfo@dgCollisionChamferCylinder@@MBEXPAVdgCollisionInfo@@@Z 10054050 f   physics_2009:dgCollisionChamferCylinder.obj
 0001:000530a0       ??_GdgCollisionChamferCylinder@@UAEPAXI@Z 100540a0 f i physics_2009:dgCollisionChamferCylinder.obj
 0001:000530a0       ??_EdgCollisionChamferCylinder@@UAEPAXI@Z 100540a0 f i physics_2009:dgCollisionChamferCylinder.obj
 0001:000530e0       ?Init@dgCollisionChamferCylinder@@IAEXNN@Z 100540e0 f   physics_2009:dgCollisionChamferCylinder.obj
 0001:00053550       ?DebugCollision@dgCollisionChamferCylinder@@MBEXABVdgMatrix@@P6AXPAXHPBNH@Z1@Z 10054550 f   physics_2009:dgCollisionChamferCylinder.obj
 0001:00053c10       ?SupportVertex@dgCollisionChamferCylinder@@MBE?AVdgVector@@ABV2@@Z 10054c10 f   physics_2009:dgCollisionChamferCylinder.obj
 0001:00053cf0       ?RayCast@dgCollisionChamferCylinder@@MBENABVdgVector@@0AAVdgContactPoint@@P6AIPBVdgBody@@PBVdgCollision@@PAX@Z24@Z 10054cf0 f   physics_2009:dgCollisionChamferCylinder.obj
 0001:00053e60       ?RayCastSimd@dgCollisionChamferCylinder@@MBENABVdgVector@@0AAVdgContactPoint@@P6AIPBVdgBody@@PBVdgCollision@@PAX@Z24@Z 10054e60 f   physics_2009:dgCollisionChamferCylinder.obj
 0001:00053fd0       ?CalculatePlaneIntersection@dgCollisionChamferCylinder@@MBEHABVdgVector@@0QAV2@@Z 10054fd0 f   physics_2009:dgCollisionChamferCylinder.obj
 0001:00054760       ?Serialize@dgCollisionChamferCylinder@@MBEXP6AXPAXPBXI@Z0@Z 10055760 f   physics_2009:dgCollisionChamferCylinder.obj
 0001:000547c0       ??0dgCollisionChamferCylinder@@QAE@INNABVdgMatrix@@@Z 100557c0 f   physics_2009:dgCollisionChamferCylinder.obj
 0001:00054800       ??0dgCollisionChamferCylinder@@QAE@PAVdgWorld@@P6AXPAX1I@Z1@Z 10055800 f   physics_2009:dgCollisionChamferCylinder.obj
 0001:00054860       ?CalculatePlaneIntersectionSimd@dgCollisionChamferCylinder@@MBEHABVdgVector@@0QAV2@@Z 10055860 f   physics_2009:dgCollisionChamferCylinder.obj
 0001:00054870       ?Malloc@dgMemoryAllocator@@QAEPAXH@Z 10055870 f i corelib_2009:dgMemory.obj
 0001:000549b0       ?Free@dgMemoryAllocator@@QAEXPAX@Z 100559b0 f i corelib_2009:dgMemory.obj
 0001:00054ab0       ?dgSetMemoryDrivers@@YAXP6APAXI@ZP6AXPAXI@Z@Z 10055ab0 f   corelib_2009:dgMemory.obj
 0001:00054ad0       ?dgGetMemoryUsed@@YAHXZ    10055ad0 f   corelib_2009:dgMemory.obj
 0001:00054ae0       ?dgMallocStack@@YAPAXI@Z   10055ae0 f   corelib_2009:dgMemory.obj
 0001:00054b10       ?dgFreeStack@@YAXPAX@Z     10055b10 f   corelib_2009:dgMemory.obj
 0001:00054b30       ?dgMalloc@@YAPAXI@Z        10055b30 f   corelib_2009:dgMemory.obj
 0001:00054b50       ?dgFree@@YAXPAX@Z          10055b50 f   corelib_2009:dgMemory.obj
 0001:00054b70       ?dgCRC@@YAIPBXHI@Z         10055b70 f   corelib_2009:dgCRC.obj
 0001:00054bb0       ?TransformTriplex@dgMatrix@@QBEXQAXHQBXHH@Z 10055bb0 f   corelib_2009:dgMatrix.obj
 0001:00054df0       ?dgGetIdentityMatrix@@YAABVdgMatrix@@XZ 10055df0 f   corelib_2009:dgMatrix.obj
 0001:00054ef0       ??0dgMatrix@@QAE@ABVdgQuaternion@@ABVdgVector@@@Z 10055ef0 f   corelib_2009:dgMatrix.obj
 0001:00055010       ??DdgMatrix@@QBE?AV0@ABV0@@Z 10056010 f   corelib_2009:dgMatrix.obj
 0001:00055280       ?Symetric3by3Inverse@dgMatrix@@QBE?AV1@XZ 10056280 f   corelib_2009:dgMatrix.obj
 0001:000553c0       ?CalcPitchYawRoll@dgMatrix@@QBE?AVdgVector@@XZ 100563c0 f   corelib_2009:dgMatrix.obj
 0001:000554b0       ?dgAbsf@@YANN@Z            100564b0 f   corelib_2009:dgTypes.obj
 0001:000554c0       ?dgSqrt@@YANN@Z            100564c0 f   corelib_2009:dgTypes.obj
 0001:000554d0       ?dgSin@@YANN@Z             100564d0 f   corelib_2009:dgTypes.obj
 0001:000554e0       ?dgCos@@YANN@Z             100564e0 f   corelib_2009:dgTypes.obj
 0001:000554f0       ?dgAsin@@YANN@Z            100564f0 f   corelib_2009:dgTypes.obj
 0001:00055510       ?dgAcos@@YANN@Z            10056510 f   corelib_2009:dgTypes.obj
 0001:00055530       ?dgAtan2@@YANNN@Z          10056530 f   corelib_2009:dgTypes.obj
 0001:00055550       ?dgFloor@@YANN@Z           10056550 f   corelib_2009:dgTypes.obj
 0001:00055590       ?dgFastInt@@YAHN@Z         10056590 f   corelib_2009:dgTypes.obj
 0001:000555c0       ?GetMinMax@@YAXAAVdgVector@@0QBNHH@Z 100565c0 f   corelib_2009:dgTypes.obj
 0001:00056840       ?dgVertexListToIndexList@@YAHQANHHHHQAHN@Z 10057840 f   corelib_2009:dgTypes.obj
 0001:000569d0       ?Minimum@dgRedBackNode@@QBEPAV1@XZ 100579d0 f   corelib_2009:dgTree.obj
 0001:000569f0       ?Next@dgRedBackNode@@QBEPAV1@XZ 100579f0 f   corelib_2009:dgTree.obj
 0001:00056a20       ?InsertFixup@dgRedBackNode@@QAEXPAPAV1@@Z 10057a20 f   corelib_2009:dgTree.obj
 0001:00056bf0       ?RemoveFixup@dgRedBackNode@@QAEXPAV1@PAPAV1@@Z 10057bf0 f   corelib_2009:dgTree.obj
 0001:00056ea0       ?Unlink@dgRedBackNode@@QAEXPAPAV1@@Z 10057ea0 f   corelib_2009:dgTree.obj
 0001:00056fa0       ?RemoveAllLow@dgRedBackNode@@QAEXXZ 10057fa0 f   corelib_2009:dgTree.obj
 0001:00056fd0       ?RemoveAll@dgRedBackNode@@QAEXXZ 10057fd0 f   corelib_2009:dgTree.obj
 0001:00057010       ?Remove@dgRedBackNode@@QAEXPAPAV1@@Z 10058010 f   corelib_2009:dgTree.obj
 0001:00057030       ??0dgThreads@@QAE@XZ       10058030 f   corelib_2009:dgThreads.obj
 0001:00057110       ?GetThreadCount@dgThreads@@QBEHXZ 10058110 f   corelib_2009:dgThreads.obj
 0001:00057120       ?GetWork@dgThreads@@AAEHPAPAVdgWorkerThread@@@Z 10058120 f   corelib_2009:dgThreads.obj
 0001:000571b0       ?DoWork@dgThreads@@AAEXH@Z 100581b0 f   corelib_2009:dgThreads.obj
 0001:00057200       ?CalculateChunkSizes@dgThreads@@QBEXHQAH@Z 10058200 f   corelib_2009:dgThreads.obj
 0001:00057250       ?SubmitJob@dgThreads@@QAEHPAVdgWorkerThread@@@Z 10058250 f   corelib_2009:dgThreads.obj
 0001:000572e0       ?SynchronizationBarrier@dgThreads@@QAEXXZ 100582e0 f   corelib_2009:dgThreads.obj
 0001:00057310       ?DestroydgThreads@dgThreads@@QAEXXZ 10058310 f   corelib_2009:dgThreads.obj
 0001:00057400       ?dgGetLock@dgThreads@@QAEXXZ 10058400 f   corelib_2009:dgThreads.obj
 0001:00057440       ?dgGetIndirectLock@dgThreads@@QAEXPAH@Z 10058440 f   corelib_2009:dgThreads.obj
 0001:00057480       ?dgReleaseLock@dgThreads@@QAEXXZ 10058480 f   corelib_2009:dgThreads.obj
 0001:00057490       ?dgReleaseIndirectLock@dgThreads@@QAEXPAH@Z 10058490 f   corelib_2009:dgThreads.obj
 0001:000574a0       ??1dgThreads@@QAE@XZ       100584a0 f   corelib_2009:dgThreads.obj
 0001:000574b0       ?ThreadExecute@dgThreads@@CGIPAX@Z 100584b0 f   corelib_2009:dgThreads.obj
 0001:000574d0       ?CreateThreaded@dgThreads@@QAEXH@Z 100584d0 f   corelib_2009:dgThreads.obj
 0001:00057590       ??0VERTEX_METRIC_STRUCT@InternalPolyhedra@@QAE@ABVdgBigPlane@@@Z 10058590 f i corelib_2009:dgPolyhedra.obj
 0001:00057600       ?Accumulate@VERTEX_METRIC_STRUCT@InternalPolyhedra@@QAEXAAVdgBigPlane@@@Z 10058600 f i corelib_2009:dgPolyhedra.obj
 0001:00057690       ?Push@?$dgDownHeap@PAVdgMinkFace@dgContactSolver@@N@@QAEXAAPAVdgMinkFace@dgContactSolver@@N@Z 10058690 f i physics_2009:dgMinkowskiConv.obj
 0001:00057690       ?Push@?$dgDownHeap@PAVdgListNode@?$dgList@UEDGE_HANDLE@InternalPolyhedra@@@@N@@QAEXAAPAVdgListNode@?$dgList@UEDGE_HANDLE@InternalPolyhedra@@@@N@Z 10058690 f i corelib_2009:dgPolyhedra.obj
 0001:00057690       ?Push@?$dgDownHeap@PAVdgEdge@@N@@QAEXAAPAVdgEdge@@N@Z 10058690 f i corelib_2009:dgPolyhedra.obj
 0001:00057e30       ?DeleteEdge@dgPolyhedra@@QAEXPAVdgEdge@@@Z 10058e30 f   corelib_2009:dgPolyhedra.obj
 0001:00057eb0       ?FaceNormal@dgPolyhedra@@QBE?AVdgVector@@PAVdgEdge@@QBNH@Z 10058eb0 f   corelib_2009:dgPolyhedra.obj
 0001:00057f00       ?Append@?$dgList@PAVdgContact@@@@QAEPAVdgListNode@1@ABQAVdgContact@@@Z 10058f00 f i physics_2009:dgContact.obj
 0001:00057f00       ?Append@?$dgList@PAVdgEdge@@@@QAEPAVdgListNode@1@ABQAVdgEdge@@@Z 10058f00 f i corelib_2009:dgPolyhedra.obj
 0001:00057f90       ?Find@?$dgTree@VdgEdge@@_J@@QBEPAVdgTreeNode@1@_J@Z 10058f90 f i corelib_2009:dgPolyhedra.obj
 0001:00057fd0       ?Addtop@?$dgList@UEDGE_HANDLE@InternalPolyhedra@@@@QAEPAVdgListNode@1@ABUEDGE_HANDLE@InternalPolyhedra@@@Z 10058fd0 f i corelib_2009:dgPolyhedra.obj
 0001:00058080       ?Insert@?$dgTree@VdgEdge@@_J@@QAEPAVdgTreeNode@1@PAV21@_J@Z 10059080 f i corelib_2009:dgPolyhedra.obj
 0001:00058140       ?RemoveAll@?$dgList@UEDGE_HANDLE@InternalPolyhedra@@@@QAEXXZ 10059140 f i corelib_2009:dgPolyhedra.obj
 0001:00058ae0       ??0dgPolyhedra@@QAE@XZ     10059ae0 f   corelib_2009:dgPolyhedra.obj
 0001:00058b00       ??1dgPolyhedra@@UAE@XZ     10059b00 f   corelib_2009:dgPolyhedra.obj
 0001:00058b30       ?DeleteFace@dgPolyhedra@@QAEXPAVdgEdge@@@Z 10059b30 f   corelib_2009:dgPolyhedra.obj
 0001:00058ba0       ?DeleteDegenerateFaces@dgPolyhedra@@QAEXQBNHN@Z 10059ba0 f   corelib_2009:dgPolyhedra.obj
 0001:00058cd0       ?SwapInfo@dgPolyhedra@@QAEXAAV1@@Z 10059cd0 f   corelib_2009:dgPolyhedra.obj
 0001:000593b0       ?Update@dgPolyhedraDescriptor@@QAEXABVdgPolyhedra@@@Z 1005a3b0 f   corelib_2009:dgPolyhedra.obj
 0001:000594f0       ??_GdgPolyhedra@@UAEPAXI@Z 1005a4f0 f i corelib_2009:dgPolyhedra.obj
 0001:000594f0       ??_EdgPolyhedra@@UAEPAXI@Z 1005a4f0 f i corelib_2009:dgPolyhedra.obj
 0001:00059530       ?CollapseEdge@dgPolyhedra@@AAEPAVdgEdge@@PAV2@@Z 1005a530 f   corelib_2009:dgPolyhedra.obj
 0001:00059930       ?ChangeEdgeIncidentVertex@dgPolyhedra@@QAEXPAVdgEdge@@H@Z 1005a930 f   corelib_2009:dgPolyhedra.obj
 0001:00059a00       ?Insert@?$dgTree@VdgEdge@@_J@@QAEPAVdgTreeNode@1@ABVdgEdge@@_JAA_N@Z 1005aa00 f i corelib_2009:dgPolyhedra.obj
 0001:00059c40       ?EndFace@dgPolyhedra@@QAEXXZ 1005ac40 f   corelib_2009:dgPolyhedra.obj
 0001:00059c60       ?AddFace@dgPolyhedra@@QAEPAVdgEdge@@HQBHQB_J@Z 1005ac60 f   corelib_2009:dgPolyhedra.obj
 0001:00059f00       ?Optimize@dgPolyhedra@@QAEXQBNHN@Z 1005af00 f   corelib_2009:dgPolyhedra.obj
 0001:0005a650       ??0dgPolyhedra@@QAE@ABV0@@Z 1005b650 f   corelib_2009:dgPolyhedra.obj
 0001:0005a790       ?AddFace@dgPolyhedra@@QAEPAVdgEdge@@HQBH@Z 1005b790 f   corelib_2009:dgPolyhedra.obj
 0001:0005a7e0       ?AddFace@dgPolyhedra@@QAEPAVdgEdge@@HHH@Z 1005b7e0 f   corelib_2009:dgPolyhedra.obj
 0001:0005a830       ?AddHalfEdge@dgPolyhedra@@QAEPAVdgEdge@@HH@Z 1005b830 f   corelib_2009:dgPolyhedra.obj
 0001:0005a8c0       ?SpliteEdge@dgPolyhedra@@QAEXHPAVdgEdge@@@Z 1005b8c0 f   corelib_2009:dgPolyhedra.obj
 0001:0005a9b0       ?SpliteEdgeAndTriangulate@dgPolyhedra@@QAEXHPAVdgEdge@@@Z 1005b9b0 f   corelib_2009:dgPolyhedra.obj
 0001:0005aa90       ?GetConectedSurface@dgPolyhedra@@QBE_NAAV1@@Z 1005ba90 f   corelib_2009:dgPolyhedra.obj
 0001:0005ba10       ?TriangulateFace@dgPolyhedra@@QAE_NPAVdgEdge@@QBNHAAVdgVector@@@Z 1005ca10 f   corelib_2009:dgPolyhedra.obj
 0001:0005ba90       ?Triangulate@dgPolyhedra@@QAEXQBNHPAV1@@Z 1005ca90 f   corelib_2009:dgPolyhedra.obj
 0001:0005bc70       ?ConvexPartition@dgPolyhedra@@QAEXQBNHPAV1@@Z 1005cc70 f   corelib_2009:dgPolyhedra.obj
 0001:0005bcf0       ??0dgStackBase@@IAE@H@Z    1005ccf0 f   corelib_2009:dgStack.obj
 0001:0005bd10       ??1dgStackBase@@IAE@XZ     1005cd10 f   corelib_2009:dgStack.obj
 0001:0005bd20       ?ForAllSectorsSimd@dgPolygonSoupDatabase@@MBEXABVdgVector@@0P6A?AW4dgIntersectStatus@@PAXQBNHQBHH@ZQAX@Z 1005cd20 f i corelib_2009:dgAABBPolygonSoup.obj
 0001:0005bd20       ?ForAllSectors@dgPolygonSoupDatabase@@MBEXABVdgVector@@0P6A?AW4dgIntersectStatus@@PAXQBNHQBHH@ZQAX@Z 1005cd20 f i corelib_2009:dgAABBPolygonSoup.obj
 0001:0005bd30       ?ForAllSectorsSimd@dgAABBTree@@QBEXQBHQBNABVdgVector@@2P6A?AW4dgIntersectStatus@@PAX1H0H@Z3@Z 1005cd30 f i corelib_2009:dgAABBPolygonSoup.obj
 0001:0005be90       ?ForAllSectors@dgAABBTree@@QBEXQBHQBNABVdgVector@@2P6A?AW4dgIntersectStatus@@PAX1H0H@Z3@Z 1005ce90 f i corelib_2009:dgAABBPolygonSoup.obj
 0001:0005c1b0       ?SortBoxes@dgAABBTree@@ABEXQAV1@HHQBVdgTriplex@@@Z 1005d1b0 f i corelib_2009:dgAABBPolygonSoup.obj
 0001:0005c410       ??0dgAABBPolygonSoup@@IAE@XZ 1005d410 f   corelib_2009:dgAABBPolygonSoup.obj
 0001:0005c430       ??1dgAABBPolygonSoup@@MAE@XZ 1005d430 f   corelib_2009:dgAABBPolygonSoup.obj
 0001:0005c470       ?ForAllSectorsSimd@dgAABBPolygonSoup@@MBEXABVdgVector@@0P6A?AW4dgIntersectStatus@@PAXQBNHQBHH@ZQAX@Z 1005d470 f   corelib_2009:dgAABBPolygonSoup.obj
 0001:0005c4a0       ?ForAllSectors@dgAABBPolygonSoup@@MBEXABVdgVector@@0P6A?AW4dgIntersectStatus@@PAXQBNHQBHH@ZQAX@Z 1005d4a0 f   corelib_2009:dgAABBPolygonSoup.obj
 0001:0005c4d0       ?Serialize@dgAABBPolygonSoup@@UBEXP6AXPAXPBXI@Z0@Z 1005d4d0 f   corelib_2009:dgAABBPolygonSoup.obj
 0001:0005c550       ?Deserialize@dgAABBPolygonSoup@@UAEXP6AXPAX0I@Z0@Z 1005d550 f   corelib_2009:dgAABBPolygonSoup.obj
 0001:0005c620       ?Resize@?$dgArray@VdgTriplex@@@@QBEXH@Z 1005d620 f i corelib_2009:dgAABBPolygonSoup.obj
 0001:0005c730       ?Resize@?$dgArray@H@@QBEXH@Z 1005d730 f i corelib_2009:dgAABBPolygonSoup.obj
 0001:0005c7e0       ??_EdgPolygonSoupDatabase@@MAEPAXI@Z 1005d7e0 f i corelib_2009:dgAABBPolygonSoup.obj
 0001:0005c7e0       ??_GdgPolygonSoupDatabase@@MAEPAXI@Z 1005d7e0 f i corelib_2009:dgAABBPolygonSoup.obj
 0001:0005c810       ?CalcExtends@dgAABBTree@@QAEXQAVdgTriplex@@HQBH@Z 1005d810 f i corelib_2009:dgAABBPolygonSoup.obj
 0001:0005cc30       ?ForAllSectorsRayHit@dgAABBTree@@QBEXABVFastRayTest@@PBHPBNP6ANPAXQBNHQBHH@ZQAX@Z 1005dc30 f i corelib_2009:dgAABBPolygonSoup.obj
 0001:0005cf10       ?ForAllSectorsSupportVertex@dgAABBTree@@QBE?AVdgVector@@ABV2@QBHQBN@Z 1005df10 f i corelib_2009:dgAABBPolygonSoup.obj
 0001:0005d740       ?CalcBoxFromBoxArray@dgAABBTree@@AAEXQBV1@HPAVdgTriplex@@AAH@Z 1005e740 f i corelib_2009:dgAABBPolygonSoup.obj
 0001:0005dbe0       ?GetAxis@dgAABBTree@@ABEHQBV1@HQBVdgTriplex@@@Z 1005ebe0 f i corelib_2009:dgAABBPolygonSoup.obj
 0001:0005e020       ?SpliteBoxArray@dgAABBTree@@ABEHQAV1@HQBVdgTriplex@@@Z 1005f020 f i corelib_2009:dgAABBPolygonSoup.obj
 0001:0005e340       ??_GdgAABBPolygonSoup@@MAEPAXI@Z 1005f340 f i corelib_2009:dgAABBPolygonSoup.obj
 0001:0005e340       ??_EdgAABBPolygonSoup@@MAEPAXI@Z 1005f340 f i corelib_2009:dgAABBPolygonSoup.obj
 0001:0005e390       ?ForAllSectorsSupportVectex@dgAABBPolygonSoup@@MBE?AVdgVector@@ABV2@@Z 1005f390 f   corelib_2009:dgAABBPolygonSoup.obj
 0001:0005e3d0       ?GetAABB@dgAABBPolygonSoup@@UBEXAAVdgVector@@0@Z 1005f3d0 f   corelib_2009:dgAABBPolygonSoup.obj
 0001:0005e480       ?ForAllSectorsRayHit@dgAABBPolygonSoup@@MBEXABVFastRayTest@@P6ANPAXQBNHQBHH@ZQAX@Z 1005f480 f   corelib_2009:dgAABBPolygonSoup.obj
 0001:0005e4b0       ?CollectMyFaces@dgAABBPolygonSoup@@CA?AW4dgIntersectStatus@@PAXQBNHQBHH@Z 1005f4b0 f   corelib_2009:dgAABBPolygonSoup.obj
 0001:0005e630       ?Build@dgAABBTree@@QAEXPAV1@QAV1@QBV1@HPBV1@AAHQAVdgTriplex@@4@Z 1005f630 f i corelib_2009:dgAABBPolygonSoup.obj
 0001:0005e750       ?CollectAllFaces@dgAABBPolygonSoup@@CA?AW4dgIntersectStatus@@PAXQBNHQBHH@Z 1005f750 f   corelib_2009:dgAABBPolygonSoup.obj
 0001:0005ec90       ?Create@dgAABBPolygonSoup@@IAEXABVdgPolygonSoupDatabaseBuilder@@@Z 1005fc90 f   corelib_2009:dgAABBPolygonSoup.obj
 0001:0005f1f0       ?AddFilterFace@dgPolySoupFilterAllocator@@QAEHIQAH@Z 100601f0 f i corelib_2009:dgPolygonSoupBuilder.obj
 0001:0005f2a0       ?Begin@dgPolygonSoupDatabaseBuilder@@QAEXXZ 100602a0 f   corelib_2009:dgPolygonSoupBuilder.obj
 0001:0005f2b0       ??_EdgPolySoupFilterAllocator@@UAEPAXI@Z 100602b0 f i corelib_2009:dgPolygonSoupBuilder.obj
 0001:0005f2b0       ??_GdgPolySoupFilterAllocator@@UAEPAXI@Z 100602b0 f i corelib_2009:dgPolygonSoupBuilder.obj
 0001:0005f2e0       ??1dgPolygonSoupDatabaseBuilder@@QAE@XZ 100602e0 f   corelib_2009:dgPolygonSoupBuilder.obj
 0001:0005f340       ??A?$dgArray@VdgTriplex@@@@QAEAAVdgTriplex@@H@Z 10060340 f i corelib_2009:dgPolygonSoupBuilder.obj
 0001:0005f370       ??0dgPolygonSoupDatabaseBuilder@@QAE@XZ 10060370 f   corelib_2009:dgPolygonSoupBuilder.obj
 0001:0005f3c0       ?FilterFace@dgPolygonSoupDatabaseBuilder@@AAEHHQAH@Z 100603c0 f   corelib_2009:dgPolygonSoupBuilder.obj
 0001:0005fc20       ?AddConvexFace@dgPolygonSoupDatabaseBuilder@@AAEHHQAH0@Z 10060c20 f   corelib_2009:dgPolygonSoupBuilder.obj
 0001:000604d0       ?AddMesh@dgPolygonSoupDatabaseBuilder@@QAEXQBNHHHQBH11ABVdgMatrix@@@Z 100614d0 f   corelib_2009:dgPolygonSoupBuilder.obj
 0001:000607a0       ?OptimizeByGroupID@dgPolygonSoupDatabaseBuilder@@AAEXAAV1@HH0@Z 100617a0 f   corelib_2009:dgPolygonSoupBuilder.obj
 0001:00060c90       ?OptimizeByIndividualFaces@dgPolygonSoupDatabaseBuilder@@AAEXXZ 10061c90 f   corelib_2009:dgPolygonSoupBuilder.obj
 0001:00060dd0       ?Insert@?$dgTree@HH@@QAEPAVdgTreeNode@1@ABHHAA_N@Z 10061dd0 f i corelib_2009:dgPolygonSoupBuilder.obj
 0001:00060ea0       ?OptimizeByGroupID@dgPolygonSoupDatabaseBuilder@@AAEXXZ 10061ea0 f   corelib_2009:dgPolygonSoupBuilder.obj
 0001:00061630       ?EndAndOptimize@dgPolygonSoupDatabaseBuilder@@AAEX_N@Z 10062630 f   corelib_2009:dgPolygonSoupBuilder.obj
 0001:00061760       ?End@dgPolygonSoupDatabaseBuilder@@QAEX_N@Z 10062760 f   corelib_2009:dgPolygonSoupBuilder.obj
 0001:00062830       ?BoxTestSimd@FastRayTest@@QBEHABVdgVector@@0@Z 10063830 f   corelib_2009:dgIntersections.obj
 0001:00062840       ?PolygonIntersectSimd@FastRayTest@@QBENABVdgVector@@QBNHQBHH@Z 10063840 f   corelib_2009:dgIntersections.obj
 0001:00062850       ??0FastRayTest@@QAE@ABVdgVector@@0@Z 10063850 f   corelib_2009:dgIntersections.obj
 0001:00062a70       ?BoxTest@FastRayTest@@QBEHABVdgVector@@0@Z 10063a70 f   corelib_2009:dgIntersections.obj
 0001:00062b20       ?PolygonIntersect@FastRayTest@@QBENABVdgVector@@QBNHQBHH@Z 10063b20 f   corelib_2009:dgIntersections.obj
 0001:00062ce0       ?dgRayBoxClip@@YA_NAAVdgVector@@0ABV1@1@Z 10063ce0 f   corelib_2009:dgIntersections.obj
 0001:00062eb0       ?dgPointToRayDistance@@YA?AVdgVector@@ABV1@00@Z 10063eb0 f   corelib_2009:dgIntersections.obj
 0001:00062f50       ?dgRayToRayDistance@@YAXABVdgVector@@000AAV1@1@Z 10063f50 f   corelib_2009:dgIntersections.obj
 0001:00063270       ?dgPointToTriangleDistance@@YA?AVdgBigVector@@ABV1@000@Z 10064270 f   corelib_2009:dgIntersections.obj
 0001:00063270       ?dgPointToTriangleDistance@@YA?AVdgVector@@ABV1@000@Z 10064270 f   corelib_2009:dgIntersections.obj
 0001:00063600       ??0dgQuaternion@@QAE@ABVdgVector@@N@Z 10064600 f   corelib_2009:dgQuaternion.obj
 0001:00063650       ??0dgQuaternion@@QAE@ABVdgMatrix@@@Z 10064650 f   corelib_2009:dgQuaternion.obj
 0001:00063772       __initp_misc_winxfltr      10064772 f   LIBCMT:winxfltr.obj
 0001:00063772       __fpclear                  10064772 f   LIBCMT:_fpinit_.obj
 0001:00063773       __cfltcvt_init             10064773 f   LIBCMT:_fpinit_.obj
 0001:000637d3       __fpmath                   100647d3 f   LIBCMT:_fpinit_.obj
 0001:00063800       _ceil                      10064800 f   LIBCMT:_ceil_pentium4_.obj
 0001:00063840       __ceil_pentium4            10064840 f   LIBCMT:_ceil_pentium4_.obj
 0001:00063920       __ftol2_sse                10064920 f   LIBCMT:ftol2.obj
 0001:00063929       __ftol2_pentium4           10064929 f   LIBCMT:ftol2.obj
 0001:0006393c       __ftol2_sse_excpt          1006493c f   LIBCMT:ftol2.obj
 0001:00063956       __ftol2                    10064956 f   LIBCMT:ftol2.obj
 0001:000639cb       _V6_HeapAlloc              100649cb f   LIBCMT:malloc.obj
 0001:00063a1a       _malloc                    10064a1a f   LIBCMT:malloc.obj
 0001:00063ae4       _free                      10064ae4 f   LIBCMT:free.obj
 0001:00063b80       _memset                    10064b80 f   LIBCMT:memset.obj
 0001:00063c00       _memcpy                    10064c00 f   LIBCMT:memcpy.obj
 0001:00063f70       __chkstk                   10064f70 f   LIBCMT:chkstk.obj
 0001:00063f70       __alloca_probe             10064f70     LIBCMT:chkstk.obj
 0001:00063f9b       __CRT_INIT@12              10064f9b f   LIBCMT:dllcrt0.obj
 0001:000641c6       __DllMainCRTStartup@12     100651c6 f   LIBCMT:dllcrt0.obj
 0001:000641e9       _sprintf                   100651e9 f   LIBCMT:sprintf.obj
 0001:00064394       __control87                10065394 f i LIBCMT:_ieee87_.obj
 0001:000646a3       __controlfp                100656a3 f   LIBCMT:_ieee87_.obj
 0001:000649b5       __purecall                 100659b5 f   LIBCMT:purevirt.obj
 0001:000649e0       _pow                       100659e0 f   LIBCMT:_pow_.obj
 0001:00064a20       __CIpow                    10065a20 f   LIBCMT:_pow_.obj
 0001:00064a5b       __CIpow_default            10065a5b f   LIBCMT:_pow_.obj
 0001:00064a74       __pow_default              10065a74     LIBCMT:_pow_.obj
 0001:00064c70       _log                       10065c70 f   LIBCMT:_log_.obj
 0001:00064cb0       __CIlog                    10065cb0 f   LIBCMT:_log_.obj
 0001:00064ceb       __CIlog_default            10065ceb f   LIBCMT:_log_.obj
 0001:00064cff       __log_default              10065cff     LIBCMT:_log_.obj
 0001:00064dc0       __CIsqrt                   10065dc0 f   LIBCMT:_sqrt_.obj
 0001:00064dd4       _sqrt                      10065dd4     LIBCMT:_sqrt_.obj
 0001:00064f34       ___onexitinit              10065f34 f   LIBCMT:onexit.obj
 0001:00064f65       __onexit                   10065f65 f   LIBCMT:onexit.obj
 0001:00064fa1       _atexit                    10065fa1 f   LIBCMT:onexit.obj
 0001:00064fb8       __endthreadex              10065fb8 f   LIBCMT:threadex.obj
 0001:000650b9       __beginthreadex            100660b9 f   LIBCMT:threadex.obj
 0001:00065170       __allmul                   10066170 f   LIBCMT:llmul.obj
 0001:000651a4       ??0_LocaleUpdate@@QAE@PAUlocaleinfo_struct@@@Z 100661a4 f i LIBCMT:cvt.obj
 0001:0006522b       __forcdecpt_l              1006622b f   LIBCMT:cvt.obj
 0001:0006529e       __cropzeros_l              1006629e f   LIBCMT:cvt.obj
 0001:00065320       __positive                 10066320 f   LIBCMT:cvt.obj
 0001:0006533c       __fassign_l                1006633c f   LIBCMT:cvt.obj
 0001:0006537e       __fassign                  1006637e f   LIBCMT:cvt.obj
 0001:000653b7       __forcdecpt                100663b7 f   LIBCMT:cvt.obj
 0001:000653ca       __cropzeros                100663ca f   LIBCMT:cvt.obj
 0001:0006554c       __cftoe_l                  1006654c f   LIBCMT:cvt.obj
 0001:0006561c       __cftoe                    1006661c f   LIBCMT:cvt.obj
 0001:0006563c       __cftoa_l                  1006663c f   LIBCMT:cvt.obj
 0001:00065aa6       __cftof_l                  10066aa6 f   LIBCMT:cvt.obj
 0001:00065b61       __cftog_l                  10066b61 f   LIBCMT:cvt.obj
 0001:00065c5b       __cfltcvt_l                10066c5b f   LIBCMT:cvt.obj
 0001:00065ce3       __cfltcvt                  10066ce3 f   LIBCMT:cvt.obj
 0001:00065d06       __initp_misc_cfltcvt_tab   10066d06 f   LIBCMT:cmiscdat.obj
 0001:00065d27       __setdefaultprecision      10066d27 f   LIBCMT:fp8.obj
 0001:00065d52       __ms_p5_test_fdiv          10066d52 f   LIBCMT:_testfdiv_.obj
 0001:00065d90       __ms_p5_mp_test_fdiv       10066d90 f   LIBCMT:_testfdiv_.obj
 0001:00065db9       ___libm_error_support      10066db9 f   LIBCMT:_libm_error_.obj
 0001:00066069       __sse2_mathfcns_init       10067069 f   LIBCMT:_mathfcns_.obj
 0001:0006607d       __ceil_default             1006707d f   LIBCMT:_ceil_.obj
 0001:00066152       __mtinitlocks              10067152 f   LIBCMT:mlock.obj
 0001:0006619d       __mtdeletelocks            1006719d f   LIBCMT:mlock.obj
 0001:000661f4       __unlock                   100671f4 f   LIBCMT:mlock.obj
 0001:0006620b       __mtinitlocknum            1006720b f   LIBCMT:mlock.obj
 0001:000662ce       __lock                     100672ce f   LIBCMT:mlock.obj
 0001:00066301       ___sbh_find_block          10067301 f   LIBCMT:sbheap.obj
 0001:00066331       ___sbh_free_block          10067331 f   LIBCMT:sbheap.obj
 0001:00066647       ___sbh_alloc_new_region    10067647 f   LIBCMT:sbheap.obj
 0001:000666f7       ___sbh_alloc_new_group     100676f7 f   LIBCMT:sbheap.obj
 0001:000667ff       ___sbh_resize_block        100677ff f   LIBCMT:sbheap.obj
 0001:00066ae0       ___sbh_alloc_block         10067ae0 f   LIBCMT:sbheap.obj
 0001:00066dc8       __SEH_prolog4              10067dc8 f   LIBCMT:sehprolg4.obj
 0001:00066e0d       __SEH_epilog4              10067e0d f   LIBCMT:sehprolg4.obj
 0001:00066e30       __except_handler4          10067e30 f   LIBCMT:chandler4.obj
 0001:00066fbc       __heap_init                10067fbc f   LIBCMT:heapinit.obj
 0001:00066fec       __heap_term                10067fec f   LIBCMT:heapinit.obj
 0001:00067060       __crt_waiting_on_module_handle 10068060 f   LIBCMT:crt0dat.obj
 0001:00067090       __amsg_exit                10068090 f   LIBCMT:crt0dat.obj
 0001:000670b9       ___crtCorExitProcess       100680b9 f   LIBCMT:crt0dat.obj
 0001:000670e4       ___crtExitProcess          100680e4 f   LIBCMT:crt0dat.obj
 0001:000670fc       __lockexit                 100680fc f   LIBCMT:crt0dat.obj
 0001:00067105       __unlockexit               10068105 f   LIBCMT:crt0dat.obj
 0001:0006712b       __initterm_e               1006812b f   LIBCMT:crt0dat.obj
 0001:0006714f       __cinit                    1006814f f   LIBCMT:crt0dat.obj
 0001:00067300       __exit                     10068300 f   LIBCMT:crt0dat.obj
 0001:00067316       __cexit                    10068316 f   LIBCMT:crt0dat.obj
 0001:00067325       __init_pointers            10068325 f   LIBCMT:crt0dat.obj
 0001:00067373       __NMSG_WRITE               10068373 f   LIBCMT:crt0msg.obj
 0001:0006751e       __FF_MSGBANNER             1006851e f   LIBCMT:crt0msg.obj
 0001:00067557       __get_errno_from_oserr     10068557 f   LIBCMT:dosmap.obj
 0001:00067599       __errno                    10068599 f   LIBCMT:dosmap.obj
 0001:000675ac       ___doserrno                100685ac f   LIBCMT:dosmap.obj
 0001:000675bf       __dosmaperr                100685bf f   LIBCMT:dosmap.obj
 0001:000675e2       __initp_heap_handler       100685e2 f   LIBCMT:handler.obj
 0001:000675f1       __callnewh                 100685f1 f   LIBCMT:handler.obj
 0001:00067670       __VEC_memzero              10068670 f   LIBCMT:p4_memset.obj
 0001:00067786       __VEC_memcpy               10068786 f   LIBCMT:p4_memcpy.obj
 0001:00067869       __encode_pointer           10068869 f   LIBCMT:tidtable.obj
 0001:000678db       __encoded_null             100688db f   LIBCMT:tidtable.obj
 0001:000678e4       __decode_pointer           100688e4 f   LIBCMT:tidtable.obj
 0001:00067956       ___crtTlsAlloc@4           10068956 f   LIBCMT:tidtable.obj
 0001:0006795f       ___fls_getvalue@4          1006895f f   LIBCMT:tidtable.obj
 0001:00067979       ___get_flsindex            10068979 f   LIBCMT:tidtable.obj
 0001:0006797f       ___set_flsgetvalue         1006897f f   LIBCMT:tidtable.obj
 0001:000679b3       ___fls_setvalue@8          100689b3 f   LIBCMT:tidtable.obj
 0001:000679d0       __mtterm                   100689d0 f   LIBCMT:tidtable.obj
 0001:00067a0d       __initptd                  10068a0d f   LIBCMT:tidtable.obj
 0001:00067af4       __getptd_noexit            10068af4 f   LIBCMT:tidtable.obj
 0001:00067b6d       __getptd                   10068b6d f   LIBCMT:tidtable.obj
 0001:00067b87       __freefls@4                10068b87 f   LIBCMT:tidtable.obj
 0001:00067cb6       __freeptd                  10068cb6 f   LIBCMT:tidtable.obj
 0001:00067d24       __mtinit                   10068d24 f   LIBCMT:tidtable.obj
 0001:00067eb1       __malloc_crt               10068eb1 f   LIBCMT:crtheap.obj
 0001:00067ef6       __calloc_crt               10068ef6 f   LIBCMT:crtheap.obj
 0001:00067f42       __realloc_crt              10068f42 f   LIBCMT:crtheap.obj
 0001:00067f90       __ioinit                   10068f90 f   LIBCMT:ioinit.obj
 0001:000681e4       __ioterm                   100691e4 f   LIBCMT:ioinit.obj
 0001:00068232       __setenvp                  10069232 f   LIBCMT:stdenvp.obj
 0001:000684aa       __setargv                  100694aa f   LIBCMT:stdargv.obj
 0001:00068565       ___crtGetEnvironmentStringsA 10069565 f   LIBCMT:a_env.obj
 0001:0006869c       __RTC_Initialize           1006969c f   LIBCMT:_initsect_.obj
 0001:000686c2       __RTC_Terminate            100696c2 f   LIBCMT:_initsect_.obj
 0001:000686e8       __XcptFilter               100696e8 f   LIBCMT:winxfltr.obj
 0001:00068848       ___CppXcptFilter           10069848 f   LIBCMT:winxfltr.obj
 0001:00068868       ___security_init_cookie    10069868 f   LIBCMT:gs_support.obj
 0001:000688fe       __flsbuf                   100698fe f   LIBCMT:_flsbuf.obj
 0001:00068b08       __output_l                 10069b08 f   LIBCMT:output.obj
 0001:000696a0       __initp_misc_invarg        1006a6a0 f   LIBCMT:invarg.obj
 0001:000696af       __invoke_watson            1006a6af f   LIBCMT:invarg.obj
 0001:000697d7       __invalid_parameter        1006a7d7 f   LIBCMT:invarg.obj
 0001:000697fd       __controlfp_s              1006a7fd f   LIBCMT:_contrlfp_.obj
 0001:00069869       __statfp                   1006a869 f   LIBCMT:_fpctrl_.obj
 0001:00069879       __clrfp                    1006a879 f   LIBCMT:_fpctrl_.obj
 0001:0006988a       __ctrlfp                   1006a88a f   LIBCMT:_fpctrl_.obj
 0001:000698b3       __set_statfp               1006a8b3 f   LIBCMT:_fpctrl_.obj
 0001:0006990b       ___set_fpsr_sse2           1006a90b f   LIBCMT:_fpctrl_.obj
 0001:0006997d       __initp_misc_winsig        1006a97d f   LIBCMT:winsig.obj
 0001:000699d2       ___get_sigabrt             1006a9d2 f   LIBCMT:winsig.obj
 0001:000699df       _raise                     1006a9df f   LIBCMT:winsig.obj
 0001:00069b8f       _abort                     1006ab8f f   LIBCMT:abort.obj
 0001:00069ca6       __set_abort_behavior       1006aca6 f   LIBCMT:abort.obj
 0001:00069cc7       __initp_misc_purevirt      1006acc7 f   LIBCMT:inithelp.obj
 0001:00069ce0       __CIpow_pentium4           1006ace0 f   LIBCMT:_pow_pentium4_.obj
 0001:00069cf9       __pow_pentium4             1006acf9     LIBCMT:_pow_pentium4_.obj
 0001:0006a851       __fFEXP                    1006b851     LIBCMT:_87tran_.obj
 0001:0006a8b8       __rtinfpopse               1006b8b8     LIBCMT:_87tran_.obj
 0001:0006a8ba       __rtinfnpopse              1006b8ba     LIBCMT:_87tran_.obj
 0001:0006a8ca       __fFLN                     1006b8ca     LIBCMT:_87tran_.obj
 0001:0006a97f       __rtinfpop                 1006b97f     LIBCMT:_87tran_.obj
 0001:0006a981       __rtinfnpop                1006b981     LIBCMT:_87tran_.obj
 0001:0006a99e       __ffexpm1                  1006b99e     LIBCMT:_87tran_.obj
 0001:0006aa50       __trandisp1                1006ba50 f   LIBCMT:_87disp_.obj
 0001:0006aab7       __trandisp2                1006bab7 f   LIBCMT:_87disp_.obj
 0001:0006ab43       __rttospopde               1006bb43     LIBCMT:_87disp_.obj
 0001:0006ab48       __rttospop                 1006bb48     LIBCMT:_87disp_.obj
 0001:0006ab4a       __rtnospop                 1006bb4a     LIBCMT:_87disp_.obj
 0001:0006ab4c       __rttosnpop                1006bb4c     LIBCMT:_87disp_.obj
 0001:0006ab4d       __rtnospopde               1006bb4d     LIBCMT:_87disp_.obj
 0001:0006ab54       __rtzeropop                1006bb54     LIBCMT:_87disp_.obj
 0001:0006ab56       __rtzeronpop               1006bb56     LIBCMT:_87disp_.obj
 0001:0006ab5b       __rtonepop                 1006bb5b     LIBCMT:_87disp_.obj
 0001:0006ab5d       __rtonenpop                1006bb5d     LIBCMT:_87disp_.obj
 0001:0006ab62       __tosnan1                  1006bb62     LIBCMT:_87disp_.obj
 0001:0006ab8d       __nosnan2                  1006bb8d     LIBCMT:_87disp_.obj
 0001:0006ab8f       __tosnan2                  1006bb8f     LIBCMT:_87disp_.obj
 0001:0006abb7       __nan2                     1006bbb7     LIBCMT:_87disp_.obj
 0001:0006abf6       __rtindfpop                1006bbf6     LIBCMT:_87disp_.obj
 0001:0006abf8       __rtindfnpop               1006bbf8     LIBCMT:_87disp_.obj
 0001:0006ac09       __rttosnpopde              1006bc09     LIBCMT:_87disp_.obj
 0001:0006ac13       __rtchsifneg               1006bc13     LIBCMT:_87disp_.obj
 0001:0006ac20       __startTwoArgErrorHandling 1006bc20 f   LIBCMT:_genexcep_.obj
 0001:0006ac37       __startOneArgErrorHandling 1006bc37 f   LIBCMT:_genexcep_.obj
 0001:0006ac80       __twoToTOS                 1006bc80 f   LIBCMT:_common_.obj
 0001:0006ac95       __load_CW                  1006bc95 f   LIBCMT:_common_.obj
 0001:0006acac       __convertTOStoQNaN         1006bcac f   LIBCMT:_common_.obj
 0001:0006acc5       __fload_withFB             1006bcc5 f   LIBCMT:_common_.obj
 0001:0006ad08       __checkTOS_withFB          1006bd08 f   LIBCMT:_common_.obj
 0001:0006ad1e       __fast_exit                1006bd1e f   LIBCMT:_common_.obj
 0001:0006ad2b       __math_exit                1006bd2b f   LIBCMT:_common_.obj
 0001:0006ad55       __check_overflow_exit      1006bd55 f   LIBCMT:_common_.obj
 0001:0006ad69       __check_range_exit         1006bd69 f   LIBCMT:_common_.obj
 0001:0006ae0c       __d_inttype                1006be0c f   LIBCMT:_powhlp_.obj
 0001:0006ae72       __powhlp                   1006be72 f   LIBCMT:_powhlp_.obj
 0001:0006afc0       __CIlog_pentium4           1006bfc0 f   LIBCMT:_log_pentium4_.obj
 0001:0006afd8       __log_pentium4             1006bfd8     LIBCMT:_log_pentium4_.obj
 0001:0006b230       __msize                    1006c230 f   LIBCMT:msize.obj
 0001:0006b2e0       __ValidateImageBase        1006c2e0 f   LIBCMT:pesect.obj
 0001:0006b320       __FindPESection            1006c320 f   LIBCMT:pesect.obj
 0001:0006b370       __IsNonwritableInCurrentImage 1006c370 f   LIBCMT:pesect.obj
 0001:0006b430       _strrchr                   1006c430 f   LIBCMT:strrchr.obj
 0001:0006b683       ___updatetmbcinfo          1006c683 f   LIBCMT:mbctype.obj
 0001:0006b7a3       __setmbcp_nolock           1006c7a3 f   LIBCMT:mbctype.obj
 0001:0006b988       __setmbcp                  1006c988 f   LIBCMT:mbctype.obj
 0001:0006bb22       ___initmbctable            1006cb22 f   LIBCMT:mbctype.obj
 0001:0006bb40       ___freetlocinfo            1006cb40 f   LIBCMT:setlocal.obj
 0001:0006bc89       ___addlocaleref            1006cc89 f   LIBCMT:setlocal.obj
 0001:0006bd18       ___removelocaleref         1006cd18 f   LIBCMT:setlocal.obj
 0001:0006bdef       ___updatetlocinfo          1006cdef f   LIBCMT:setlocal.obj
 0001:0006be65       __isdigit_l                1006ce65 f i LIBCMT:_ctype.obj
 0001:0006beb6       _isdigit                   1006ceb6 f i LIBCMT:_ctype.obj
 0001:0006bee4       __tolower_l                1006cee4 f   LIBCMT:tolower.obj
 0001:0006bff9       _tolower                   1006cff9 f   LIBCMT:tolower.obj
 0001:0006c025       __atodbl_l                 1006d025 f   LIBCMT:atodbl.obj
 0001:0006c0cd       __atoflt_l                 1006d0cd f   LIBCMT:atodbl.obj
 0001:0006c180       _memmove                   1006d180 f   LIBCMT:memmove.obj
 0001:0006c4f0       _strlen                    1006d4f0 f   LIBCMT:strlen.obj
 0001:0006c57b       _strcpy_s                  1006d57b f   LIBCMT:strcpy_s.obj
 0001:0006c5e3       __fptostr                  1006d5e3 f   LIBCMT:_fptostr.obj
 0001:0006c6a2       ___dtold                   1006d6a2 f   LIBCMT:_cfout_.obj
 0001:0006c75f       __fltout2                  1006d75f f   LIBCMT:_cfout_.obj
 0001:0006c7ef       @__security_check_cookie@4 1006d7ef f   LIBCMT:secchk.obj
 0001:0006c800       __alldvrm                  1006d800 f   LIBCMT:lldvrm.obj
 0001:0006c8e0       __aullshr                  1006d8e0 f   LIBCMT:ullshr.obj
 0001:0006c8ff       __fptrap                   1006d8ff f   LIBCMT:crt0fp.obj
 0001:0006c908       __matherr                  1006d908 f   LIBCMT:_matherr_.obj
 0001:0006c95b       __get_sse2_info            1006d95b f   LIBCMT:cpu_disp.obj
 0001:0006c9bd       ___sse2_available_init     1006d9bd f   LIBCMT:cpu_disp.obj
 0001:0006c9ca       __raise_exc_ex             1006d9ca f   LIBCMT:_fpexcept_.obj
 0001:0006cca6       __raise_exc                1006dca6 f   LIBCMT:_fpexcept_.obj
 0001:0006ccc9       __handle_exc               1006dcc9 f   LIBCMT:_fpexcept_.obj
 0001:0006ceab       __set_errno_from_matherr   1006deab f   LIBCMT:_fpexcept_.obj
 0001:0006ced8       __errcode                  1006ded8 f   LIBCMT:_fpexcept_.obj
 0001:0006cf0c       __umatherr                 1006df0c f   LIBCMT:_fpexcept_.obj
 0001:0006cfac       __handle_qnan1             1006dfac f   LIBCMT:_fpexcept_.obj
 0001:0006d001       __except1                  1006e001 f   LIBCMT:_fpexcept_.obj
 0001:0006d0ca       __frnd                     1006e0ca f   LIBCMT:_frnd_.obj
 0001:0006d0de       __set_exp                  1006e0de f   LIBCMT:_util_.obj
 0001:0006d10a       __sptype                   1006e10a f   LIBCMT:_util_.obj
 0001:0006d16a       __decomp                   1006e16a f   LIBCMT:_util_.obj
 0001:0006d223       __initp_misc_initcrit      1006e223 f   LIBCMT:initcrit.obj
 0001:0006d232       ___crtInitCritSecAndSpinCount 1006e232 f   LIBCMT:initcrit.obj
 0001:0006d294       __local_unwind4            1006e294 f   LIBCMT:exsup4.obj
 0001:0006d36a       __seh_longjmp_unwind4@4    1006e36a f   LIBCMT:exsup4.obj
 0001:0006d386       @_EH4_CallFilterFunc@8     1006e386 f   LIBCMT:exsup4.obj
 0001:0006d39d       @_EH4_TransferToHandler@8  1006e39d f   LIBCMT:exsup4.obj
 0001:0006d3b6       @_EH4_GlobalUnwind@4       1006e3b6 f   LIBCMT:exsup4.obj
 0001:0006d3d0       @_EH4_LocalUnwind@16       1006e3d0 f   LIBCMT:exsup4.obj
 0001:0006d3e7       ?terminate@@YAXXZ          1006e3e7 f   LIBCMT:hooks.obj
 0001:0006d420       __initp_eh_hooks           1006e420 f   LIBCMT:hooks.obj
 0001:0006d431       __initp_misc_rand_s        1006e431 f   LIBCMT:rand_s.obj
 0001:0006d440       ___crtMessageBoxA          1006e440 f   LIBCMT:crtmbox.obj
 0001:0006d5a9       _strcat_s                  1006e5a9 f   LIBCMT:strcat_s.obj
 0001:0006d61d       _strncpy_s                 1006e61d f   LIBCMT:strncpy_s.obj
 0001:0006d6d2       __set_error_mode           1006e6d2 f   LIBCMT:errmode.obj
 0001:0006d71d       __calloc_impl              1006e71d f   LIBCMT:calloc_impl.obj
 0001:0006d83b       _realloc                   1006e83b f   LIBCMT:realloc.obj
 0001:0006daa9       __ismbblead                1006eaa9 f   LIBCMT:ismbbyte.obj
 0001:0006dac1       __lseeki64_nolock          1006eac1 f   LIBCMT:lseeki64.obj
 0001:0006db46       __lseeki64                 1006eb46 f   LIBCMT:lseeki64.obj
 0001:0006dc5f       __write_nolock             1006ec5f f   LIBCMT:write.obj
 0001:0006e392       __write                    1006f392 f   LIBCMT:write.obj
 0001:0006e46e       __getbuf                   1006f46e f   LIBCMT:_getbuf.obj
 0001:0006e4b7       __isatty                   1006f4b7 f   LIBCMT:isatty.obj
 0001:0006e51b       ___iob_func                1006f51b f   LIBCMT:_file.obj
 0001:0006e521       ___initstdio               1006f521 f   LIBCMT:_file.obj
 0001:0006e5d2       ___endstdio                1006f5d2 f   LIBCMT:_file.obj
 0001:0006e5f2       __lock_file                1006f5f2 f   LIBCMT:_file.obj
 0001:0006e633       __lock_file2               1006f633 f   LIBCMT:_file.obj
 0001:0006e665       __unlock_file              1006f665 f   LIBCMT:_file.obj
 0001:0006e6a1       __unlock_file2             1006f6a1 f   LIBCMT:_file.obj
 0001:0006e6d0       __fileno                   1006f6d0 f   LIBCMT:fileno.obj
 0001:0006e702       __get_printf_count_output  1006f702 f   LIBCMT:printf.obj
 0001:0006e718       __wctomb_s_l               1006f718 f   LIBCMT:wctomb.obj
 0001:0006e884       _wctomb_s                  1006f884 f   LIBCMT:wctomb.obj
 0001:0006e8a1       __isleadbyte_l             1006f8a1 f i LIBCMT:_wctype.obj
 0001:0006e8d9       _isleadbyte                1006f8d9 f i LIBCMT:_wctype.obj
 0001:0006e8f0       __aulldvrm                 1006f8f0 f   LIBCMT:ulldvrm.obj
 0001:0006e985       __crt_debugger_hook        1006f985 f   LIBCMT:dbghook.obj
 0001:0006e98d       __freea                    1006f98d f i LIBCMT:a_loc.obj
 0001:0006e9b0       _fdiv_main_routine         1006f9b0 f   LIBCMT:_adj_fdiv_.obj
 0001:0006eac7       __adj_fdiv_r               1006fac7 f   LIBCMT:_adj_fdiv_.obj
 0001:0006ef66       __fdivp_sti_st             1006ff66 f   LIBCMT:_adj_fdiv_.obj
 0001:0006ef79       __fdivrp_sti_st            1006ff79 f   LIBCMT:_adj_fdiv_.obj
 0001:0006ef8c       __adj_fdiv_m32             1006ff8c f   LIBCMT:_adj_fdiv_.obj
 0001:0006efd8       __adj_fdiv_m64             1006ffd8 f   LIBCMT:_adj_fdiv_.obj
 0001:0006f024       __adj_fdiv_m16i            10070024 f   LIBCMT:_adj_fdiv_.obj
 0001:0006f058       __adj_fdiv_m32i            10070058 f   LIBCMT:_adj_fdiv_.obj
 0001:0006f08c       __adj_fdivr_m32            1007008c f   LIBCMT:_adj_fdiv_.obj
 0001:0006f0d8       __adj_fdivr_m64            100700d8 f   LIBCMT:_adj_fdiv_.obj
 0001:0006f124       __adj_fdivr_m16i           10070124 f   LIBCMT:_adj_fdiv_.obj
 0001:0006f158       __adj_fdivr_m32i           10070158 f   LIBCMT:_adj_fdiv_.obj
 0001:0006f18c       __safe_fdiv                1007018c f   LIBCMT:_adj_fdiv_.obj
 0001:0006f1a1       __safe_fdivr               100701a1 f   LIBCMT:_adj_fdiv_.obj
 0001:0006f1b6       __fprem_common             100701b6 f   LIBCMT:_adj_fdiv_.obj
 0001:0006f3bc       __adj_fprem                100703bc f   LIBCMT:_adj_fdiv_.obj
 0001:0006f46e       __fprem1_common            1007046e f   LIBCMT:_adj_fdiv_.obj
 0001:0006f674       __adj_fprem1               10070674 f   LIBCMT:_adj_fdiv_.obj
 0001:0006f729       __safe_fprem               10070729 f   LIBCMT:_adj_fdiv_.obj
 0001:0006f72f       __safe_fprem1              1007072f f   LIBCMT:_adj_fdiv_.obj
 0001:0006f735       __adj_fpatan               10070735 f   LIBCMT:_adj_fdiv_.obj
 0001:0006f738       __adj_fptan                10070738 f   LIBCMT:_adj_fdiv_.obj
 0001:0006f73b       __87except                 1007073b f   LIBCMT:_87except_.obj
 0001:0006f87a       __fpclass                  1007087a f   LIBCMT:_ieeemisc_.obj
 0001:0006fcb3       ___crtLCMapStringA         10070cb3 f   LIBCMT:a_map.obj
 0001:0006feb2       ___crtGetStringTypeA       10070eb2 f   LIBCMT:a_str.obj
 0001:0006fef4       ___free_lc_time            10070ef4 f   LIBCMT:inittime.obj
 0001:00070089       ___free_lconv_num          10071089 f   LIBCMT:initnum.obj
 0001:000700ce       ___free_lconv_mon          100710ce f   LIBCMT:initmon.obj
 0001:00070160       _strcspn                   10071160 f   LIBCMT:strcspn.obj
 0001:000701b0       _strcmp                    100711b0 f   LIBCMT:strcmp.obj
 0001:00070240       _strpbrk                   10071240 f   LIBCMT:strpbrk.obj
 0001:00070280       __isctype_l                10071280 f   LIBCMT:isctype.obj
 0001:00070338       __ld12tod                  10071338 f   LIBCMT:_intrncvt_.obj
 0001:0007087c       __ld12tof                  1007187c f   LIBCMT:_intrncvt_.obj
 0001:00070dc0       ___strgtold12_l            10071dc0 f   LIBCMT:_strgtold_.obj
 0001:000714b8       _$I10_OUTPUT               100724b8 f   LIBCMT:_x10fout_.obj
 0001:00071ddc       ___report_gsfailure        10072ddc f   LIBCMT:gs_report.obj
 0001:00071ee4       __global_unwind2           10072ee4 f   LIBCMT:exsup.obj
 0001:00071f49       __local_unwind2            10072f49 f   LIBCMT:exsup.obj
 0001:00071fcd       __abnormal_termination     10072fcd f   LIBCMT:exsup.obj
 0001:00071ff0       __NLG_Notify1              10072ff0 f   LIBCMT:exsup.obj
 0001:00071ff9       __NLG_Notify               10072ff9 f   LIBCMT:exsup.obj
 0001:00072010       __NLG_Dispatch2            10073010     LIBCMT:exsup.obj
 0001:00072010       __NLG_Dispatch             10073010     LIBCMT:exsup.obj
 0001:00072018       __NLG_Call                 10073018 f   LIBCMT:exsup.obj
 0001:0007201a       __NLG_Return2              1007301a     LIBCMT:exsup.obj
 0001:0007201b       __free_osfhnd              1007301b f   LIBCMT:osfinfo.obj
 0001:000720a1       __get_osfhandle            100730a1 f   LIBCMT:osfinfo.obj
 0001:00072118       ___lock_fhandle            10073118 f   LIBCMT:osfinfo.obj
 0001:000721b8       __unlock_fhandle           100731b8 f   LIBCMT:osfinfo.obj
 0001:000721df       __putwch_nolock            100731df f   LIBCMT:putwch.obj
 0001:000722a4       __mbtowc_l                 100732a4 f   LIBCMT:mbtowc.obj
 0001:000723bb       _mbtowc                    100733bb f   LIBCMT:mbtowc.obj
 0001:000723d5       __fcloseall                100733d5 f   LIBCMT:closeall.obj
 0001:00072474       __flush                    10073474 f   LIBCMT:fflush.obj
 0001:000724dc       __fflush_nolock            100734dc f   LIBCMT:fflush.obj
 0001:000725fe       __flushall                 100735fe f   LIBCMT:fflush.obj
 0001:00072836       _strtol                    10073836 f   LIBCMT:strtol.obj
 0001:00072870       __alloca_probe_16          10073870 f   LIBCMT:alloca16.obj
 0001:00072886       __alloca_probe_8           10073886     LIBCMT:alloca16.obj
 0001:0007289c       ___ansicp                  1007389c f   LIBCMT:convrtcp.obj
 0001:000728e5       ___convertcp               100738e5 f   LIBCMT:convrtcp.obj
 0001:00072a99       _atol                      10073a99 f   LIBCMT:atox.obj
 0001:00072aaf       ___mtold12                 10073aaf f   LIBCMT:_mantold_.obj
 0001:00072c7d       ___initconout              10073c7d f   LIBCMT:initcon.obj
 0001:00072c9c       ___termcon                 10073c9c f   LIBCMT:initcon.obj
 0001:00072cc9       __fclose_nolock            10073cc9 f   LIBCMT:fclose.obj
 0001:00072d40       _fclose                    10073d40 f   LIBCMT:fclose.obj
 0001:00072dbc       __commit                   10073dbc f   LIBCMT:commit.obj
 0001:00072ea0       ___ascii_strnicmp          10073ea0 f   LIBCMT:_strnicm.obj
 0001:00072f01       __close_nolock             10073f01 f   LIBCMT:close.obj
 0001:00072f9d       __close                    10073f9d f   LIBCMT:close.obj
 0001:0007306a       __freebuf                  1007406a f   LIBCMT:_freebuf.obj
 0001:000730b0       _strchr                    100740b0 f   LIBCMT:strchr.obj
 0001:000730b6       ___from_strstr_to_strchr   100740b6     LIBCMT:strchr.obj
 0001:0007316e       _RtlUnwind@16              1007416e f   kernel32:KERNEL32.dll
 0002:00000000       __imp__Sleep@4             10075000     kernel32:KERNEL32.dll
 0002:00000004       __imp__InterlockedExchange@8 10075004     kernel32:KERNEL32.dll
 0002:00000008       __imp__GetSystemInfo@4     10075008     kernel32:KERNEL32.dll
 0002:0000000c       __imp__LeaveCriticalSection@4 1007500c     kernel32:KERNEL32.dll
 0002:00000010       __imp__ReleaseSemaphore@12 10075010     kernel32:KERNEL32.dll
 0002:00000014       __imp__EnterCriticalSection@4 10075014     kernel32:KERNEL32.dll
 0002:00000018       __imp__WaitForMultipleObjects@16 10075018     kernel32:KERNEL32.dll
 0002:0000001c       __imp__InterlockedDecrement@4 1007501c     kernel32:KERNEL32.dll
 0002:00000020       __imp__WaitForSingleObject@8 10075020     kernel32:KERNEL32.dll
 0002:00000024       __imp__InterlockedIncrement@4 10075024     kernel32:KERNEL32.dll
 0002:00000028       __imp__CloseHandle@4       10075028     kernel32:KERNEL32.dll
 0002:0000002c       __imp__DeleteCriticalSection@4 1007502c     kernel32:KERNEL32.dll
 0002:00000030       __imp__SetEvent@4          10075030     kernel32:KERNEL32.dll
 0002:00000034       __imp__InitializeCriticalSection@4 10075034     kernel32:KERNEL32.dll
 0002:00000038       __imp__CreateEventA@16     10075038     kernel32:KERNEL32.dll
 0002:0000003c       __imp__CreateSemaphoreA@16 1007503c     kernel32:KERNEL32.dll
 0002:00000040       __imp__HeapAlloc@12        10075040     kernel32:KERNEL32.dll
 0002:00000044       __imp__GetLastError@0      10075044     kernel32:KERNEL32.dll
 0002:00000048       __imp__HeapFree@12         10075048     kernel32:KERNEL32.dll
 0002:0000004c       __imp__GetCurrentThreadId@0 1007504c     kernel32:KERNEL32.dll
 0002:00000050       __imp__GetCommandLineA@0   10075050     kernel32:KERNEL32.dll
 0002:00000054       __imp__ExitThread@4        10075054     kernel32:KERNEL32.dll
 0002:00000058       __imp__CreateThread@24     10075058     kernel32:KERNEL32.dll
 0002:0000005c       __imp__GetProcAddress@8    1007505c     kernel32:KERNEL32.dll
 0002:00000060       __imp__GetModuleHandleA@4  10075060     kernel32:KERNEL32.dll
 0002:00000064       __imp__VirtualFree@12      10075064     kernel32:KERNEL32.dll
 0002:00000068       __imp__VirtualAlloc@16     10075068     kernel32:KERNEL32.dll
 0002:0000006c       __imp__HeapReAlloc@16      1007506c     kernel32:KERNEL32.dll
 0002:00000070       __imp__HeapCreate@12       10075070     kernel32:KERNEL32.dll
 0002:00000074       __imp__HeapDestroy@4       10075074     kernel32:KERNEL32.dll
 0002:00000078       __imp__GetModuleHandleW@4  10075078     kernel32:KERNEL32.dll
 0002:0000007c       __imp__ExitProcess@4       1007507c     kernel32:KERNEL32.dll
 0002:00000080       __imp__WriteFile@20        10075080     kernel32:KERNEL32.dll
 0002:00000084       __imp__GetStdHandle@4      10075084     kernel32:KERNEL32.dll
 0002:00000088       __imp__GetModuleFileNameA@12 10075088     kernel32:KERNEL32.dll
 0002:0000008c       __imp__TlsGetValue@4       1007508c     kernel32:KERNEL32.dll
 0002:00000090       __imp__TlsAlloc@0          10075090     kernel32:KERNEL32.dll
 0002:00000094       __imp__TlsSetValue@8       10075094     kernel32:KERNEL32.dll
 0002:00000098       __imp__TlsFree@4           10075098     kernel32:KERNEL32.dll
 0002:0000009c       __imp__SetLastError@4      1007509c     kernel32:KERNEL32.dll
 0002:000000a0       __imp__SetHandleCount@4    100750a0     kernel32:KERNEL32.dll
 0002:000000a4       __imp__GetFileType@4       100750a4     kernel32:KERNEL32.dll
 0002:000000a8       __imp__GetStartupInfoA@4   100750a8     kernel32:KERNEL32.dll
 0002:000000ac       __imp__FreeEnvironmentStringsA@4 100750ac     kernel32:KERNEL32.dll
 0002:000000b0       __imp__GetEnvironmentStrings@0 100750b0     kernel32:KERNEL32.dll
 0002:000000b4       __imp__FreeEnvironmentStringsW@4 100750b4     kernel32:KERNEL32.dll
 0002:000000b8       __imp__WideCharToMultiByte@32 100750b8     kernel32:KERNEL32.dll
 0002:000000bc       __imp__GetEnvironmentStringsW@0 100750bc     kernel32:KERNEL32.dll
 0002:000000c0       __imp__QueryPerformanceCounter@4 100750c0     kernel32:KERNEL32.dll
 0002:000000c4       __imp__GetTickCount@0      100750c4     kernel32:KERNEL32.dll
 0002:000000c8       __imp__GetCurrentProcessId@0 100750c8     kernel32:KERNEL32.dll
 0002:000000cc       __imp__GetSystemTimeAsFileTime@4 100750cc     kernel32:KERNEL32.dll
 0002:000000d0       __imp__TerminateProcess@8  100750d0     kernel32:KERNEL32.dll
 0002:000000d4       __imp__GetCurrentProcess@0 100750d4     kernel32:KERNEL32.dll
 0002:000000d8       __imp__UnhandledExceptionFilter@4 100750d8     kernel32:KERNEL32.dll
 0002:000000dc       __imp__SetUnhandledExceptionFilter@4 100750dc     kernel32:KERNEL32.dll
 0002:000000e0       __imp__IsDebuggerPresent@0 100750e0     kernel32:KERNEL32.dll
 0002:000000e4       __imp__HeapSize@12         100750e4     kernel32:KERNEL32.dll
 0002:000000e8       __imp__GetCPInfo@8         100750e8     kernel32:KERNEL32.dll
 0002:000000ec       __imp__GetACP@0            100750ec     kernel32:KERNEL32.dll
 0002:000000f0       __imp__GetOEMCP@0          100750f0     kernel32:KERNEL32.dll
 0002:000000f4       __imp__IsValidCodePage@4   100750f4     kernel32:KERNEL32.dll
 0002:000000f8       __imp__RaiseException@16   100750f8     kernel32:KERNEL32.dll
 0002:000000fc       __imp__InitializeCriticalSectionAndSpinCount@8 100750fc     kernel32:KERNEL32.dll
 0002:00000100       __imp__RtlUnwind@16        10075100     kernel32:KERNEL32.dll
 0002:00000104       __imp__LoadLibraryA@4      10075104     kernel32:KERNEL32.dll
 0002:00000108       __imp__SetFilePointer@16   10075108     kernel32:KERNEL32.dll
 0002:0000010c       __imp__GetConsoleCP@0      1007510c     kernel32:KERNEL32.dll
 0002:00000110       __imp__GetConsoleMode@8    10075110     kernel32:KERNEL32.dll
 0002:00000114       __imp__GetLocaleInfoA@16   10075114     kernel32:KERNEL32.dll
 0002:00000118       __imp__LCMapStringA@24     10075118     kernel32:KERNEL32.dll
 0002:0000011c       __imp__MultiByteToWideChar@24 1007511c     kernel32:KERNEL32.dll
 0002:00000120       __imp__LCMapStringW@24     10075120     kernel32:KERNEL32.dll
 0002:00000124       __imp__GetStringTypeA@20   10075124     kernel32:KERNEL32.dll
 0002:00000128       __imp__GetStringTypeW@16   10075128     kernel32:KERNEL32.dll
 0002:0000012c       __imp__SetStdHandle@8      1007512c     kernel32:KERNEL32.dll
 0002:00000130       __imp__WriteConsoleA@20    10075130     kernel32:KERNEL32.dll
 0002:00000134       __imp__GetConsoleOutputCP@0 10075134     kernel32:KERNEL32.dll
 0002:00000138       __imp__WriteConsoleW@20    10075138     kernel32:KERNEL32.dll
 0002:0000013c       __imp__CreateFileA@28      1007513c     kernel32:KERNEL32.dll
 0002:00000140       __imp__FlushFileBuffers@4  10075140     kernel32:KERNEL32.dll
 0002:00000144       \177KERNEL32_NULL_THUNK_DATA 10075144     kernel32:KERNEL32.dll
 0002:00000148       ___xc_a                    10075148     LIBCMT:crt0init.obj
 0002:00000150       ___xc_z                    10075150     LIBCMT:crt0init.obj
 0002:00000154       ___xi_a                    10075154     LIBCMT:crt0init.obj
 0002:0000016c       ___xi_z                    1007516c     LIBCMT:crt0init.obj
 0002:00000170       ___xp_a                    10075170     LIBCMT:crt0init.obj
 0002:0000017c       ___xp_z                    1007517c     LIBCMT:crt0init.obj
 0002:00000180       ___xt_a                    10075180     LIBCMT:crt0init.obj
 0002:00000184       ___xt_z                    10075184     LIBCMT:crt0init.obj
 0002:000001b0       ??_C@_0IE@IMGBDMJL@Newton?5Game?5Dynamics?5is?5the?5prop@ 100751b0     Newton.obj
 0002:00000240       __real@3ee4f8b580000000    10075240     Newton.obj
 0002:00000248       __real@3ff0000000000000    10075248     Newton.obj
 0002:00000250       __real@0000000000000000    10075250     Newton.obj
 0002:00000258       __real@3f947ae140000000    10075258     Newton.obj
 0002:00000260       __real@3ddb7cdfe0000000    10075260     Newton.obj
 0002:00000268       __real@3f91111120000000    10075268     Newton.obj
 0002:00000270       __real@3f50624de0000000    10075270     Newton.obj
 0002:00000278       __real@408f3fffe7190014    10075278     Newton.obj
 0002:00000280       __real@404dffffe5c00017    10075280     Newton.obj
 0002:00000288       __real@3fc0000000000000    10075288     Newton.obj
 0002:00000290       __real@4000000000000000    10075290     Newton.obj
 0002:00000298       __real@3f847ae140000000    10075298     Newton.obj
 0002:000002a0       __real@3fe6666660000000    100752a0     Newton.obj
 0002:000002a8       __real@431550f7d8000000    100752a8     Newton.obj
 0002:000002b0       __real@4059000000000000    100752b0     Newton.obj
 0002:000002b8       __real@42fc6bf520000000    100752b8     Newton.obj
 0002:000002c0       __real@3e45798ee0000000    100752c0     Newton.obj
 0002:000002c8       __real@3feff7cee0000000    100752c8     Newton.obj
 0002:000002d0       __real@3f1a36e2e0000000    100752d0     Newton.obj
 0002:000002d8       __real@3eb0c6f7a0000000    100752d8     Newton.obj
 0002:000002e0       __real@c059000000000000    100752e0     Newton.obj
 0002:000002e8       __real@3fa99999a0000000    100752e8     NewtonAproximateConvexPartition.obj
 0002:000002f0       ??_7NewtonUserJoint@@6B@   100752f0     NewtonClass.obj
 0002:00000320       __real@430c6bf520000000    10075320     NewtonClass.obj
 0002:00000328       __real@bf50624de0000000    10075328     NewtonClass.obj
 0002:00000330       __real@c30c6bf520000000    10075330     NewtonClass.obj
 0002:00000338       __real@4058c00000000000    10075338     NewtonClass.obj
 0002:00000340       ??_7NewtonMeshEffect@@6B@  10075340     NewtonMeshEffect.obj
 0002:00000348       __real@3fe3333340000000    10075348     NewtonMeshEffect.obj
 0002:00000350       __real@3fe0000000000000    10075350     NewtonMeshEffect.obj
 0002:00000358       __real@3ff921fb00000000    10075358     NewtonMeshEffect.obj
 0002:00000360       __real@3fc45f30c0000000    10075360     NewtonMeshEffect.obj
 0002:00000368       __real@3fefff2e40000000    10075368     NewtonMeshEffect.obj
 0002:00000370       __real@bfefff2e40000000    10075370     NewtonMeshEffect.obj
 0002:00000378       __real@401921fb00000000    10075378     NewtonMeshEffect.obj
 0002:00000380       __real@3fefae1480000000    10075380     NewtonMeshEffect.obj
 0002:00000388       __real@c202a05f20000000    10075388     NewtonMeshEffect.obj
 0002:00000390       __real@4202a05f20000000    10075390     NewtonMeshEffect.obj
 0002:00000398       __real@3c9cd2b2a0000000    10075398     NewtonMeshEffect.obj
 0002:000003a0       __real@bee4f8b580000000    100753a0     NewtonMeshEffect.obj
 0002:000003a8       ??_C@_0P@GHFPNOJB@bad?5allocation?$AA@ 100753a8     NewtonStdAfx.obj
 0002:000003c8       ??_7dgCollisionPoint@@6B@  100753c8     physics_2009:dgWorld.obj
 0002:0000043c       ??_C@_04IABPNMKE@simd?$AA@ 1007543c     physics_2009:dgWorld.obj
 0002:00000444       ??_C@_03MKEPLMIM@x87?$AA@  10075444     physics_2009:dgWorld.obj
 0002:00000448       ??_7dgWorkerThread@@6B@    10075448     physics_2009:dgWorld.obj
 0002:00000450       ??_7dgSetTrreadRoundMode@dgWorld@@6B@ 10075450     physics_2009:dgWorld.obj
 0002:00000458       ??_7dgSolverWorlkerThreads@@6B@ 10075458     physics_2009:dgWorld.obj
 0002:00000460       ??_7dgParallelSolverClear@@6B@ 10075460     physics_2009:dgWorld.obj
 0002:00000468       ??_7dgParallelSolverBodyInertia@@6B@ 10075468     physics_2009:dgWorld.obj
 0002:00000470       ??_7dgParallelSolverUpdateVeloc@@6B@ 10075470     physics_2009:dgWorld.obj
 0002:00000478       ??_7dgParallelSolverUpdateForce@@6B@ 10075478     physics_2009:dgWorld.obj
 0002:00000480       ??_7dgParallelSolverCalculateForces@@6B@ 10075480     physics_2009:dgWorld.obj
 0002:00000488       ??_7dgParallelSolverInitInternalForces@@6B@ 10075488     physics_2009:dgWorld.obj
 0002:00000490       ??_7dgParallelSolverBuildJacobianRows@@6B@ 10075490     physics_2009:dgWorld.obj
 0002:00000498       ??_7dgParallelSolverJointAcceleration@@6B@ 10075498     physics_2009:dgWorld.obj
 0002:000004a0       ??_7dgParallelSolverInitFeedbackUpdate@@6B@ 100754a0     physics_2009:dgWorld.obj
 0002:000004a8       ??_7dgParallelSolverBuildJacobianMatrix@@6B@ 100754a8     physics_2009:dgWorld.obj
 0002:000004b0       __real@431c6bf520000000    100754b0     physics_2009:dgWorld.obj
 0002:000004b8       __real@3fbac08320000000    100754b8     physics_2009:dgWorld.obj
 0002:000004c0       __real@3fb99999a0000000    100754c0     physics_2009:dgWorld.obj
 0002:000004c8       __real@3f917ef9e8420c4d    100754c8     physics_2009:dgWorld.obj
 0002:000004d0       __real@3fbafc60f7c20b0a    100754d0     physics_2009:dgWorld.obj
 0002:000004d8       __real@3fc5deb85cdae149    100754d8     physics_2009:dgWorld.obj
 0002:000004e0       __real@3f8753f7e0581067    100754e0     physics_2009:dgWorld.obj
 0002:000004e8       __real@3fb3468e6d559e4b    100754e8     physics_2009:dgWorld.obj
 0002:000004f0       __real@3fbd28f5d123d70c    100754f0     physics_2009:dgWorld.obj
 0002:000004f8       __real@3f7f1a9fd5cac089    100754f8     physics_2009:dgWorld.obj
 0002:00000500       __real@3fab895dc8a18f37    10075500     physics_2009:dgWorld.obj
 0002:00000508       __real@3fb370a3e0c28f5d    10075508     physics_2009:dgWorld.obj
 0002:00000510       __real@3f74bc6a8e872b06    10075510     physics_2009:dgWorld.obj
 0002:00000518       __real@3fa3ab4302a454df    10075518     physics_2009:dgWorld.obj
 0002:00000520       __real@3fa9eb852bae147c    10075520     physics_2009:dgWorld.obj
 0002:00000528       __real@3f6ba5e368b4395e    10075528     physics_2009:dgWorld.obj
 0002:00000530       __real@3f9c193b305faeba    10075530     physics_2009:dgWorld.obj
 0002:00000538       __real@3fa147ae1d1eb853    10075538     physics_2009:dgWorld.obj
 0002:00000540       __real@3f626e979b22d0e9    10075540     physics_2009:dgWorld.obj
 0002:00000548       __real@3f941205ba92a303    10075548     physics_2009:dgWorld.obj
 0002:00000550       __real@3f970a3d7c28f5c4    10075550     physics_2009:dgWorld.obj
 0002:00000558       __real@3f589374ced9168c    10075558     physics_2009:dgWorld.obj
 0002:00000560       __real@3f8cac08374bc6a6    10075560     physics_2009:dgWorld.obj
 0002:00000568       __real@3f8eb851fae147b0    10075568     physics_2009:dgWorld.obj
 0002:00000570       __real@3f50624ddf3b645d    10075570     physics_2009:dgWorld.obj
 0002:00000578       __real@3f847ae151eb8520    10075578     physics_2009:dgWorld.obj
 0002:00000580       __real@3fd0000000000000    10075580     physics_2009:dgWorld.obj
 0002:00000588       __real@404e000000000000    10075588     physics_2009:dgWorldDynamicUpdate.obj
 0002:00000590       __real@3fecccccc0000000    10075590     physics_2009:dgWorldDynamicUpdate.obj
 0002:00000598       __real@4415af1d80000000    10075598     physics_2009:dgWorldDynamicUpdate.obj
 0002:000005a0       __real@3c670ef540000000    100755a0     physics_2009:dgWorldDynamicUpdate.obj
 0002:000005a8       __real@bc9cd2b2a0000000    100755a8     physics_2009:dgWorldDynamicUpdate.obj
 0002:000005b0       __real@4010000000000000    100755b0     physics_2009:dgWorldDynamicUpdate.obj
 0002:000005b8       __real@c010000000000000    100755b8     physics_2009:dgWorldDynamicUpdate.obj
 0002:000005c0       __real@3f1a36e2d7731900    100755c0     physics_2009:dgNarrowPhaseCollision.obj
 0002:000005c8       __real@3eb0c6f7bb730840    100755c8     physics_2009:dgNarrowPhaseCollision.obj
 0002:000005d0       __real@bff0000000000000    100755d0     physics_2009:dgNarrowPhaseCollision.obj
 0002:000005d8       __real@3feffbe760000000    100755d8     physics_2009:dgNarrowPhaseCollision.obj
 0002:000005e0       __real@3fe276c8c0000000    100755e0     physics_2009:dgNarrowPhaseCollision.obj
 0002:000005e8       ??_7dgCollisionMesh@@6B@   100755e8     physics_2009:dgCollisionMesh.obj
 0002:00000658       __real@3fc6388660000000    10075658     physics_2009:dgCollisionMesh.obj
 0002:00000660       ??_7dgCollisionConvexPolygon@dgCollisionMesh@@6B@ 10075660     physics_2009:dgCollisionMesh.obj
 0002:000006d8       __real@3af357c2a0000000    100756d8     physics_2009:dgCollisionMesh.obj
 0002:000006e0       __real@3f647ae160000000    100756e0     physics_2009:dgCollisionMesh.obj
 0002:000006e8       __real@3feffe5ca0000000    100756e8     physics_2009:dgCollisionMesh.obj
 0002:000006f0       __real@c000000000000000    100756f0     physics_2009:dgCollisionMesh.obj
 0002:000006f8       __real@bfb99999a0000000    100756f8     physics_2009:dgCollisionMesh.obj
 0002:00000700       __real@3f80000000000000    10075700     physics_2009:dgCollisionMesh.obj
 0002:00000708       __real@bf70000000000000    10075708     physics_2009:dgCollisionMesh.obj
 0002:00000710       ??_7dgCollisionBVH@@6BdgCollisionMesh@@@ 10075710     physics_2009:dgCollisionBVH.obj
 0002:0000077c       ??_7dgCollisionBVH@@6BdgAABBPolygonSoup@@@ 1007577c     physics_2009:dgCollisionBVH.obj
 0002:000007a0       __real@3ff3333340000000    100757a0     physics_2009:dgCollisionBVH.obj
 0002:000007a8       __real@c415af1d80000000    100757a8     physics_2009:dgCollisionBVH.obj
 0002:000007b0       __real@4050000000000000    100757b0     physics_2009:dgCollisionScene.obj
 0002:000007b8       ??_7dgCollisionScene@@6B@  100757b8     physics_2009:dgCollisionScene.obj
 0002:00000828       __real@408f400000000000    10075828     physics_2009:dgBody.obj
 0002:00000830       __real@4024000000000000    10075830     physics_2009:dgBody.obj
 0002:00000838       __real@3ff999999999999a    10075838     physics_2009:dgBody.obj
 0002:00000840       __real@3f899999a0000000    10075840     physics_2009:dgBody.obj
 0002:00000848       __real@3fe99999a0000000    10075848     physics_2009:dgBody.obj
 0002:00000850       __real@4046800000000000    10075850     physics_2009:dgBody.obj
 0002:00000860       ??_7dgBallConstraint@@6B@  10075860     physics_2009:dgBallConstraint.obj
 0002:00000890       __real@4065e00000000000    10075890     physics_2009:dgBallConstraint.obj
 0002:00000898       __real@4056800000000000    10075898     physics_2009:dgBallConstraint.obj
 0002:000008a0       __real@4014000000000000    100758a0     physics_2009:dgBallConstraint.obj
 0002:000008a8       __real@bff921fa00000000    100758a8     physics_2009:dgBallConstraint.obj
 0002:000008b0       __real@3ff921fa00000000    100758b0     physics_2009:dgBallConstraint.obj
 0002:000008b8       __real@3ff19999a0000000    100758b8     physics_2009:dgBallConstraint.obj
 0002:000008c0       __real@4030000000000000    100758c0     physics_2009:dgBallConstraint.obj
 0002:000008c8       ??_7dgHingeConstraint@@6B@ 100758c8     physics_2009:dgHingeConstraint.obj
 0002:000008f8       __real@3ff028f5c0000000    100758f8     physics_2009:dgHingeConstraint.obj
 0002:00000900       ??_7dgSlidingConstraint@@6B@ 10075900     physics_2009:dgSlidingConstraint.obj
 0002:00000930       ??_7dgCorkscrewConstraint@@6B@ 10075930     physics_2009:dgCorkscrewConstraint.obj
 0002:00000960       ??_7dgUniversalConstraint@@6B@ 10075960     physics_2009:dgUniversalConstraint.obj
 0002:00000990       ??_7dgUpVectorConstraint@@6B@ 10075990     physics_2009:dgUpVectorConstraint.obj
 0002:000009c0       __real@3fefd70a40000000    100759c0     physics_2009:dgUpVectorConstraint.obj
 0002:000009c8       ??_7dgBroadPhaseApplyExternalForce@@6B@ 100759c8     physics_2009:dgBroadPhaseCollision.obj
 0002:000009d0       ??_7dgBroadPhaseCellPairsWorkerThread@@6B@ 100759d0     physics_2009:dgBroadPhaseCollision.obj
 0002:000009d8       ??_7dgBroadPhaseMaterialCallbackWorkerThread@@6B@ 100759d8     physics_2009:dgBroadPhaseCollision.obj
 0002:000009e0       ??_7dgBroadPhaseCalculateContactsWorkerThread@@6B@ 100759e0     physics_2009:dgBroadPhaseCollision.obj
 0002:000009e8       __real@c08f400000000000    100759e8     physics_2009:dgBroadPhaseCollision.obj
 0002:000009f0       __real@4060000000000000    100759f0     physics_2009:dgBroadPhaseCollision.obj
 0002:000009f8       ??_7dgCollisionConvexHull@@6B@ 100759f8     physics_2009:dgCollisionConvexHull.obj
 0002:00000a70       __real@3fefff9720000000    10075a70     physics_2009:dgCollisionConvexHull.obj
 0002:00000a78       __real@beb0c6f7a0000000    10075a78     physics_2009:dgCollisionConvexHull.obj
 0002:00000a80       __real@3f40000000000000    10075a80     physics_2009:dgCollisionConvexHull.obj
 0002:00000a88       __real@40a0000000000000    10075a88     physics_2009:dgCollisionConvexHull.obj
 0002:00000a90       __real@3fef5c2900000000    10075a90     physics_2009:dgCollisionConvexHull.obj
 0002:00000a98       ??_7dgUserConstraint@@6B@  10075a98     physics_2009:dgUserConstraint.obj
 0002:00000ac8       ??_7dgConstraint@@6B@      10075ac8     physics_2009:dgBilateralConstraint.obj
 0002:00000af0       ??_7dgBilateralConstraint@@6B@ 10075af0     physics_2009:dgBilateralConstraint.obj
 0002:00000b20       __real@3f647ae140000000    10075b20     physics_2009:dgBilateralConstraint.obj
 0002:00000b28       __real@4097700000000000    10075b28     physics_2009:dgBilateralConstraint.obj
 0002:00000b30       __real@40c3880000000000    10075b30     physics_2009:dgBilateralConstraint.obj
 0002:00000b38       __real@c0c3880000000000    10075b38     physics_2009:dgBilateralConstraint.obj
 0002:00000b40       __real@3ff6666680000000    10075b40     physics_2009:dgBilateralConstraint.obj
 0002:00000b48       __real@4079000000000000    10075b48     physics_2009:dgBilateralConstraint.obj
 0002:00000b50       __real@4077700000000000    10075b50     physics_2009:dgBilateralConstraint.obj
 0002:00000b58       ??_7dgCollisionSphere@@6B@ 10075b58     physics_2009:dgCollisionSphere.obj
 0002:00000bd0       __real@3fd99999a0000000    10075bd0     physics_2009:dgCollisionSphere.obj
 0002:00000bd8       __real@4010c15200000000    10075bd8     physics_2009:dgCollisionSphere.obj
 0002:00000be8       ??_7dgConvexCollision@@6B@ 10075be8     physics_2009:dgConvexCollision.obj
 0002:00000c60       __real@4090000000000000    10075c60     physics_2009:dgConvexCollision.obj
 0002:00000c68       __real@4070000000000000    10075c68     physics_2009:dgConvexCollision.obj
 0002:00000c70       __real@3eb0c6f78dd616ff    10075c70     physics_2009:dgConvexCollision.obj
 0002:00000c78       __real@bf1a36e2e0000000    10075c78     physics_2009:dgConvexCollision.obj
 0002:00000c80       __real@3bc79ca100000000    10075c80     physics_2009:dgConvexCollision.obj
 0002:00000c88       __real@3d71979980000000    10075c88     physics_2009:dgConvexCollision.obj
 0002:00000c90       __real@3ee2dfd6a0000000    10075c90     physics_2009:dgConvexCollision.obj
 0002:00000c98       __real@baf357c2a0000000    10075c98     physics_2009:dgConvexCollision.obj
 0002:00000ca0       ??_7dgCollisionNull@@6B@   10075ca0     physics_2009:dgCollisionNull.obj
 0002:00000d14       ??_C@_07FLDMKAK@contact?$AA@ 10075d14     physics_2009:dgContact.obj
 0002:00000d20       __real@3fd3333340000000    10075d20     physics_2009:dgContact.obj
 0002:00000d28       __real@4049000000000000    10075d28     physics_2009:dgContact.obj
 0002:00000d30       ??_7dgContact@@6B@         10075d30     physics_2009:dgContact.obj
 0002:00000d58       ??_7dgCollisionConvexModifier@@6B@ 10075d58     physics_2009:dgCollisionConvexModifier.obj
 0002:00000dd0       __real@c197d78400000000    10075dd0     physics_2009:dgCollisionConvexModifier.obj
 0002:00000dd8       ??_7dgCompoundCollision@@6B@ 10075dd8     physics_2009:dgCompoundCollision.obj
 0002:00000e40       __real@bbc79ca100000000    10075e40     physics_2009:dgCompoundCollision.obj
 0002:00000e48       ??_7dgCollisionUserMesh@@6B@ 10075e48     physics_2009:dgCollisionUserMesh.obj
 0002:00000eb8       ??_7dgCollisionHeightField@@6B@ 10075eb8     physics_2009:dgCollisionHeightField.obj
 0002:00000f28       __real@c26d1a94a0000000    10075f28     physics_2009:dgCollisionHeightField.obj
 0002:00000f30       __real@3feb851ec0000000    10075f30     physics_2009:dgMinkowskiConv.obj
 0002:00000f38       __real@bfe279a6c0000000    10075f38     physics_2009:dgMinkowskiConv.obj
 0002:00000f40       __real@3fe279a6c0000000    10075f40     physics_2009:dgMinkowskiConv.obj
 0002:00000f48       __real@3fefef9dc0000000    10075f48     physics_2009:dgMinkowskiConv.obj
 0002:00000f50       __real@3feffb00c0000000    10075f50     physics_2009:dgMinkowskiConv.obj
 0002:00000f58       __real@3fa1de6660000000    10075f58     physics_2009:dgMinkowskiConv.obj
 0002:00000f60       __real@3fe6a09e60000000    10075f60     physics_2009:dgMinkowskiConv.obj
 0002:00000f68       __real@3fa1de58c0000000    10075f68     physics_2009:dgMinkowskiConv.obj
 0002:00000f70       __real@3feffb0280000000    10075f70     physics_2009:dgMinkowskiConv.obj
 0002:00000f78       __real@3f40624de0000000    10075f78     physics_2009:dgMinkowskiConv.obj
 0002:00000f80       __real@3e112e0be0000000    10075f80     physics_2009:dgMinkowskiConv.obj
 0002:00000f88       __real@3f1a36e3068db8c0    10075f88     physics_2009:dgMinkowskiConv.obj
 0002:00000f90       __real@3f60000000000000    10075f90     physics_2009:dgMinkowskiConv.obj
 0002:00000f98       __real@3f70000000000000    10075f98     physics_2009:dgMinkowskiConv.obj
 0002:00000fa0       __real@3fb0000000000000    10075fa0     physics_2009:dgMinkowskiConv.obj
 0002:00000fa8       ??_7dgCollisionBox@@6B@    10075fa8     physics_2009:dgCollisionBox.obj
 0002:00001020       __real@3fd5555560000000    10076020     physics_2009:dgCollisionBox.obj
 0002:00001028       __real@4020000000000000    10076028     physics_2009:dgCollisionBox.obj
 0002:00001030       ??_7dgCollision@@6B@       10076030     physics_2009:dgCollision.obj
 0002:00001098       ??_7dgCollisionEllipse@@6B@ 10076098     physics_2009:dgCollisionEllipse.obj
 0002:00001118       ??_7dgCollisionCapsule@@6B@ 10076118     physics_2009:dgCollisionCapsule.obj
 0002:00001190       __real@4018000000000000    10076190     physics_2009:dgCollisionCapsule.obj
 0002:00001198       __real@4010dca360000000    10076198     physics_2009:dgCollisionCapsule.obj
 0002:000011a0       __real@40194af500000000    100761a0     physics_2009:dgCollisionCapsule.obj
 0002:000011a8       __real@bfe0000000000000    100761a8     physics_2009:dgCollisionCapsule.obj
 0002:000011b8       ??_7dgCollisionCone@@6B@   100761b8     physics_2009:dgCollisionCone.obj
 0002:00001230       __real@4038000000000000    10076230     physics_2009:dgCollisionCone.obj
 0002:00001238       __real@3fc3333340000000    10076238     physics_2009:dgCollisionCone.obj
 0002:00001240       __real@4000dca360000000    10076240     physics_2009:dgCollisionCone.obj
 0002:00001250       ??_7dgCollisionCylinder@@6B@ 10076250     physics_2009:dgCollisionCylinder.obj
 0002:000012d0       ??_7dgCollisionChamferCylinder@@6B@ 100762d0     physics_2009:dgCollisionChamferCylinder.obj
 0002:00001348       __real@3fe921fa00000000    10076348     physics_2009:dgCollisionChamferCylinder.obj
 0002:00001350       __real@3fd0c15155555555    10076350     physics_2009:dgCollisionChamferCylinder.obj
 0002:00001358       __real@3c32725de0000000    10076358     physics_2009:dgCollisionChamferCylinder.obj
 0002:00001370       __real@bfefff9720000000    10076370     corelib_2009:dgMatrix.obj
 0002:00001378       __real@3feffffde0000000    10076378     corelib_2009:dgMatrix.obj
 0002:00001380       __real@bfeffffde0000000    10076380     corelib_2009:dgMatrix.obj
 0002:00001388       __real@3f1a36e2eb1c432d    10076388     corelib_2009:dgTypes.obj
 0002:00001398       __real@3fe69fbe80000000    10076398     corelib_2009:dgPolyhedra.obj
 0002:000013a0       __real@bfecccccc0000000    100763a0     corelib_2009:dgPolyhedra.obj
 0002:000013a8       ??_7dgPolyhedra@@6B@       100763a8     corelib_2009:dgPolyhedra.obj
 0002:000013ac       ??_7dgPolygonSoupDatabase@@6B@ 100763ac     corelib_2009:dgAABBPolygonSoup.obj
 0002:000013cc       ??_7dgAABBPolygonSoup@@6B@ 100763cc     corelib_2009:dgAABBPolygonSoup.obj
 0002:000013f0       ??_7dgPolySoupFilterAllocator@@6B@ 100763f0     corelib_2009:dgPolygonSoupBuilder.obj
 0002:000013f8       __real@3fb5555560000000    100763f8     corelib_2009:dgPolygonSoupBuilder.obj
 0002:00001408       __FPinit                   10076408     LIBCMT:_fpinit_.obj
 0002:0000140c       __FPmtinit                 1007640c     LIBCMT:_fpinit_.obj
 0002:00001410       __FPmtterm                 10076410     LIBCMT:_fpinit_.obj
 0002:00001468       __pDefaultRawDllMain       10076468     LIBCMT:dllcrt0.obj
 0002:00001468       __pRawDllMain              10076468     LIBCMT:dllcrt0.obj
 0002:0000146c       ??_C@_05KLBDPFGC@e?$CL000?$AA@ 1007646c     LIBCMT:cvt.obj
 0002:00001478       __real@4150017ec0000000    10076478     LIBCMT:_testfdiv_.obj
 0002:00001480       __real@4147ffff80000000    10076480     LIBCMT:_testfdiv_.obj
 0002:00001488       ??_C@_0BK@NHEOCAHP@IsProcessorFeaturePresent?$AA@ 10076488     LIBCMT:_testfdiv_.obj
 0002:000014a4       ??_C@_08CPNIBGIE@KERNEL32?$AA@ 100764a4     LIBCMT:_testfdiv_.obj
 0002:00001518       ??_C@_03IIINPABG@tan?$AA@  10076518     LIBCMT:_libm_error_.obj
 0002:0000151c       ??_C@_03LALBNOCG@cos?$AA@  1007651c     LIBCMT:_libm_error_.obj
 0002:00001520       ??_C@_03BLEJJJBH@sin?$AA@  10076520     LIBCMT:_libm_error_.obj
 0002:00001524       ??_C@_04EHEDPDJG@modf?$AA@ 10076524     LIBCMT:_libm_error_.obj
 0002:0000152c       ??_C@_05PBJFFIGL@floor?$AA@ 1007652c     LIBCMT:_libm_error_.obj
 0002:00001534       ??_C@_04GFPJNGEK@ceil?$AA@ 10076534     LIBCMT:_libm_error_.obj
 0002:0000153c       ??_C@_04MLLJIGOK@atan?$AA@ 1007653c     LIBCMT:_libm_error_.obj
 0002:00001544       ??_C@_05EOHGHCHD@exp10?$AA@ 10076544     LIBCMT:_libm_error_.obj
 0002:0000154c       ??_C@_04PDIFKINK@acos?$AA@ 1007654c     LIBCMT:_libm_error_.obj
 0002:00001554       ??_C@_04FIHNOPOL@asin?$AA@ 10076554     LIBCMT:_libm_error_.obj
 0002:0000155c       ??_C@_03MGHMBJCF@log?$AA@  1007655c     LIBCMT:_libm_error_.obj
 0002:00001560       ??_C@_05HGHHAHAP@log10?$AA@ 10076560     LIBCMT:_libm_error_.obj
 0002:00001568       ??_C@_03KHJOGHMM@exp?$AA@  10076568     LIBCMT:_libm_error_.obj
 0002:0000156c       ??_C@_03JGHBODFD@pow?$AA@  1007656c     LIBCMT:_libm_error_.obj
 0002:00001570       ??_C@_0P@MIGLKIOC@CorExitProcess?$AA@ 10076570     LIBCMT:crt0dat.obj
 0002:00001580       ??_C@_1BI@BGOHAHKC@?$AAm?$AAs?$AAc?$AAo?$AAr?$AAe?$AAe?$AA?4?$AAd?$AAl?$AAl?$AA?$AA@ 10076580     LIBCMT:crt0dat.obj
 0002:00001598       ??_C@_0P@GGKDKEEG@runtime?5error?5?$AA@ 10076598     LIBCMT:crt0msg.obj
 0002:000015a8       ??_C@_02PCIJFNDE@?$AN?6?$AA@ 100765a8     LIBCMT:crt0msg.obj
 0002:000015ac       ??_C@_0O@MJNIPGOH@TLOSS?5error?$AN?6?$AA@ 100765ac     LIBCMT:crt0msg.obj
 0002:000015bc       ??_C@_0N@BONNPDHF@SING?5error?$AN?6?$AA@ 100765bc     LIBCMT:crt0msg.obj
 0002:000015cc       ??_C@_0P@MBDAJNE@DOMAIN?5error?$AN?6?$AA@ 100765cc     LIBCMT:crt0msg.obj
 0002:000015e0       ??_C@_0JL@DFDOOABL@R6034?$AN?6An?5application?5has?5made?5a@ 100765e0     LIBCMT:crt0msg.obj
 0002:00001680       ??_C@_0PH@EPAFIJ@R6033?$AN?6?9?5Attempt?5to?5use?5MSIL?5cod@ 10076680     LIBCMT:crt0msg.obj
 0002:00001778       ??_C@_0DD@BKEEABMM@R6032?$AN?6?9?5not?5enough?5space?5for?5lo@ 10076778     LIBCMT:crt0msg.obj
 0002:000017b0       ??_C@_0GD@OFKILIED@R6031?$AN?6?9?5Attempt?5to?5initialize?5t@ 100767b0     LIBCMT:crt0msg.obj
 0002:00001814       ??_C@_0BP@LPMHJOKI@R6030?$AN?6?9?5CRT?5not?5initialized?$AN?6?$AA@ 10076814     LIBCMT:crt0msg.obj
 0002:00001834       ??_C@_0CF@KJDAIALP@R6028?$AN?6?9?5unable?5to?5initialize?5he@ 10076834     LIBCMT:crt0msg.obj
 0002:0000185c       ??_C@_0DF@GAKBPDFP@R6027?$AN?6?9?5not?5enough?5space?5for?5lo@ 1007685c     LIBCMT:crt0msg.obj
 0002:00001894       ??_C@_0DF@IBLNNAIG@R6026?$AN?6?9?5not?5enough?5space?5for?5st@ 10076894     LIBCMT:crt0msg.obj
 0002:000018cc       ??_C@_0CG@IOHKGFNJ@R6025?$AN?6?9?5pure?5virtual?5function?5c@ 100768cc     LIBCMT:crt0msg.obj
 0002:000018f4       ??_C@_0DF@JIJJFJDC@R6024?$AN?6?9?5not?5enough?5space?5for?5_o@ 100768f4     LIBCMT:crt0msg.obj
 0002:0000192c       ??_C@_0CJ@EGEJHFME@R6019?$AN?6?9?5unable?5to?5open?5console?5@ 1007692c     LIBCMT:crt0msg.obj
 0002:00001958       ??_C@_0CB@GNHNIELH@R6018?$AN?6?9?5unexpected?5heap?5error?$AN?6@ 10076958     LIBCMT:crt0msg.obj
 0002:0000197c       ??_C@_0CN@FOLDKNG@R6017?$AN?6?9?5unexpected?5multithread?5@ 1007697c     LIBCMT:crt0msg.obj
 0002:000019ac       ??_C@_0CM@FAHFJNHO@R6016?$AN?6?9?5not?5enough?5space?5for?5th@ 100769ac     LIBCMT:crt0msg.obj
 0002:000019d8       ??_C@_0JG@LBKMGKLD@?$AN?6This?5application?5has?5requested@ 100769d8     LIBCMT:crt0msg.obj
 0002:00001a70       ??_C@_0CM@FLCNIPKK@R6009?$AN?6?9?5not?5enough?5space?5for?5en@ 10076a70     LIBCMT:crt0msg.obj
 0002:00001a9c       ??_C@_0CK@KMMJOAPP@R6008?$AN?6?9?5not?5enough?5space?5for?5ar@ 10076a9c     LIBCMT:crt0msg.obj
 0002:00001ac8       ??_C@_0CN@LEKKICBM@R6002?$AN?6?9?5floating?5point?5support?5@ 10076ac8     LIBCMT:crt0msg.obj
 0002:00001af8       ??_C@_0CF@GOGNBNAK@Microsoft?5Visual?5C?$CL?$CL?5Runtime?5Lib@ 10076af8     LIBCMT:crt0msg.obj
 0002:00001b20       ??_C@_02PHMGELLB@?6?6?$AA@ 10076b20     LIBCMT:crt0msg.obj
 0002:00001b24       ??_C@_03KHICJKCI@?4?4?4?$AA@ 10076b24     LIBCMT:crt0msg.obj
 0002:00001b28       ??_C@_0BH@DNAGHKFM@?$DMprogram?5name?5unknown?$DO?$AA@ 10076b28     LIBCMT:crt0msg.obj
 0002:00001b40       ??_C@_0BK@OFGJDLJJ@Runtime?5Error?$CB?6?6Program?3?5?$AA@ 10076b40     LIBCMT:crt0msg.obj
 0002:00001b5c       ??_C@_0O@NLDKAIKN@EncodePointer?$AA@ 10076b5c     LIBCMT:tidtable.obj
 0002:00001b6c       ??_C@_1BK@DBDEIDLH@?$AAK?$AAE?$AAR?$AAN?$AAE?$AAL?$AA3?$AA2?$AA?4?$AAD?$AAL?$AAL?$AA?$AA@ 10076b6c     LIBCMT:tidtable.obj
 0002:00001b88       ??_C@_0O@KBPMFGHI@DecodePointer?$AA@ 10076b88     LIBCMT:tidtable.obj
 0002:00001b98       ??_C@_07PEJMOBNF@FlsFree?$AA@ 10076b98     LIBCMT:tidtable.obj
 0002:00001ba0       ??_C@_0M@JCPCPOEF@FlsSetValue?$AA@ 10076ba0     LIBCMT:tidtable.obj
 0002:00001bac       ??_C@_0M@GDNOONDI@FlsGetValue?$AA@ 10076bac     LIBCMT:tidtable.obj
 0002:00001bb8       ??_C@_08KNHFBNJ@FlsAlloc?$AA@ 10076bb8     LIBCMT:tidtable.obj
 0002:00001bc8       __XcptActTab               10076bc8     LIBCMT:winxfltr.obj
 0002:00001c40       ??_C@_1O@CEDCILHN@?$AA?$CI?$AAn?$AAu?$AAl?$AAl?$AA?$CJ?$AA?$AA@ 10076c40     LIBCMT:output.obj
 0002:00001c50       ??_C@_06OJHGLDPL@?$CInull?$CJ?$AA@ 10076c50     LIBCMT:output.obj
 0002:00001c58       ___lookuptable             10076c58     LIBCMT:output.obj
 0002:00005608       __DEFAULT_CW_in_mem        1007a608     LIBCMT:_common_.obj
 0002:0000560a       __pi_by_2_to_61            1007a60a     LIBCMT:_common_.obj
 0002:00005fd0       ??_C@_0L@KDOEJCKC@_nextafter?$AA@ 1007afd0     LIBCMT:_fpexcept_.obj
 0002:00005fdc       ??_C@_05JGDBENOH@_logb?$AA@ 1007afdc     LIBCMT:_fpexcept_.obj
 0002:00005fe4       ??_C@_03ONILCKOB@_yn?$AA@  1007afe4     LIBCMT:_fpexcept_.obj
 0002:00005fe8       ??_C@_03NAKIGLHK@_y1?$AA@  1007afe8     LIBCMT:_fpexcept_.obj
 0002:00005fec       ??_C@_03MJLDFKDL@_y0?$AA@  1007afec     LIBCMT:_fpexcept_.obj
 0002:00005ff0       ??_C@_05GKKHEGJL@frexp?$AA@ 1007aff0     LIBCMT:_fpexcept_.obj
 0002:00005ff8       ??_C@_04KEPJIHGP@fmod?$AA@ 1007aff8     LIBCMT:_fpexcept_.obj
 0002:00006000       ??_C@_06MEIMCGCF@_hypot?$AA@ 1007b000     LIBCMT:_fpexcept_.obj
 0002:00006008       ??_C@_05KBKMEMPO@_cabs?$AA@ 1007b008     LIBCMT:_fpexcept_.obj
 0002:00006010       ??_C@_05CEJMAHNP@ldexp?$AA@ 1007b010     LIBCMT:_fpexcept_.obj
 0002:00006018       ??_C@_04ODHECPBC@fabs?$AA@ 1007b018     LIBCMT:_fpexcept_.obj
 0002:00006020       ??_C@_04EIAKFFMI@sqrt?$AA@ 1007b020     LIBCMT:_fpexcept_.obj
 0002:00006028       ??_C@_05KNGEOGJB@atan2?$AA@ 1007b028     LIBCMT:_fpexcept_.obj
 0002:00006030       ??_C@_04FJHINJAO@tanh?$AA@ 1007b030     LIBCMT:_fpexcept_.obj
 0002:00006038       ??_C@_04HPJJNFIM@cosh?$AA@ 1007b038     LIBCMT:_fpexcept_.obj
 0002:00006040       ??_C@_04COOMCNPB@sinh?$AA@ 1007b040     LIBCMT:_fpexcept_.obj
 0002:00006048       ??_C@_0BI@DFKBFLJE@GetProcessWindowStation?$AA@ 1007b048     LIBCMT:crtmbox.obj
 0002:00006060       ??_C@_0BK@CIDNPOGP@GetUserObjectInformationA?$AA@ 1007b060     LIBCMT:crtmbox.obj
 0002:0000607c       ??_C@_0BD@HHGDFDBJ@GetLastActivePopup?$AA@ 1007b07c     LIBCMT:crtmbox.obj
 0002:00006090       ??_C@_0BA@HNOPNCHB@GetActiveWindow?$AA@ 1007b090     LIBCMT:crtmbox.obj
 0002:000060a0       ??_C@_0M@CHKKJDAI@MessageBoxA?$AA@ 1007b0a0     LIBCMT:crtmbox.obj
 0002:000060ac       ??_C@_0L@NDEGIDAG@USER32?4DLL?$AA@ 1007b0ac     LIBCMT:crtmbox.obj
 0002:000060b8       ___lookuptable_s           1007b0b8     LIBCMT:outputs.obj
 0002:00006114       ??_C@_13NOLLCAOD@?$AA?$AA?$AA?$AA@ 1007b114     LIBCMT:a_map.obj
 0002:00006118       ___newctype                1007b118     LIBCMT:ctype.obj
 0002:00006418       __wctype                   1007b418     LIBCMT:ctype.obj
 0002:00006620       ___newclmap                1007b620     LIBCMT:ctype.obj
 0002:000067a0       ___newcumap                1007b7a0     LIBCMT:ctype.obj
 0002:00006920       ??_C@_08JCCMCCIL@HH?3mm?3ss?$AA@ 1007b920     LIBCMT:strftime.obj
 0002:0000692c       ??_C@_0BE@CKGJFCPC@dddd?0?5MMMM?5dd?0?5yyyy?$AA@ 1007b92c     LIBCMT:strftime.obj
 0002:00006940       ??_C@_08BPBNCDIB@MM?1dd?1yy?$AA@ 1007b940     LIBCMT:strftime.obj
 0002:0000694c       ??_C@_02CJNFDJBF@PM?$AA@   1007b94c     LIBCMT:strftime.obj
 0002:00006950       ??_C@_02DEDBPAFC@AM?$AA@   1007b950     LIBCMT:strftime.obj
 0002:00006954       ??_C@_08EDHMEBNP@December?$AA@ 1007b954     LIBCMT:strftime.obj
 0002:00006960       ??_C@_08HCHEGEOA@November?$AA@ 1007b960     LIBCMT:strftime.obj
 0002:0000696c       ??_C@_07JJNFCEND@October?$AA@ 1007b96c     LIBCMT:strftime.obj
 0002:00006974       ??_C@_09BHHEALKD@September?$AA@ 1007b974     LIBCMT:strftime.obj
 0002:00006980       ??_C@_06LBBHFDDG@August?$AA@ 1007b980     LIBCMT:strftime.obj
 0002:00006988       ??_C@_04MIEPOIFP@July?$AA@ 1007b988     LIBCMT:strftime.obj
 0002:00006990       ??_C@_04CNLMGBGM@June?$AA@ 1007b990     LIBCMT:strftime.obj
 0002:00006998       ??_C@_05DMJDNLEJ@April?$AA@ 1007b998     LIBCMT:strftime.obj
 0002:000069a0       ??_C@_05HPCKOFNC@March?$AA@ 1007b9a0     LIBCMT:strftime.obj
 0002:000069a8       ??_C@_08GNJGEPFN@February?$AA@ 1007b9a8     LIBCMT:strftime.obj
 0002:000069b4       ??_C@_07CGJPFGJA@January?$AA@ 1007b9b4     LIBCMT:strftime.obj
 0002:000069bc       ??_C@_03MKABNOCG@Dec?$AA@  1007b9bc     LIBCMT:strftime.obj
 0002:000069c0       ??_C@_03JPJOFNIA@Nov?$AA@  1007b9c0     LIBCMT:strftime.obj
 0002:000069c4       ??_C@_03BMAOKBAD@Oct?$AA@  1007b9c4     LIBCMT:strftime.obj
 0002:000069c8       ??_C@_03GGCAPAJC@Sep?$AA@  1007b9c8     LIBCMT:strftime.obj
 0002:000069cc       ??_C@_03IFJFEIGA@Aug?$AA@  1007b9cc     LIBCMT:strftime.obj
 0002:000069d0       ??_C@_03LBGABGKK@Jul?$AA@  1007b9d0     LIBCMT:strftime.obj
 0002:000069d4       ??_C@_03IDFGHECI@Jun?$AA@  1007b9d4     LIBCMT:strftime.obj
 0002:000069d8       ??_C@_03CNMDKL@May?$AA@    1007b9d8     LIBCMT:strftime.obj
 0002:000069dc       ??_C@_03LEOLGMJP@Apr?$AA@  1007b9dc     LIBCMT:strftime.obj
 0002:000069e0       ??_C@_03ODNJBKGA@Mar?$AA@  1007b9e0     LIBCMT:strftime.obj
 0002:000069e4       ??_C@_03HJBDCHOM@Feb?$AA@  1007b9e4     LIBCMT:strftime.obj
 0002:000069e8       ??_C@_03JIHJHPIE@Jan?$AA@  1007b9e8     LIBCMT:strftime.obj
 0002:000069ec       ??_C@_08INBOOONO@Saturday?$AA@ 1007b9ec     LIBCMT:strftime.obj
 0002:000069f8       ??_C@_06JECMNKMI@Friday?$AA@ 1007b9f8     LIBCMT:strftime.obj
 0002:00006a00       ??_C@_08HACCIKIA@Thursday?$AA@ 1007ba00     LIBCMT:strftime.obj
 0002:00006a0c       ??_C@_09DLIGFAKA@Wednesday?$AA@ 1007ba0c     LIBCMT:strftime.obj
 0002:00006a18       ??_C@_07BAAGCFCM@Tuesday?$AA@ 1007ba18     LIBCMT:strftime.obj
 0002:00006a20       ??_C@_06JLEDEDGH@Monday?$AA@ 1007ba20     LIBCMT:strftime.obj
 0002:00006a28       ??_C@_06OOPIFAJ@Sunday?$AA@ 1007ba28     LIBCMT:strftime.obj
 0002:00006a30       ??_C@_03FEFJNEK@Sat?$AA@   1007ba30     LIBCMT:strftime.obj
 0002:00006a34       ??_C@_03IDIOELNC@Fri?$AA@  1007ba34     LIBCMT:strftime.obj
 0002:00006a38       ??_C@_03IOFIKPDN@Thu?$AA@  1007ba38     LIBCMT:strftime.obj
 0002:00006a3c       ??_C@_03MHOMLAJA@Wed?$AA@  1007ba3c     LIBCMT:strftime.obj
 0002:00006a40       ??_C@_03NAGEINEP@Tue?$AA@  1007ba40     LIBCMT:strftime.obj
 0002:00006a44       ??_C@_03PDAGKDH@Mon?$AA@   1007ba44     LIBCMT:strftime.obj
 0002:00006a48       ??_C@_03KOEHGMDN@Sun?$AA@  1007ba48     LIBCMT:strftime.obj
 0002:00006a4c       ??_C@_06IMKFLFPG@1?$CDQNAN?$AA@ 1007ba4c     LIBCMT:_x10fout_.obj
 0002:00006a54       ??_C@_05DNEBIAHO@1?$CDINF?$AA@ 1007ba54     LIBCMT:_x10fout_.obj
 0002:00006a5c       ??_C@_05PHHOCPM@1?$CDIND?$AA@ 1007ba5c     LIBCMT:_x10fout_.obj
 0002:00006a64       ??_C@_06PGGFOGJG@1?$CDSNAN?$AA@ 1007ba64     LIBCMT:_x10fout_.obj
 0002:00006a74       ___dnames                  1007ba74     LIBCMT:timeset.obj
 0002:00006a8c       ___mnames                  1007ba8c     LIBCMT:timeset.obj
 0002:00006ab4       ??_C@_07GPDNMNG@CONOUT$?$AA@ 1007bab4     LIBCMT:initcon.obj
 0002:00006ac0       __load_config_used         1007bac0     LIBCMT:loadcfg.obj
 0002:00006b70       ___safe_se_handler_table   1007bb70     <linker-defined>
 0002:00006b7c       ___rtc_iaa                 1007bb7c     LIBCMT:_initsect_.obj
 0002:00006b80       ___rtc_izz                 1007bb80     LIBCMT:_initsect_.obj
 0002:00006b84       ___rtc_taa                 1007bb84     LIBCMT:_initsect_.obj
 0002:00006b88       ___rtc_tzz                 1007bb88     LIBCMT:_initsect_.obj
 0002:00006f64       __IMPORT_DESCRIPTOR_KERNEL32 1007bf64     kernel32:KERNEL32.dll
 0002:00006f78       __NULL_IMPORT_DESCRIPTOR   1007bf78     kernel32:KERNEL32.dll
 0003:00000040       ?m_rayCastSimplex@dgConvexCollision@@1PAY03HA 1007f040     physics_2009:dgConvexCollision.obj
 0003:00000080       ?m_hullDirs@dgConvexCollision@@1PAVdgTriplex@@A 1007f080     physics_2009:dgConvexCollision.obj
 0003:000001d0       ?mult@dgConvexMassData@@2PANA 1007f1d0     physics_2009:dgConvexCollision.obj
 0003:00000230       ?m_negOne@dgConvexCollision@@1VdgVector@@A 1007f230     physics_2009:dgConvexCollision.obj
 0003:00000250       ?m_nrh0p5@dgConvexCollision@@1VdgVector@@A 1007f250     physics_2009:dgConvexCollision.obj
 0003:00000270       ?m_nrh3p0@dgConvexCollision@@1VdgVector@@A 1007f270     physics_2009:dgConvexCollision.obj
 0003:00000290       ?m_indexStep@dgConvexCollision@@1VdgVector@@A 1007f290     physics_2009:dgConvexCollision.obj
 0003:000002b0       ?m_index_0123@dgConvexCollision@@1VdgVector@@A 1007f2b0     physics_2009:dgConvexCollision.obj
 0003:000002d0       ?m_index_4567@dgConvexCollision@@1VdgVector@@A 1007f2d0     physics_2009:dgConvexCollision.obj
 0003:000002f0       ?m_huge@dgConvexCollision@@1VdgVector@@A 1007f2f0     physics_2009:dgConvexCollision.obj
 0003:00000310       ?m_negativeTiny@dgConvexCollision@@1VdgVector@@A 1007f310     physics_2009:dgConvexCollision.obj
 0003:00000330       ?m_aabb_padd@dgConvexCollision@@1VdgVector@@A 1007f330     physics_2009:dgConvexCollision.obj
 0003:00000350       ?m_faceIndex@dgContactSolver@@2PAY03HA 1007f350     physics_2009:dgMinkowskiConv.obj
 0003:00000390       ?m_edgeArray@dgCollisionBox@@1PAVdgConvexSimplexEdge@@A 1007f390     physics_2009:dgCollisionBox.obj
 0003:00000530       ?g_allocaror@dgInternalMemory@@3VdgMemoryAllocator@@A 1007f530     corelib_2009:dgMemory.obj
 0003:00000a54       __fltused                  1007fa54     LIBCMT:_fpinit_.obj
 0003:00000a58       __ldused                   1007fa58     LIBCMT:_fpinit_.obj
 0003:00000a60       __half                     1007fa60     LIBCMT:_pow_.obj
 0003:00000a90       __cfltcvt_tab              1007fa90     LIBCMT:cmiscdat.obj
 0003:00000be0       __amblksiz                 1007fbe0     LIBCMT:heapinit.obj
 0003:00000be4       __aexit_rtn                1007fbe4     LIBCMT:crt0dat.obj
 0003:00000e10       ___flsindex                1007fe10     LIBCMT:tidtable.obj
 0003:00000e14       ___getvalueindex           1007fe14     LIBCMT:tidtable.obj
 0003:00000e18       ___badioinfo               1007fe18     LIBCMT:ioinit.obj
 0003:00000e58       __First_FPE_Indx           1007fe58     LIBCMT:winxfltr.obj
 0003:00000e5c       __Num_FPE                  1007fe5c     LIBCMT:winxfltr.obj
 0003:00000e60       __XcptActTabSize           1007fe60     LIBCMT:winxfltr.obj
 0003:00000e64       __XcptActTabCount          1007fe64     LIBCMT:winxfltr.obj
 0003:00000e68       ___nullstring              1007fe68     LIBCMT:output.obj
 0003:00000e6c       ___wnullstring             1007fe6c     LIBCMT:output.obj
 0003:00000e8c       ___abort_behavior          1007fe8c     LIBCMT:abort.obj
 0003:00000e90       __infinity                 1007fe90     LIBCMT:_87tran_.obj
 0003:00000e9a       __minfinity                1007fe9a     LIBCMT:_87tran_.obj
 0003:00000ea4       __logemax                  1007fea4     LIBCMT:_87tran_.obj
 0003:00000eca       __OP_EXPjmptab             1007feca     LIBCMT:_87tran_.obj
 0003:00000ef0       __indefinite               1007fef0     LIBCMT:_87disp_.obj
 0003:00000efa       __piby2                    1007fefa     LIBCMT:_87disp_.obj
 0003:00000f20       ___initialmbcinfo          1007ff20     LIBCMT:mbctype.obj
 0003:00001140       __mbctype                  10080140     LIBCMT:mbctype.obj
 0003:00001248       __mbcasemap                10080248     LIBCMT:mbctype.obj
 0003:00001348       ___ptmbcinfo               10080348     LIBCMT:mbctype.obj
 0003:00001444       ___globallocalestatus      10080444     LIBCMT:glstatus.obj
 0003:00001448       ___clocalestr              10080448     LIBCMT:nlsdata2.obj
 0003:00001450       ___initiallocinfo          10080450     LIBCMT:nlsdata2.obj
 0003:00001528       ___ptlocinfo               10080528     LIBCMT:nlsdata2.obj
 0003:0000152c       ___lc_clike                1008052c     LIBCMT:nlsdata2.obj
 0003:00001530       ___initiallocalestructinfo 10080530     LIBCMT:nlsdata2.obj
 0003:00001540       ___security_cookie         10080540     LIBCMT:gs_cookie.obj
 0003:00001544       ___security_cookie_complement 10080544     LIBCMT:gs_cookie.obj
 0003:00001550       __matherr_flag             10080550     LIBCMT:_matherr_.obj
 0003:00001640       __d_inf                    10080640     LIBCMT:_util_.obj
 0003:00001648       __d_ind                    10080648     LIBCMT:_util_.obj
 0003:00001650       __d_max                    10080650     LIBCMT:_util_.obj
 0003:00001658       __d_min                    10080658     LIBCMT:_util_.obj
 0003:00001660       __d_mzero                  10080660     LIBCMT:_util_.obj
 0003:00001668       __iob                      10080668     LIBCMT:_file.obj
 0003:00001a50       __pctype                   10080a50     LIBCMT:ctype.obj
 0003:00001a54       __pwctype                  10080a54     LIBCMT:ctype.obj
 0003:00001a58       ___lc_time_c               10080a58     LIBCMT:strftime.obj
 0003:00001b10       ___lc_time_curr            10080b10     LIBCMT:strftime.obj
 0003:00001b14       ___lconv_static_decimal    10080b14     LIBCMT:lconv.obj
 0003:00001b18       ___lconv_c                 10080b18     LIBCMT:lconv.obj
 0003:00001b48       ___lconv                   10080b48     LIBCMT:lconv.obj
 0003:00001b4c       ___mb_cur_max              10080b4c     LIBCMT:nlsdata1.obj
 0003:00001b50       ___decimal_point           10080b50     LIBCMT:nlsdata1.obj
 0003:00001b54       ___decimal_point_length    10080b54     LIBCMT:nlsdata1.obj
 0003:00001b90       __NLG_Destination          10080b90     LIBCMT:exsup.obj
 0003:00001bb0       __timezone                 10080bb0     LIBCMT:timeset.obj
 0003:00001bb4       __daylight                 10080bb4     LIBCMT:timeset.obj
 0003:00001bb8       __dstbias                  10080bb8     LIBCMT:timeset.obj
 0003:00001c40       __tzname                   10080c40     LIBCMT:timeset.obj
 0003:00001c60       __pow10pos                 10080c60     LIBCMT:_constpow_.obj
 0003:00001dc0       __pow10neg                 10080dc0     LIBCMT:_constpow_.obj
 0003:00001f1c       __coninpfh                 10080f1c     LIBCMT:initcon.obj
 0003:00001f20       __confh                    10080f20     LIBCMT:initcon.obj
 0003:00001f24       __lpdays                   10080f24     LIBCMT:days.obj
 0003:00001f58       __days                     10080f58     LIBCMT:days.obj
 0003:00001fb0       ?m_edgeArray@dgCollisionSphere@@1PAVdgConvexSimplexEdge@@A 10080fb0     physics_2009:dgCollisionSphere.obj
 0003:000025b0       ?m_shapeRefCount@dgCollisionSphere@@1HA 100815b0     physics_2009:dgCollisionSphere.obj
 0003:000025c0       ?m_unitSphere@dgCollisionSphere@@1PAVdgVector@@A 100815c0     physics_2009:dgCollisionSphere.obj
 0003:00002800       ?m_iniliazised@dgConvexCollision@@1HA 10081800     physics_2009:dgConvexCollision.obj
 0003:00002810       ?m_zero@dgConvexCollision@@1VdgVector@@A 10081810     physics_2009:dgConvexCollision.obj
 0003:00002830       ?m_signMask@dgConvexCollision@@1VdgVector@@A 10081830     physics_2009:dgConvexCollision.obj
 0003:00002850       ?m_triplexMask@dgConvexCollision@@1VdgVector@@A 10081850     physics_2009:dgConvexCollision.obj
 0003:00002870       ?m_multiResDir@dgConvexCollision@@1PAVdgVector@@A 10081870     physics_2009:dgConvexCollision.obj
 0003:00002970       ?m_multiResDir_sse@dgConvexCollision@@1PAVdgVector@@A 10081970     physics_2009:dgConvexCollision.obj
 0003:00002a30       ?m_vertex@dgCollisionHeightField@@0PAPAVdgVector@@A 10081a30     physics_2009:dgCollisionHeightField.obj
 0003:00002a50       ?m_vertexCount@dgCollisionHeightField@@0PAHA 10081a50     physics_2009:dgCollisionHeightField.obj
 0003:00002a70       ?m_refCount@dgCollisionHeightField@@0HA 10081a70     physics_2009:dgCollisionHeightField.obj
 0003:00002a80       ?m_dir@dgContactSolver@@2PAVdgVector@@A 10081a80     physics_2009:dgMinkowskiConv.obj
 0003:00002c40       ?m_edgeArray@dgCollisionCapsule@@0PAVdgConvexSimplexEdge@@A 10081c40     physics_2009:dgCollisionCapsule.obj
 0003:00003780       ?m_shapeRefCount@dgCollisionCapsule@@0HA 10082780     physics_2009:dgCollisionCapsule.obj
 0003:00003788       ?m_edgeArray@dgCollisionCone@@0PAVdgConvexSimplexEdge@@A 10082788     physics_2009:dgCollisionCone.obj
 0003:00003988       ?m_shapeRefCount@dgCollisionCone@@0HA 10082988     physics_2009:dgCollisionCone.obj
 0003:00003990       ?m_edgeArray@dgCollisionCylinder@@0PAVdgConvexSimplexEdge@@A 10082990     physics_2009:dgCollisionCylinder.obj
 0003:00003c90       ?m_shapeRefCount@dgCollisionCylinder@@0HA 10082c90     physics_2009:dgCollisionCylinder.obj
 0003:00003ca0       ?m_edgeArray@dgCollisionChamferCylinder@@0PAVdgConvexSimplexEdge@@A 10082ca0     physics_2009:dgCollisionChamferCylinder.obj
 0003:000045a0       ?m_shapeRefCount@dgCollisionChamferCylinder@@0HA 100835a0     physics_2009:dgCollisionChamferCylinder.obj
 0003:000045b0       ?m_shapesDirs@dgCollisionChamferCylinder@@0PAVdgVector@@A 100835b0     physics_2009:dgCollisionChamferCylinder.obj
 0003:00004734       ___fastflag                10083734     LIBCMT:_fpinit_.obj
 0003:00004738       __adjust_fdiv              10083738     LIBCMT:_fpinit_.obj
 0003:00004740       __aenvptr                  10083740     LIBCMT:dllcrt0.obj
 0003:00004744       __wenvptr                  10083744     LIBCMT:dllcrt0.obj
 0003:00004748       ___error_mode              10083748     LIBCMT:dllcrt0.obj
 0003:0000474c       ___app_type                1008374c     LIBCMT:dllcrt0.obj
 0003:000048a8       ___sbh_pHeaderDefer        100838a8     LIBCMT:sbheap.obj
 0003:000048ac       __crtheap                  100838ac     LIBCMT:heapinit.obj
 0003:000048b0       __umaskval                 100838b0     LIBCMT:crt0dat.obj
 0003:000048b4       ___argc                    100838b4     LIBCMT:crt0dat.obj
 0003:000048b8       ___argv                    100838b8     LIBCMT:crt0dat.obj
 0003:000048bc       ___wargv                   100838bc     LIBCMT:crt0dat.obj
 0003:000048c0       __environ                  100838c0     LIBCMT:crt0dat.obj
 0003:000048c4       ___initenv                 100838c4     LIBCMT:crt0dat.obj
 0003:000048c8       __wenviron                 100838c8     LIBCMT:crt0dat.obj
 0003:000048cc       ___winitenv                100838cc     LIBCMT:crt0dat.obj
 0003:000048d0       __pgmptr                   100838d0     LIBCMT:crt0dat.obj
 0003:000048d4       __wpgmptr                  100838d4     LIBCMT:crt0dat.obj
 0003:000048d8       __exitflag                 100838d8     LIBCMT:crt0dat.obj
 0003:000048dc       __C_Termination_Done       100838dc     LIBCMT:crt0dat.obj
 0003:000048e0       __C_Exit_Done              100838e0     LIBCMT:crt0dat.obj
 0003:00004bfc       ?_pnhHeap@@3P6AHI@ZA       10083bfc     LIBCMT:handler.obj
 0003:00004c00       __newmode                  10083c00     LIBCMT:_newmode.obj
 0003:00004c04       _gpFlsAlloc                10083c04     LIBCMT:tidtable.obj
 0003:00004c08       _gpFlsGetValue             10083c08     LIBCMT:tidtable.obj
 0003:00004c0c       _gpFlsSetValue             10083c0c     LIBCMT:tidtable.obj
 0003:00004c10       _gpFlsFree                 10083c10     LIBCMT:tidtable.obj
 0003:00004c14       __maxwait                  10083c14     LIBCMT:crtheap.obj
 0003:00004d24       ___pInvalidArgHandler      10083d24     LIBCMT:invarg.obj
 0003:00004d44       ___pPurecall               10083d44     LIBCMT:inithelp.obj
 0003:00004d4c       ___mbulinfo                10083d4c     LIBCMT:mbctype.obj
 0003:00004d58       ___mbcodepage              10083d58     LIBCMT:mbctype.obj
 0003:00004d5c       ___ismbcodepage            10083d5c     LIBCMT:mbctype.obj
 0003:00004d60       ___mblcid                  10083d60     LIBCMT:mbctype.obj
 0003:00004d64       ___locale_changed          10083d64     LIBCMT:setlocal.obj
 0003:00004d68       ___lc_handle               10083d68     LIBCMT:nlsdata2.obj
 0003:00004d80       ___lc_codepage             10083d80     LIBCMT:nlsdata2.obj
 0003:00004d84       ___lc_collate_cp           10083d84     LIBCMT:nlsdata2.obj
 0003:00004d88       __outputformat             10083d88     LIBCMT:outputformat.obj
 0003:00004d90       ?__pInconsistency@@3P6AXXZA 10083d90     LIBCMT:hooks.obj
 0003:00004dac       __cflush                   10083dac     LIBCMT:_file.obj
 0003:00004dbc       ___lconv_static_null       10083dbc     LIBCMT:lconv.obj
 0003:000050e4       __stdbuf                   100840e4     LIBCMT:_sftbuf.obj
 0003:000051a8       __debugger_hook_dummy      100841a8     <common>
 0003:000051ac       ___piob                    100841ac     <common>
 0003:000051c0       __bufin                    100841c0     <common>
 0003:000061c0       __nstream                  100851c0     <common>
 0003:000061c4       __nhandle                  100851c4     <common>
 0003:000061e0       ___pioinfo                 100851e0     <common>
 0003:000062e0       ___env_initialized         100852e0     <common>
 0003:000062e4       ___onexitend               100852e4     <common>
 0003:000062e8       ___onexitbegin             100852e8     <common>
 0003:000062ec       ___mbctype_initialized     100852ec     <common>
 0003:000062f0       ___dyn_tls_init_callback   100852f0     <common>
 0003:000062f4       ___active_heap             100852f4     <common>
 0003:000062f8       __pDestructExceptionObject 100852f8     <common>
 0003:000062fc       ___sbh_cntHeaderList       100852fc     <common>
 0003:00006300       ___sbh_pHeaderList         10085300     <common>
 0003:00006304       ___sbh_threshold           10085304     <common>
 0003:00006308       ___sbh_pHeaderScan         10085308     <common>
 0003:0000630c       ___sbh_sizeHeaderList      1008530c     <common>
 0003:00006310       ___sbh_indGroupDefer       10085310     <common>
 0003:00006314       ___use_sse2_mathfcns       10085314     <common>
 0003:00006318       ___sse2_available          10085318     <common>
 0003:0000631c       __pmatherr                 1008531c     <common>
 0003:00006320       __acmdln                   10085320     <common>

 entry point at        0001:000641c6

 Static symbols

 0001:00055930       ?SortVertices@InternalGeoUtil@@YAHQANHHHHN@Z 10056930 f   corelib_2009:dgTypes.obj
 0001:000563a0       ?QuickSortVertices@InternalGeoUtil@@YAHQANHHHHN@Z 100573a0 f   corelib_2009:dgTypes.obj
 0001:00057700       ?NormalizeVertex@InternalPolyhedra@@YAXHQAVdgTriplex@@QBNH@Z 10058700 f   corelib_2009:dgPolyhedra.obj
 0001:00057850       ?EdgePlane@InternalPolyhedra@@YA?AVdgBigPlane@@HHHQBVdgTriplex@@@Z 10058850 f   corelib_2009:dgPolyhedra.obj
 0001:00057970       ?UnboundedLoopPlane@InternalPolyhedra@@YA?AVdgBigPlane@@HHHQBVdgTriplex@@@Z 10058970 f   corelib_2009:dgPolyhedra.obj
 0001:00057ac0       ?BigFaceNormal@InternalPolyhedra@@YA?AVdgBigVector@@PAVdgEdge@@QBNH@Z 10058ac0 f   corelib_2009:dgPolyhedra.obj
 0001:00057bd0       ?CalculateVertexMetrics@InternalPolyhedra@@YAXQAUVERTEX_METRIC_STRUCT@1@QBVdgTriplex@@PAVdgEdge@@@Z 10058bd0 f   corelib_2009:dgPolyhedra.obj
 0001:00057cb0       ?IsEssensialPointDiagonal@InternalPolyhedra@@YA_NPAVdgEdge@@ABVdgBigVector@@QBNH@Z 10058cb0 f   corelib_2009:dgPolyhedra.obj
 0001:000581b0       ?CalculateAllMetrics@InternalPolyhedra@@YAXPBVdgPolyhedra@@QAUVERTEX_METRIC_STRUCT@1@QBVdgTriplex@@@Z 100591b0 f   corelib_2009:dgPolyhedra.obj
 0001:00058440       ?EdgePenalty@InternalPolyhedra@@YANABVdgPolyhedra@@QBVdgTriplex@@PAVdgEdge@@@Z 10059440 f   corelib_2009:dgPolyhedra.obj
 0001:00058a80       ?GetInteriorDiagonals@InternalPolyhedra@@YAHAAVdgPolyhedra@@QAPAVdgEdge@@H@Z 10059a80 f   corelib_2009:dgPolyhedra.obj
 0001:00058d20       ?MatchTwins@InternalPolyhedra@@YA_NPAVdgPolyhedra@@@Z 10059d20 f   corelib_2009:dgPolyhedra.obj
 0001:00058dd0       ?FindEarTip@InternalPolyhedra@@YAPAVdgEdge@@ABVdgPolyhedra@@PAV2@QBNHAAV?$dgDownHeap@PAVdgEdge@@N@@ABVdgVector@@@Z 10059dd0 f   corelib_2009:dgPolyhedra.obj
 0001:00059af0       ?CloseOpenBounds@InternalPolyhedra@@YAXPAVdgPolyhedra@@@Z 1005aaf0 f   corelib_2009:dgPolyhedra.obj
 0001:0005abd0       ?MarkAdjacentCoplanarFaces@InternalPolyhedra@@YAXAAVdgPolyhedra@@0PAVdgEdge@@QBNH@Z 1005bbd0 f   corelib_2009:dgPolyhedra.obj
 0001:0005aec0       ?ConvexPartition@InternalPolyhedra@@YA_NAAVdgPolyhedra@@QBNH@Z 1005bec0 f   corelib_2009:dgPolyhedra.obj
 0001:0005b820       ?TriangulateFace@InternalPolyhedra@@YAPAVdgEdge@@AAVdgPolyhedra@@PAV2@QBNHAAV?$dgDownHeap@PAVdgEdge@@N@@PAVdgVector@@@Z 1005c820 f   corelib_2009:dgPolyhedra.obj
 0001:000640d0       ___DllMainCRTStartup       100650d0 f   LIBCMT:dllcrt0.obj
 0001:00064266       __hw_cw                    10065266 f   LIBCMT:_ieee87_.obj
 0001:000642f4       ___hw_cw_sse2              100652f4 f   LIBCMT:_ieee87_.obj
 0001:00064e7a       __onexit_nolock            10065e7a f   LIBCMT:onexit.obj
 0001:00064ff5       __callthreadstartex        10065ff5 f   LIBCMT:threadex.obj
 0001:00065036       __threadstartex@4          10066036 f   LIBCMT:threadex.obj
 0001:00065398       __shift                    10066398 f   LIBCMT:cvt.obj
 0001:000653dd       __cftoe2_l                 100663dd f   LIBCMT:cvt.obj
 0001:000659af       __cftof2_l                 100669af f   LIBCMT:cvt.obj
 0001:0006710e       __initterm                 1006810e f   LIBCMT:crt0dat.obj
 0001:000671d4       _doexit                    100681d4 f   LIBCMT:crt0dat.obj
 0001:00067619       _fastzero_I                10068619 f   LIBCMT:p4_memset.obj
 0001:000676ff       _fastcopy_I                100686ff f   LIBCMT:p4_memcpy.obj
 0001:00068310       _parse_cmdline             10069310 f   LIBCMT:stdargv.obj
 0001:00068a62       _write_char                10069a62 f   LIBCMT:output.obj
 0001:00068a95       _write_multi_char          10069a95 f   LIBCMT:output.obj
 0001:00068abb       _write_string              10069abb f   LIBCMT:output.obj
 0001:0006999b       _siglookup                 1006a99b f   LIBCMT:winsig.obj
 0001:0006b45d       ?CPtoLCID@@YAHH@Z          1006c45d f   LIBCMT:mbctype.obj
 0001:0006b48c       ?setSBCS@@YAXPAUthreadmbcinfostruct@@@Z 1006c48c f   LIBCMT:mbctype.obj
 0001:0006b4f0       ?setSBUpLow@@YAXPAUthreadmbcinfostruct@@@Z 1006c4f0 f   LIBCMT:mbctype.obj
 0001:0006b727       ?getSystemCP@@YAHH@Z       1006c727 f   LIBCMT:mbctype.obj
 0001:0006bdb1       __updatetlocinfoEx_nolock  1006cdb1 f   LIBCMT:setlocal.obj
 0001:0006c90b       _has_osfxsr_set            1006d90b f   LIBCMT:cpu_disp.obj
 0001:0006d324       __unwind_handler4          1006e324 f   LIBCMT:exsup4.obj
 0001:0006da56       ?x_ismbbtype_l@@YAHPAUlocaleinfo_struct@@IHH@Z 1006ea56 f   LIBCMT:ismbbyte.obj
 0001:0006f90e       ?__crtLCMapStringA_stat@@YAHPAUlocaleinfo_struct@@KKPBDHPADHHH@Z 1007090e f   LIBCMT:a_map.obj
 0001:0006fcf8       ?__crtGetStringTypeA_stat@@YAHPAUlocaleinfo_struct@@KPBDHPAGHHH@Z 10070cf8 f   LIBCMT:a_str.obj
 0001:00071f04       __unwind_handler           10072f04 f   LIBCMT:exsup.obj
 0001:00072524       _flsall                    10073524 f   LIBCMT:fflush.obj
 0001:00072607       ?strtoxl@@YAKPAUlocaleinfo_struct@@PBDPAPBDHH@Z 10073607 f   LIBCMT:strtol.obj
 0001:00073180       ??__Eg_allocaror@dgInternalMemory@@YAXXZ 10074180 f   corelib_2009:dgMemory.obj
 0001:00073190       ??__Fg_allocaror@dgInternalMemory@@YAXXZ 10074190 f   corelib_2009:dgMemory.obj
