 newton

 Timestamp is 497a1a1c (Fri Jan 23 11:27:24 2009)

 Preferred load address is 0000000180000000

 Start         Length     Name                   Class
 0001:00000000 0009f46eH .text                   CODE
 0001:0009f470 0000001fH .text$0                 CODE
 0001:0009f490 00000080H .text$00                CODE
 0001:0009f510 00000278H .text$x                 CODE
 0001:0009f790 0000000cH .text$yc                CODE
 0001:0009f7a0 00000003H .text$yd                CODE
 0002:00000000 00000290H .idata$5                DATA
 0002:00000290 00000008H .CRT$XCA                DATA
 0002:00000298 00000008H .CRT$XCU                DATA
 0002:000002a0 00000008H .CRT$XCZ                DATA
 0002:000002a8 00000008H .CRT$XIA                DATA
 0002:000002b0 00000018H .CRT$XIC                DATA
 0002:000002c8 00000008H .CRT$XIZ                DATA
 0002:000002d0 00000008H .CRT$XPA                DATA
 0002:000002d8 00000008H .CRT$XPX                DATA
 0002:000002e0 00000008H .CRT$XPXA               DATA
 0002:000002e8 00000008H .CRT$XPZ                DATA
 0002:000002f0 00000008H .CRT$XTA                DATA
 0002:000002f8 00000008H .CRT$XTZ                DATA
 0002:00000300 000044d8H .rdata                  DATA
 0002:000047d8 00000059H .rdata$debug            DATA
 0002:00004838 00000008H .rtc$IAA                DATA
 0002:00004840 00000008H .rtc$IZZ                DATA
 0002:00004848 00000008H .rtc$TAA                DATA
 0002:00004850 00000008H .rtc$TZZ                DATA
 0002:00004858 000077e4H .xdata                  DATA
 0002:0000c03c 00000014H .idata$2                DATA
 0002:0000c050 00000014H .idata$3                DATA
 0002:0000c068 00000290H .idata$4                DATA
 0002:0000c2f8 000005e2H .idata$6                DATA
 0002:0000c8e0 0000267dH .edata                  DATA
 0003:00000000 0000250cH .data                   DATA
 0003:00002520 00006450H .bss                    DATA
 0004:00000000 000050b8H .pdata                  DATA

  Address         Publics by Value              Rva+Base               Lib:Object

 0000:00000000       ___safe_se_handler_count   0000000000000000     <absolute>
 0000:00000000       ___safe_se_handler_table   0000000000000000     <absolute>
 0000:00000000       __ImageBase                0000000180000000     <linker-defined>
 0001:00000000       DllMain                    0000000180001000 f   Newton.obj
 0001:00000010       NewtonGetMemoryUsed        0000000180001010 f   Newton.obj
 0001:00000020       NewtonInvalidateCache      0000000180001020 f   Newton.obj
 0001:00000030       NewtonSetPlatformArchitecture 0000000180001030 f   Newton.obj
 0001:00000040       NewtonGetPlatformArchitecture 0000000180001040 f   Newton.obj
 0001:00000050       NewtonSetThreadsCount      0000000180001050 f   Newton.obj
 0001:00000060       NewtonGetThreadsCount      0000000180001060 f   Newton.obj
 0001:00000070       NewtonSetMultiThreadSolverOnSingleIsland 0000000180001070 f   Newton.obj
 0001:00000080       NewtonSetSolverModel       0000000180001080 f   Newton.obj
 0001:00000090       NewtonSetFrictionModel     0000000180001090 f   Newton.obj
 0001:000000a0       NewtonSetPerformanceClock  00000001800010a0 f   Newton.obj
 0001:000000b0       NewtonReadPerformanceTicks 00000001800010b0 f   Newton.obj
 0001:000000c0       NewtonCollisionUpdate      00000001800010c0 f   Newton.obj
 0001:00000100       NewtonSetIslandUpdateEvent 0000000180001100 f   Newton.obj
 0001:00000110       NewtonSetBodyLeaveWorldEvent 0000000180001110 f   Newton.obj
 0001:00000120       NewtonWorldGetVersion      0000000180001120 f   Newton.obj
 0001:00000130       NewtonWorldSetUserData     0000000180001130 f   Newton.obj
 0001:00000140       NewtonWorldGetUserData     0000000180001140 f   Newton.obj
 0001:00000150       NewtonWorldGetBodyCount    0000000180001150 f   Newton.obj
 0001:00000160       NewtonWorldGetConstraintCount 0000000180001160 f   Newton.obj
 0001:00000170       NewtonIslandGetBody        0000000180001170 f   Newton.obj
 0001:00000180       NewtonMaterialGetDefaultGroupID 0000000180001180 f   Newton.obj
 0001:00000190       NewtonMaterialCreateGroupID 0000000180001190 f   Newton.obj
 0001:000001a0       NewtonMaterialDestroyAllGroupID 00000001800011a0 f   Newton.obj
 0001:000001b0       NewtonMaterialSetDefaultCollidable 00000001800011b0 f   Newton.obj
 0001:000001e0       NewtonMaterialSetContinuousCollisionMode 00000001800011e0 f   Newton.obj
 0001:00000210       NewtonWorldGetFirstMaterial 0000000180001210 f   Newton.obj
 0001:00000220       NewtonWorldGetNextMaterial 0000000180001220 f   Newton.obj
 0001:00000230       NewtonMaterialGetContactFaceAttribute 0000000180001230 f   Newton.obj
 0001:00000240       NewtonMaterialGetContactPositionAndNormal 0000000180001240 f   Newton.obj
 0001:00000270       NewtonMaterialGetContactTangentDirections 0000000180001270 f   Newton.obj
 0001:000002a0       NewtonMaterialSetContactFrictionState 00000001800012a0 f   Newton.obj
 0001:000002e0       NewtonMaterialSetContactNormalAcceleration 00000001800012e0 f   Newton.obj
 0001:000002f0       NewtonMaterialSetContactTangentAcceleration 00000001800012f0 f   Newton.obj
 0001:00000310       NewtonCreateNull           0000000180001310 f   Newton.obj
 0001:00000320       NewtonCreateBox            0000000180001320 f   Newton.obj
 0001:00000420       NewtonCreateSphere         0000000180001420 f   Newton.obj
 0001:000005a0       NewtonCreateCone           00000001800015a0 f   Newton.obj
 0001:00000690       NewtonCreateCapsule        0000000180001690 f   Newton.obj
 0001:00000780       NewtonCreateCylinder       0000000180001780 f   Newton.obj
 0001:00000870       NewtonCreateChamferCylinder 0000000180001870 f   Newton.obj
 0001:00000960       NewtonCreateConvexHullFromMesh 0000000180001960 f   Newton.obj
 0001:00000970       NewtonCreateConvexHullModifier 0000000180001970 f   Newton.obj
 0001:00000980       NewtonConvexHullModifierGetMatrix 0000000180001980 f   Newton.obj
 0001:000009e0       NewtonConvexHullModifierSetMatrix 00000001800019e0 f   Newton.obj
 0001:000009f0       NewtonCreateCompoundCollision 00000001800019f0 f   Newton.obj
 0001:00000a00       NewtonCreateCompoundCollisionFromMesh 0000000180001a00 f   Newton.obj
 0001:00000a10       NewtonCollisionIsTriggerVolume 0000000180001a10 f   Newton.obj
 0001:00000a30       NewtonCollisionSetAsTriggerVolume 0000000180001a30 f   Newton.obj
 0001:00000a40       NewtonConvexCollisionCalculateVolume 0000000180001a40 f   Newton.obj
 0001:00000a50       NewtonCreateTreeCollision  0000000180001a50 f   Newton.obj
 0001:00000a60       NewtonTreeCollisionSetUserRayCastCallback 0000000180001a60 f   Newton.obj
 0001:00000a70       NewtonTreeCollisionBeginBuild 0000000180001a70 f   Newton.obj
 0001:00000a80       NewtonTreeCollisionAddFace 0000000180001a80 f   Newton.obj
 0001:00000aa0       NewtonTreeCollisionEndBuild 0000000180001aa0 f   Newton.obj
 0001:00000ab0       NewtonCreateHeightFieldCollision 0000000180001ab0 f   Newton.obj
 0001:00000af0       NewtonCreateSceneCollision 0000000180001af0 f   Newton.obj
 0001:00000b00       NewtonSceneCollisionCreateProxy 0000000180001b00 f   Newton.obj
 0001:00000b10       NewtonSceneCollisionOptimize 0000000180001b10 f   Newton.obj
 0001:00000b20       NewtonCollisionPointDistance 0000000180001b20 f   Newton.obj
 0001:00000b50       NewtonCollisionClosestPoint 0000000180001b50 f   Newton.obj
 0001:00000ba0       NewtonCollisionCollide     0000000180001ba0 f   Newton.obj
 0001:00000c10       NewtonCollisionCollideContinue 0000000180001c10 f   Newton.obj
 0001:00000cc0       NewtonCollisionForEachPolygonDo 0000000180001cc0 f   Newton.obj
 0001:00000d20       NewtonCollisionMakeUnique  0000000180001d20 f   Newton.obj
 0001:00000d30       NewtonReleaseCollision     0000000180001d30 f   Newton.obj
 0001:00000d40       NewtonCollisionSerialize   0000000180001d40 f   Newton.obj
 0001:00000d50       NewtonCreateCollisionFromSerialization 0000000180001d50 f   Newton.obj
 0001:00000d60       NewtonCollisionGetInfo     0000000180001d60 f   Newton.obj
 0001:00000d70       NewtonGetEulerAngle        0000000180001d70 f   Newton.obj
 0001:00000db0       NewtonCalculateSpringDamperAcceleration 0000000180001db0 f   Newton.obj
 0001:00000e20       NewtonCreateBody           0000000180001e20 f   Newton.obj
 0001:00000e30       NewtonDestroyBody          0000000180001e30 f   Newton.obj
 0001:00000e40       NewtonBodySetMatrix        0000000180001e40 f   Newton.obj
 0001:00000ec0       NewtonBodyGetFirstJoint    0000000180001ec0 f   Newton.obj
 0001:00000ed0       NewtonBodyGetNextJoint     0000000180001ed0 f   Newton.obj
 0001:00000ee0       NewtonBodyGetFirstContactJoint 0000000180001ee0 f   Newton.obj
 0001:00000ef0       NewtonBodyGetNextContactJoint 0000000180001ef0 f   Newton.obj
 0001:00000f00       NewtonBodySetCollision     0000000180001f00 f   Newton.obj
 0001:00000f10       NewtonBodySetFreezeState   0000000180001f10 f   Newton.obj
 0001:00000f20       NewtonBallSetUserCallback  0000000180001f20 f   Newton.obj
 0001:00000f30       NewtonBallGetJointAngle    0000000180001f30 f   Newton.obj
 0001:00000f70       NewtonBallGetJointOmega    0000000180001f70 f   Newton.obj
 0001:00000fb0       NewtonBallGetJointForce    0000000180001fb0 f   Newton.obj
 0001:00000ff0       NewtonCorkscrewGetJointAngle 0000000180001ff0 f   Newton.obj
 0001:00000ff0       NewtonUniversalGetJointAngle0 0000000180001ff0 f   Newton.obj
 0001:00000ff0       NewtonSliderGetJointPosit  0000000180001ff0 f   Newton.obj
 0001:00000ff0       NewtonHingeGetJointAngle   0000000180001ff0 f   Newton.obj
 0001:00001000       NewtonHingeGetJointOmega   0000000180002000 f   Newton.obj
 0001:00001000       NewtonCorkscrewGetJointOmega 0000000180002000 f   Newton.obj
 0001:00001000       NewtonUniversalGetJointOmega0 0000000180002000 f   Newton.obj
 0001:00001010       NewtonHingeCalculateStopAlpha 0000000180002010 f   Newton.obj
 0001:00001020       NewtonHingeGetJointForce   0000000180002020 f   Newton.obj
 0001:00001060       NewtonUniversalSetUserCallback 0000000180002060 f   Newton.obj
 0001:00001060       NewtonCorkscrewSetUserCallback 0000000180002060 f   Newton.obj
 0001:00001060       NewtonHingeSetUserCallback 0000000180002060 f   Newton.obj
 0001:00001060       NewtonSliderSetUserCallback 0000000180002060 f   Newton.obj
 0001:00001070       NewtonCorkscrewGetJointVeloc 0000000180002070 f   Newton.obj
 0001:00001070       NewtonSliderGetJointVeloc  0000000180002070 f   Newton.obj
 0001:00001080       NewtonSliderCalculateStopAccel 0000000180002080 f   Newton.obj
 0001:00001090       NewtonSliderGetJointForce  0000000180002090 f   Newton.obj
 0001:000010d0       NewtonCorkscrewCalculateStopAlpha 00000001800020d0 f   Newton.obj
 0001:000010d0       NewtonUniversalCalculateStopAlpha0 00000001800020d0 f   Newton.obj
 0001:000010e0       NewtonCorkscrewCalculateStopAccel 00000001800020e0 f   Newton.obj
 0001:000010f0       NewtonCorkscrewGetJointForce 00000001800020f0 f   Newton.obj
 0001:000010f0       NewtonUniversalGetJointForce 00000001800020f0 f   Newton.obj
 0001:00001130       NewtonCorkscrewGetJointPosit 0000000180002130 f   Newton.obj
 0001:00001130       NewtonUniversalGetJointAngle1 0000000180002130 f   Newton.obj
 0001:00001140       NewtonUniversalGetJointOmega1 0000000180002140 f   Newton.obj
 0001:00001150       NewtonUniversalCalculateStopAlpha1 0000000180002150 f   Newton.obj
 0001:00001160       NewtonUpVectorGetPin       0000000180002160 f   Newton.obj
 0001:000011a0       NewtonUserJointAddGeneralRow 00000001800021a0 f   Newton.obj
 0001:000011b0       NewtonUserJointSetRowMaximumFriction 00000001800021b0 f   Newton.obj
 0001:000011c0       NewtonUserJointSetRowMinimumFriction 00000001800021c0 f   Newton.obj
 0001:000011d0       NewtonUserJointSetRowAcceleration 00000001800021d0 f   Newton.obj
 0001:000011e0       NewtonUserJointSetRowSpringDamperAcceleration 00000001800021e0 f   Newton.obj
 0001:000011f0       NewtonUserJointSetRowStiffness 00000001800021f0 f   Newton.obj
 0001:00001200       NewtonUserJointGetRowForce 0000000180002200 f   Newton.obj
 0001:00001210       NewtonUserJointSetFeedbackCollectorCallback 0000000180002210 f   Newton.obj
 0001:00001220       NewtonJointSetUserData     0000000180002220 f   Newton.obj
 0001:00001230       NewtonJointGetUserData     0000000180002230 f   Newton.obj
 0001:00001240       NewtonJointGetInfo         0000000180002240 f   Newton.obj
 0001:00001250       NewtonJointSetStiffness    0000000180002250 f   Newton.obj
 0001:00001260       NewtonJointGetStiffness    0000000180002260 f   Newton.obj
 0001:00001270       NewtonJointSetDestructor   0000000180002270 f   Newton.obj
 0001:00001280       NewtonDestroyJoint         0000000180002280 f   Newton.obj
 0001:00001290       NewtonMeshDestroy          0000000180002290 f   Newton.obj
 0001:000012b0       NewtonMeshCalculateVertexNormals 00000001800022b0 f   Newton.obj
 0001:000012c0       NewtonMeshApplySphericalMapping 00000001800022c0 f   Newton.obj
 0001:000012d0       NewtonMeshApplyBoxMapping  00000001800022d0 f   Newton.obj
 0001:000012e0       NewtonMeshApplyCylindricalMapping 00000001800022e0 f   Newton.obj
 0001:000012f0       NewtonMeshBeginFace        00000001800022f0 f   Newton.obj
 0001:00001300       NewtonMeshAddFace          0000000180002300 f   Newton.obj
 0001:00001320       NewtonMeshEndFace          0000000180002320 f   Newton.obj
 0001:00001330       NewtonMeshGetVertexCount   0000000180002330 f   Newton.obj
 0001:00001340       NewtonMeshGetVertexStreams 0000000180002340 f   Newton.obj
 0001:00001370       NewtonMeshGetIndirectVertexStreams 0000000180002370 f   Newton.obj
 0001:000013f0       NewtonMeshFirstMaterial    00000001800023f0 f   Newton.obj
 0001:00001400       NewtonMeshNextMaterial     0000000180002400 f   Newton.obj
 0001:00001410       NewtonMeshMaterialGetMaterial 0000000180002410 f   Newton.obj
 0001:00001420       NewtonMeshMaterialGetIndexCount 0000000180002420 f   Newton.obj
 0001:00001430       NewtonMeshMaterialGetIndexStream 0000000180002430 f   Newton.obj
 0001:00001440       NewtonMeshMaterialGetIndexStreamShort 0000000180002440 f   Newton.obj
 0001:00001450       NewtonDestroy              0000000180002450 f   Newton.obj
 0001:000014a0       NewtonWorldCriticalSectionLock 00000001800024a0 f   Newton.obj
 0001:000014c0       NewtonWorldCriticalSectionUnlock 00000001800024c0 f   Newton.obj
 0001:000014e0       NewtonUpdate               00000001800024e0 f   Newton.obj
 0001:000015a0       NewtonSetMinimumFrameRate  00000001800025a0 f   Newton.obj
 0001:000015e0       NewtonWorldGetFirstBody    00000001800025e0 f   Newton.obj
 0001:00001600       NewtonWorldGetNextBody     0000000180002600 f   Newton.obj
 0001:00001620       NewtonIslandGetBodyAABB    0000000180002620 f   Newton.obj
 0001:00001690       NewtonMaterialSetSurfaceThickness 0000000180002690 f   Newton.obj
 0001:000016e0       NewtonMaterialSetDefaultFriction 00000001800026e0 f   Newton.obj
 0001:00001790       NewtonMaterialSetDefaultElasticity 0000000180002790 f   Newton.obj
 0001:000017e0       NewtonMaterialSetDefaultSoftness 00000001800027e0 f   Newton.obj
 0001:00001830       NewtonMaterialSetCollisionCallback 0000000180002830 f   Newton.obj
 0001:00001870       NewtonMaterialGetUserData  0000000180002870 f   Newton.obj
 0001:00001890       NewtonMaterialGetMaterialPairUserData 0000000180002890 f   Newton.obj
 0001:000018a0       NewtonMaterialGetContactNormalSpeed 00000001800028a0 f   Newton.obj
 0001:00001a10       NewtonMaterialGetContactForce 0000000180002a10 f   Newton.obj
 0001:00001ab0       NewtonMaterialGetBodyCollisionID 0000000180002ab0 f   Newton.obj
 0001:00001ad0       NewtonMaterialSetContactSoftness 0000000180002ad0 f   Newton.obj
 0001:00001b00       NewtonMaterialSetContactElasticity 0000000180002b00 f   Newton.obj
 0001:00001b30       NewtonMaterialSetContactFrictionCoef 0000000180002b30 f   Newton.obj
 0001:00001bd0       NewtonCreateConvexHull     0000000180002bd0 f   Newton.obj
 0001:00001cf0       NewtonCollisionSetUserID   0000000180002cf0 f   Newton.obj
 0001:00001d00       NewtonCollisionGetUserID   0000000180002d00 f   Newton.obj
 0001:00001d10       NewtonStaticCollisionSetDebugCallback 0000000180002d10 f   Newton.obj
 0001:00001d40       NewtonTreeCollisionGetFaceAtribute 0000000180002d40 f   Newton.obj
 0001:00001d50       NewtonTreeCollisionSetFaceAtribute 0000000180002d50 f   Newton.obj
 0001:00001d60       NewtonSceneProxySetMatrix  0000000180002d60 f   Newton.obj
 0001:00001d70       NewtonSceneProxyGetMatrix  0000000180002d70 f   Newton.obj
 0001:00001de0       NewtonAddCollisionReference 0000000180002de0 f   Newton.obj
 0001:00001df0       NewtonBodySetUserData      0000000180002df0 f   Newton.obj
 0001:00001e00       NewtonBodyGetUserData      0000000180002e00 f   Newton.obj
 0001:00001e10       NewtonBodyGetWorld         0000000180002e10 f   Newton.obj
 0001:00001e20       NewtonBodySetTransformCallback 0000000180002e20 f   Newton.obj
 0001:00001e30       NewtonBodySetForceAndTorqueCallback 0000000180002e30 f   Newton.obj
 0001:00001e40       NewtonBodyGetForceAndTorqueCallback 0000000180002e40 f   Newton.obj
 0001:00001e50       NewtonBodySetDestructorCallback 0000000180002e50 f   Newton.obj
 0001:00001e60       NewtonBodyGetMassMatrix    0000000180002e60 f   Newton.obj
 0001:00001ec0       NewtonBodyGetInvMass       0000000180002ec0 f   Newton.obj
 0001:00001f40       NewtonBodySetMatrixRecursive 0000000180002f40 f   Newton.obj
 0001:00001fa0       NewtonBodyGetMatrix        0000000180002fa0 f   Newton.obj
 0001:00001fe0       NewtonBodyGetRotation      0000000180002fe0 f   Newton.obj
 0001:00001ff0       NewtonBodyGetForceAcc      0000000180002ff0 f   Newton.obj
 0001:00002030       NewtonBodyGetForce         0000000180003030 f   Newton.obj
 0001:00002070       NewtonBodyCalculateInverseDynamicsForce 0000000180003070 f   Newton.obj
 0001:000020e0       NewtonBodyGetTorque        00000001800030e0 f   Newton.obj
 0001:00002120       NewtonBodyGetTorqueAcc     0000000180003120 f   Newton.obj
 0001:00002160       NewtonBodyGetCentreOfMass  0000000180003160 f   Newton.obj
 0001:000021c0       NewtonContactJointGetContactCount 00000001800031c0 f   Newton.obj
 0001:000021e0       NewtonContactJointGetFirstContact 00000001800031e0 f   Newton.obj
 0001:00002200       NewtonContactJointGetNextContact 0000000180003200 f   Newton.obj
 0001:00002220       NewtonContactGetMaterial   0000000180003220 f   Newton.obj
 0001:00002230       NewtonBodyAddBuoyancyForce 0000000180003230 f   Newton.obj
 0001:000022a0       NewtonBodyGetCollision     00000001800032a0 f   Newton.obj
 0001:000022b0       NewtonBodySetMaterialGroupID 00000001800032b0 f   Newton.obj
 0001:000022c0       NewtonBodyGetMaterialGroupID 00000001800032c0 f   Newton.obj
 0001:000022d0       NewtonBodySetContinuousCollisionMode 00000001800032d0 f   Newton.obj
 0001:000022f0       NewtonBodyGetContinuousCollisionMode 00000001800032f0 f   Newton.obj
 0001:00002300       NewtonBodySetJointRecursiveCollision 0000000180003300 f   Newton.obj
 0001:00002320       NewtonBodyGetJointRecursiveCollision 0000000180003320 f   Newton.obj
 0001:00002330       NewtonBodyGetFreezeState   0000000180003330 f   Newton.obj
 0001:00002340       NewtonBodySetAutoSleep     0000000180003340 f   Newton.obj
 0001:00002360       NewtonBodyGetAutoSleep     0000000180003360 f   Newton.obj
 0001:00002370       NewtonBodyGetSleepState    0000000180003370 f   Newton.obj
 0001:00002380       NewtonBodyGetAABB          0000000180003380 f   Newton.obj
 0001:000023d0       NewtonBodySetVelocity      00000001800033d0 f   Newton.obj
 0001:00002430       NewtonBodyGetVelocity      0000000180003430 f   Newton.obj
 0001:00002470       NewtonBodySetOmega         0000000180003470 f   Newton.obj
 0001:000024d0       NewtonBodyGetOmega         00000001800034d0 f   Newton.obj
 0001:00002510       NewtonBodyGetLinearDamping 0000000180003510 f   Newton.obj
 0001:00002530       NewtonBodyAddImpulse       0000000180003530 f   Newton.obj
 0001:000025b0       NewtonConstraintCreateBall 00000001800035b0 f   Newton.obj
 0001:000025f0       NewtonBallSetConeLimits    00000001800035f0 f   Newton.obj
 0001:00002960       NewtonConstraintCreateHinge 0000000180003960 f   Newton.obj
 0001:000029e0       NewtonConstraintCreateSlider 00000001800039e0 f   Newton.obj
 0001:00002a60       NewtonConstraintCreateCorkscrew 0000000180003a60 f   Newton.obj
 0001:00002ae0       NewtonConstraintCreateUniversal 0000000180003ae0 f   Newton.obj
 0001:00002b90       NewtonConstraintCreateUpVector 0000000180003b90 f   Newton.obj
 0001:00002bd0       NewtonUpVectorSetPin       0000000180003bd0 f   Newton.obj
 0001:00002c10       NewtonConstraintCreateUserJoint 0000000180003c10 f   Newton.obj
 0001:00002c90       NewtonUserJointAddLinearRow 0000000180003c90 f   Newton.obj
 0001:00002dc0       NewtonUserJointAddAngularRow 0000000180003dc0 f   Newton.obj
 0001:00002e90       NewtonJointGetBody0        0000000180003e90 f   Newton.obj
 0001:00002ea0       NewtonJointGetBody1        0000000180003ea0 f   Newton.obj
 0001:00002ed0       NewtonJointSetCollisionState 0000000180003ed0 f   Newton.obj
 0001:00002ef0       NewtonJointGetCollisionState 0000000180003ef0 f   Newton.obj
 0001:00002f00       NewtonMeshCreate           0000000180003f00 f   Newton.obj
 0001:00002f30       NewtonMeshCreateFromCollision 0000000180003f30 f   Newton.obj
 0001:00002f60       NewtonMeshPlaneClip        0000000180003f60 f   Newton.obj
 0001:00002fb0       ?Unlink@?$dgList@VdgContactMaterial@@@@QEAAXPEAVdgListNode@1@@Z 0000000180003fb0 f i Newton.obj
 0001:00003020       ?SetCentreOfMass@dgBody@@QEAAXAEBVdgVector@@@Z 0000000180004020 f i Newton.obj
 0001:00003120       NewtonSetWorldSize         0000000180004120 f   Newton.obj
 0001:00003190       NewtonWorldForEachBodyInAABBDo 0000000180004190 f   Newton.obj
 0001:00003200       NewtonWorldRayCast         0000000180004200 f   Newton.obj
 0001:00003290       NewtonWorldConvexCast      0000000180004290 f   Newton.obj
 0001:00003330       NewtonMaterialGetContactTangentSpeed 0000000180004330 f   Newton.obj
 0001:000034f0       NewtonMaterialContactRotateTangentDirections 00000001800044f0 f   Newton.obj
 0001:00003680       NewtonConvexCollisionCalculateInertialMatrix 0000000180004680 f   Newton.obj
 0001:000036f0       NewtonCreateUserMeshCollision 00000001800046f0 f   Newton.obj
 0001:000037b0       NewtonTreeCollisionGetVertexListIndexListInAABB 00000001800047b0 f   Newton.obj
 0001:000038a0       NewtonCollisionSupportVertex 00000001800048a0 f   Newton.obj
 0001:00003a50       NewtonCollisionCalculateAABB 0000000180004a50 f   Newton.obj
 0001:00003ac0       NewtonSetEulerAngle        0000000180004ac0 f   Newton.obj
 0001:00003df0       NewtonBodySetMassMatrix    0000000180004df0 f   Newton.obj
 0001:00003f20       NewtonBodySetForce         0000000180004f20 f   Newton.obj
 0001:00003fe0       NewtonBodySetTorque        0000000180004fe0 f   Newton.obj
 0001:000040a0       NewtonBodySetCentreOfMass  00000001800050a0 f   Newton.obj
 0001:000040f0       NewtonBodySetLinearDamping 00000001800050f0 f   Newton.obj
 0001:00004130       NewtonBodySetAngularDamping 0000000180005130 f   Newton.obj
 0001:000041d0       NewtonBodyGetAngularDamping 00000001800051d0 f   Newton.obj
 0001:00004220       ?AddForce@dgBody@@QEAAXAEBVdgVector@@@Z 0000000180005220 f i Newton.obj
 0001:00004300       ?AddTorque@dgBody@@QEAAXAEBVdgVector@@@Z 0000000180005300 f i Newton.obj
 0001:000043e0       NewtonCreate               00000001800053e0 f   Newton.obj
 0001:000044e0       NewtonDestroyAllBodies     00000001800054e0 f   Newton.obj
 0001:00004550       NewtonCollisionRayCast     0000000180005550 f   Newton.obj
 0001:000047a0       NewtonBodyAddForce         00000001800057a0 f   Newton.obj
 0001:000047e0       NewtonBodyAddTorque        00000001800057e0 f   Newton.obj
 0001:00004820       NewtonContactJointRemoveContact 0000000180005820 f   Newton.obj
 0001:00004860       NewtonWorldForEachJointDo  0000000180005860 f   Newton.obj
 0001:00004a00       ?Append@?$dgList@UNewtonMeshPartition@@@@QEAAPEAVdgListNode@1@XZ 0000000180005a00 f i NewtonAproximateConvexPartition.obj
 0001:00004af0       ?CalculateHulls@NewtonAproximateConvexPartition@@QEAAXPEBVdgVector@@H@Z 0000000180005af0 f   NewtonAproximateConvexPartition.obj
 0001:00004c30       ?RemoveAll@?$dgList@UNewtonMeshPartition@@@@QEAAXXZ 0000000180005c30 f i NewtonAproximateConvexPartition.obj
 0001:00004ce0       ??0NewtonAproximateConvexPartition@@QEAA@AEBVNewtonMeshEffect@@MH@Z 0000000180005ce0 f   NewtonAproximateConvexPartition.obj
 0001:00004d80       ??1NewtonAproximateConvexPartition@@QEAA@XZ 0000000180005d80 f   NewtonAproximateConvexPartition.obj
 0001:00004d90       ?DefaultAllocMemory@Newton@@SAPEAXH@Z 0000000180005d90 f   NewtonClass.obj
 0001:00004da0       ?JacobianDerivative@NewtonUserJoint@@UEAAIAEAVdgContraintDescritor@@@Z 0000000180005da0 f   NewtonClass.obj
 0001:00004de0       ?SetAcceleration@NewtonUserJoint@@QEAAXM@Z 0000000180005de0 f   NewtonClass.obj
 0001:00004e10       ?SetSpringDamperAcceleration@NewtonUserJoint@@QEAAXMM@Z 0000000180005e10 f   NewtonClass.obj
 0001:00004e90       ?GetRowForce@NewtonUserJoint@@QEBAMH@Z 0000000180005e90 f   NewtonClass.obj
 0001:00004eb0       ?GetInfo@NewtonUserJoint@@UEBAXPEAVdgConstraintInfo@@@Z 0000000180005eb0 f   NewtonClass.obj
 0001:00004f00       ??_ENewtonUserJoint@@UEAAPEAXI@Z 0000000180005f00 f i NewtonClass.obj
 0001:00004f00       ??_GNewtonUserJoint@@UEAAPEAXI@Z 0000000180005f00 f i NewtonClass.obj
 0001:00004f60       ?SetHighFriction@NewtonUserJoint@@QEAAXM@Z 0000000180005f60 f   NewtonClass.obj
 0001:00004fd0       ?SetLowerFriction@NewtonUserJoint@@QEAAXM@Z 0000000180005fd0 f   NewtonClass.obj
 0001:00005040       ?SetRowStiffness@NewtonUserJoint@@QEAAXM@Z 0000000180006040 f   NewtonClass.obj
 0001:000050a0       ?SetUpdateFeedbackFunction@NewtonUserJoint@@QEAAXP6AXPEBUNewtonJoint@@MH@Z@Z 00000001800060a0 f   NewtonClass.obj
 0001:000050b0       ?DestroyJoints@NewtonDeadJoints@@QEAAXAEAVNewton@@@Z 00000001800060b0 f   NewtonClass.obj
 0001:00005140       ??1Newton@@QEAA@XZ         0000000180006140 f   NewtonClass.obj
 0001:000051a0       ??0NewtonUserJoint@@QEAA@PEAVdgWorld@@HP6AXPEBUNewtonJoint@@MH@ZP6AX1PEAUNewtonJointRecord@@@ZPEAVdgBody@@5@Z 00000001800061a0 f   NewtonClass.obj
 0001:00005270       ?AddAngularRowJacobian@NewtonUserJoint@@QEAAXAEBVdgVector@@M@Z 0000000180006270 f   NewtonClass.obj
 0001:00005350       ?AddGeneralRowJacobian@NewtonUserJoint@@QEAAXPEBM0@Z 0000000180006350 f   NewtonClass.obj
 0001:00005420       ?AddLinearRowJacobian@NewtonUserJoint@@QEAAXAEBVdgVector@@00@Z 0000000180006420 f   NewtonClass.obj
 0001:00005500       ?Insert@?$dgTree@PEAVdgBody@@PEAX@@QEAAPEAVdgTreeNode@1@AEBQEAVdgBody@@PEAXAEA_N@Z 0000000180006500 f i NewtonClass.obj
 0001:00005500       ?Insert@?$dgTree@PEAVdgConstraint@@PEAX@@QEAAPEAVdgTreeNode@1@AEBQEAVdgConstraint@@PEAXAEA_N@Z 0000000180006500 f i NewtonClass.obj
 0001:000055e0       ??0NewtonDeadBodies@@QEAA@XZ 00000001800065e0 f   NewtonClass.obj
 0001:000055e0       ??0NewtonDeadJoints@@QEAA@XZ 00000001800065e0 f   NewtonClass.obj
 0001:00005650       ??0Newton@@QEAA@M@Z        0000000180006650 f   NewtonClass.obj
 0001:00005690       ?DestroyJoint@Newton@@QEAAXPEAVdgConstraint@@@Z 0000000180006690 f   NewtonClass.obj
 0001:000056d0       ?DestroyBody@Newton@@QEAAXPEAVdgBody@@@Z 00000001800066d0 f   NewtonClass.obj
 0001:00005710       ?DestroyBodies@NewtonDeadBodies@@QEAAXAEAVNewton@@@Z 0000000180006710 f   NewtonClass.obj
 0001:00005890       ?UpdatePhysics@Newton@@QEAAXM@Z 0000000180006890 f   NewtonClass.obj
 0001:000058e0       ?GetShapeFromCollision@NewtonMeshEffectBuilder@@SAXPEAXHPEBMH@Z 00000001800068e0 f i NewtonMeshEffect.obj
 0001:00005a10       ?AddVertex@NewtonMeshEffect@@AEAAXPEBMH@Z 0000000180006a10 f   NewtonMeshEffect.obj
 0001:00005bc0       ?AddPolygon@NewtonMeshEffect@@QEAAXHPEBMHH@Z 0000000180006bc0 f   NewtonMeshEffect.obj
 0001:00005c80       ?GetVertexStreams@NewtonMeshEffect@@QEAAXHPEAMH0H0@Z 0000000180006c80 f   NewtonMeshEffect.obj
 0001:00005da0       ?GetIndirectVertexStreams@NewtonMeshEffect@@QEAAXHPEAMPEAH1H011H011@Z 0000000180006da0 f   NewtonMeshEffect.obj
 0001:00005ff0       ?GetNextMaterial@NewtonMeshEffect@@QEAAHH@Z 0000000180006ff0 f   NewtonMeshEffect.obj
 0001:00006030       ?GetMaterialGetIndexStream@NewtonMeshEffect@@QEAAXHPEAH@Z 0000000180007030 f   NewtonMeshEffect.obj
 0001:000060b0       ?GetMaterialGetIndexStreamShort@NewtonMeshEffect@@QEAAXHPEAF@Z 00000001800070b0 f   NewtonMeshEffect.obj
 0001:00006130       ?CreateConvexAproximationCollision@NewtonMeshEffect@@QEBAPEAVdgCollision@@MH@Z 0000000180007130 f   NewtonMeshEffect.obj
 0001:00006160       ??0NewtonMeshEffect@@QEAA@_N@Z 0000000180007160 f   NewtonMeshEffect.obj
 0001:000061e0       ??_GNewtonMeshEffect@@UEAAPEAXI@Z 00000001800071e0 f i NewtonMeshEffect.obj
 0001:000061e0       ??_ENewtonMeshEffect@@UEAAPEAXI@Z 00000001800071e0 f i NewtonMeshEffect.obj
 0001:00006240       ?EndPolygon@NewtonMeshEffect@@QEAAXXZ 0000000180007240 f   NewtonMeshEffect.obj
 0001:00006450       ?CreateConvexCollision@NewtonMeshEffect@@QEBAPEAVdgCollision@@M@Z 0000000180007450 f   NewtonMeshEffect.obj
 0001:000064e0       ??0NewtonMeshEffect@@QEAA@PEAVdgCollision@@@Z 00000001800074e0 f   NewtonMeshEffect.obj
 0001:000067f0       ?GetAttriubeArray@NewtonMeshEffect@@AEAAXPEAUdgVertexAtribute@1@@Z 00000001800077f0 f   NewtonMeshEffect.obj
 0001:000068b0       ?ApplyAttriubeArray@NewtonMeshEffect@@AEAAXPEAUdgVertexAtribute@1@@Z 00000001800078b0 f   NewtonMeshEffect.obj
 0001:000069b0       ?GetOrigin@NewtonMeshEffect@@AEBA?AVdgVector@@XZ 00000001800079b0 f   NewtonMeshEffect.obj
 0001:00006af0       ?FixCylindricalMapping@NewtonMeshEffect@@AEBAXPEAUdgVertexAtribute@1@@Z 0000000180007af0 f   NewtonMeshEffect.obj
 0001:00006c50       ?SphericalMapping@NewtonMeshEffect@@QEAAXH@Z 0000000180007c50 f   NewtonMeshEffect.obj
 0001:00006f30       ?CylindricalMapping@NewtonMeshEffect@@QEAAXHH@Z 0000000180007f30 f   NewtonMeshEffect.obj
 0001:00007400       ?BoxMapping@NewtonMeshEffect@@QEAAXHHH@Z 0000000180008400 f   NewtonMeshEffect.obj
 0001:000077c0       ?CalcualetNormals@NewtonMeshEffect@@QEAAXM@Z 00000001800087c0 f   NewtonMeshEffect.obj
 0001:00007c20       ?GetFirstMaterial@NewtonMeshEffect@@QEAAHXZ 0000000180008c20 f   NewtonMeshEffect.obj
 0001:00007de0       ?CapClipFace@NewtonMeshEffect@@AEAA_NAEBVdgPlane@@AEBVdgMatrix@@HH@Z 0000000180008de0 f   NewtonMeshEffect.obj
 0001:000080c0       ?PlaneClip@NewtonMeshEffect@@QEAAHAEBVdgPlane@@AEBVdgMatrix@@PEAPEAV1@HH@Z 00000001800090c0 f   NewtonMeshEffect.obj
 0001:00008f20       ?ModifierGetMatrix@dgCollision@@UEBA?AVdgMatrix@@XZ 0000000180009f20 f i physics_2009:dgWorld.obj
 0001:00008f80       ?Release@dgCollision@@UEAAHXZ 0000000180009f80 f i physics_2009:dgWorld.obj
 0001:00008fb0       ?GetSentinelBody@dgWorld@@QEBAPEAVdgBody@@XZ 0000000180009fb0 f   physics_2009:dgWorld.obj
 0001:00008fc0       ?SetFrictionMode@dgWorld@@QEAAXH@Z 0000000180009fc0 f   physics_2009:dgWorld.obj
 0001:00008fd0       ?SetHardwareMode@dgWorld@@QEAAXH@Z 0000000180009fd0 f   physics_2009:dgWorld.obj
 0001:00009010       ?GetHardwareMode@dgWorld@@QEAAHPEAD@Z 000000018000a010 f   physics_2009:dgWorld.obj
 0001:00009070       ?SetThreadsCount@dgWorld@@QEAAXH@Z 000000018000a070 f   physics_2009:dgWorld.obj
 0001:00009100       ?GetThreadsCount@dgWorld@@QEBAHXZ 000000018000a100 f   physics_2009:dgWorld.obj
 0001:00009110       ?EnableThreadOnSingleIsland@dgWorld@@QEAAXH@Z 000000018000a110 f   physics_2009:dgWorld.obj
 0001:00009120       ?DestroyConstraint@dgWorld@@QEAAXPEAVdgConstraint@@@Z 000000018000a120 f   physics_2009:dgWorld.obj
 0001:00009150       ?UpdateCollision@dgWorld@@QEAAXXZ 000000018000a150 f   physics_2009:dgWorld.obj
 0001:00009240       ?Update@dgWorld@@QEAAXM@Z  000000018000a240 f   physics_2009:dgWorld.obj
 0001:00009380       ?SetPerfomanceCounter@dgWorld@@QEAAXP6AIXZ@Z 000000018000a380 f   physics_2009:dgWorld.obj
 0001:000093b0       ?SetUserData@dgWorld@@QEAAXPEAX@Z 000000018000a3b0 f   physics_2009:dgWorld.obj
 0001:000093c0       ?GetUserData@dgWorld@@QEBAPEAXXZ 000000018000a3c0 f   physics_2009:dgWorld.obj
 0001:000093d0       ?SetIslandUpdateCallback@dgWorld@@QEAAXP6AIPEAXH@Z@Z 000000018000a3d0 f   physics_2009:dgWorld.obj
 0001:000093e0       ?SetLeavingWorldCallback@dgWorld@@QEAAXP6AXPEAVdgBody@@H@Z@Z 000000018000a3e0 f   physics_2009:dgWorld.obj
 0001:000093f0       ?CreateBallConstraint@dgWorld@@QEAAPEAVdgBallConstraint@@AEBVdgVector@@PEAVdgBody@@1@Z 000000018000a3f0 f   physics_2009:dgWorld.obj
 0001:00009470       ?CreateHingeConstraint@dgWorld@@QEAAPEAVdgHingeConstraint@@AEBVdgVector@@0PEAVdgBody@@1@Z 000000018000a470 f   physics_2009:dgWorld.obj
 0001:00009500       ?CreateUpVectorConstraint@dgWorld@@QEAAPEAVdgUpVectorConstraint@@AEBVdgVector@@PEAVdgBody@@@Z 000000018000a500 f   physics_2009:dgWorld.obj
 0001:00009570       ?CreateSlidingConstraint@dgWorld@@QEAAPEAVdgSlidingConstraint@@AEBVdgVector@@0PEAVdgBody@@1@Z 000000018000a570 f   physics_2009:dgWorld.obj
 0001:00009600       ?CreateCorkscrewConstraint@dgWorld@@QEAAPEAVdgCorkscrewConstraint@@AEBVdgVector@@0PEAVdgBody@@1@Z 000000018000a600 f   physics_2009:dgWorld.obj
 0001:00009690       ?CreateUniversalConstraint@dgWorld@@QEAAPEAVdgUniversalConstraint@@AEBVdgVector@@00PEAVdgBody@@1@Z 000000018000a690 f   physics_2009:dgWorld.obj
 0001:00009720       ?GetConstraintsCount@dgWorld@@QEBAHXZ 000000018000a720 f   physics_2009:dgWorld.obj
 0001:00009730       ?AddBodyImpulse@dgWorld@@QEAAXPEAVdgBody@@AEBVdgVector@@1@Z 000000018000a730 f   physics_2009:dgWorld.obj
 0001:00009760       ??_GdgCollisionPoint@@UEAAPEAXI@Z 000000018000a760 f i physics_2009:dgWorld.obj
 0001:00009760       ??_EdgCollisionPoint@@UEAAPEAXI@Z 000000018000a760 f i physics_2009:dgWorld.obj
 0001:00009790       ??_EdgBroadPhaseApplyExternalForce@@UEAAPEAXI@Z 000000018000a790 f i physics_2009:dgBroadPhaseCollision.obj
 0001:00009790       ??_EdgSolverWorlkerThreads@@UEAAPEAXI@Z 000000018000a790 f i physics_2009:dgWorld.obj
 0001:00009790       ??_EdgBroadPhaseCellPairsWorkerThread@@UEAAPEAXI@Z 000000018000a790 f i physics_2009:dgBroadPhaseCollision.obj
 0001:00009790       ??_EdgParallelSolverJointAcceleration@@UEAAPEAXI@Z 000000018000a790 f i physics_2009:dgWorld.obj
 0001:00009790       ??_EdgParallelSolverUpdateVeloc@@UEAAPEAXI@Z 000000018000a790 f i physics_2009:dgWorld.obj
 0001:00009790       ??_GdgSolverWorlkerThreads@@UEAAPEAXI@Z 000000018000a790 f i physics_2009:dgWorld.obj
 0001:00009790       ??_GdgParallelSolverInitFeedbackUpdate@@UEAAPEAXI@Z 000000018000a790 f i physics_2009:dgWorld.obj
 0001:00009790       ??_GdgParallelSolverBodyInertia@@UEAAPEAXI@Z 000000018000a790 f i physics_2009:dgWorld.obj
 0001:00009790       ??_GdgParallelSolverJointAcceleration@@UEAAPEAXI@Z 000000018000a790 f i physics_2009:dgWorld.obj
 0001:00009790       ??_GdgParallelSolverInitInternalForces@@UEAAPEAXI@Z 000000018000a790 f i physics_2009:dgWorld.obj
 0001:00009790       ??_EdgParallelSolverInitInternalForces@@UEAAPEAXI@Z 000000018000a790 f i physics_2009:dgWorld.obj
 0001:00009790       ??_EdgParallelSolverBuildJacobianMatrix@@UEAAPEAXI@Z 000000018000a790 f i physics_2009:dgWorld.obj
 0001:00009790       ??_EdgBroadPhaseCalculateContactsWorkerThread@@UEAAPEAXI@Z 000000018000a790 f i physics_2009:dgBroadPhaseCollision.obj
 0001:00009790       ??_GdgParallelSolverBuildJacobianRows@@UEAAPEAXI@Z 000000018000a790 f i physics_2009:dgWorld.obj
 0001:00009790       ??_GdgWorkerThread@@UEAAPEAXI@Z 000000018000a790 f i physics_2009:dgWorld.obj
 0001:00009790       ??_GdgParallelSolverUpdateVeloc@@UEAAPEAXI@Z 000000018000a790 f i physics_2009:dgWorld.obj
 0001:00009790       ??_EdgParallelSolverUpdateForce@@UEAAPEAXI@Z 000000018000a790 f i physics_2009:dgWorld.obj
 0001:00009790       ??_EdgParallelSolverCalculateForces@@UEAAPEAXI@Z 000000018000a790 f i physics_2009:dgWorld.obj
 0001:00009790       ??_GdgParallelSolverClear@@UEAAPEAXI@Z 000000018000a790 f i physics_2009:dgWorld.obj
 0001:00009790       ??_GdgParallelSolverBuildJacobianMatrix@@UEAAPEAXI@Z 000000018000a790 f i physics_2009:dgWorld.obj
 0001:00009790       ??_GdgBroadPhaseCellPairsWorkerThread@@UEAAPEAXI@Z 000000018000a790 f i physics_2009:dgBroadPhaseCollision.obj
 0001:00009790       ??_GdgBroadPhaseMaterialCallbackWorkerThread@@UEAAPEAXI@Z 000000018000a790 f i physics_2009:dgBroadPhaseCollision.obj
 0001:00009790       ??_EdgBroadPhaseMaterialCallbackWorkerThread@@UEAAPEAXI@Z 000000018000a790 f i physics_2009:dgBroadPhaseCollision.obj
 0001:00009790       ??_GdgParallelSolverUpdateForce@@UEAAPEAXI@Z 000000018000a790 f i physics_2009:dgWorld.obj
 0001:00009790       ??_EdgWorkerThread@@UEAAPEAXI@Z 000000018000a790 f i physics_2009:dgWorld.obj
 0001:00009790       ??_GdgBroadPhaseCalculateContactsWorkerThread@@UEAAPEAXI@Z 000000018000a790 f i physics_2009:dgBroadPhaseCollision.obj
 0001:00009790       ??_EdgParallelSolverInitFeedbackUpdate@@UEAAPEAXI@Z 000000018000a790 f i physics_2009:dgWorld.obj
 0001:00009790       ??_EdgParallelSolverClear@@UEAAPEAXI@Z 000000018000a790 f i physics_2009:dgWorld.obj
 0001:00009790       ??_GdgSetTrreadRoundMode@dgWorld@@UEAAPEAXI@Z 000000018000a790 f i physics_2009:dgWorld.obj
 0001:00009790       ??_EdgParallelSolverBodyInertia@@UEAAPEAXI@Z 000000018000a790 f i physics_2009:dgWorld.obj
 0001:00009790       ??_GdgParallelSolverCalculateForces@@UEAAPEAXI@Z 000000018000a790 f i physics_2009:dgWorld.obj
 0001:00009790       ??_GdgBroadPhaseApplyExternalForce@@UEAAPEAXI@Z 000000018000a790 f i physics_2009:dgBroadPhaseCollision.obj
 0001:00009790       ??_EdgParallelSolverBuildJacobianRows@@UEAAPEAXI@Z 000000018000a790 f i physics_2009:dgWorld.obj
 0001:00009790       ??_EdgSetTrreadRoundMode@dgWorld@@UEAAPEAXI@Z 000000018000a790 f i physics_2009:dgWorld.obj
 0001:000097c0       ?SetSolverMode@dgWorld@@QEAAXH@Z 000000018000a7c0 f   physics_2009:dgWorld.obj
 0001:000097d0       ?RemoveAllGroupID@dgWorld@@QEAAXXZ 000000018000a7d0 f   physics_2009:dgWorld.obj
 0001:00009830       ?DestroyBody@dgWorld@@QEAAXPEAVdgBody@@@Z 000000018000a830 f   physics_2009:dgWorld.obj
 0001:000098a0       ?GetPerfomanceTicks@dgWorld@@QEBAIHI@Z 000000018000a8a0 f   physics_2009:dgWorld.obj
 0001:000098d0       ?GetBodiesCount@dgWorld@@QEBAHXZ 000000018000a8d0 f   physics_2009:dgWorld.obj
 0001:000098e0       ?AreBodyConnectedByJoints@dgWorld@@AEAA_NPEAVdgBody@@0@Z 000000018000a8e0 f   physics_2009:dgWorld.obj
 0001:000099e0       ?FlushCache@dgWorld@@QEAAXXZ 000000018000a9e0 f   physics_2009:dgWorld.obj
 0001:00009a60       ??0dgWorldDynamicUpdate@@QEAA@XZ 000000018000aa60 f i physics_2009:dgWorld.obj
 0001:0000a090       ??1dgWorldDynamicUpdate@@QEAA@XZ 000000018000b090 f i physics_2009:dgWorld.obj
 0001:0000a200       ?DestroyAllBodies@dgWorld@@QEAAXXZ 000000018000b200 f   physics_2009:dgWorld.obj
 0001:0000a2a0       ?CreateBody@dgWorld@@QEAAPEAVdgBody@@PEAVdgCollision@@@Z 000000018000b2a0 f   physics_2009:dgWorld.obj
 0001:0000a420       ?BodySetMatrix@dgWorld@@QEAAXPEAVdgBody@@AEBVdgMatrix@@@Z 000000018000b420 f   physics_2009:dgWorld.obj
 0001:0000a760       ??1dgWorld@@QEAA@XZ        000000018000b760 f   physics_2009:dgWorld.obj
 0001:0000a990       ??0dgWorld@@QEAA@XZ        000000018000b990 f   physics_2009:dgWorld.obj
 0001:0000af50       ?GetIslandBody@dgWorld@@QEBAPEAVdgBody@@PEBXH@Z 000000018000bf50 f   physics_2009:dgWorldDynamicUpdate.obj
 0001:0000af70       ?SortIslands@dgWorldDynamicUpdate@@AEAAXXZ 000000018000bf70 f   physics_2009:dgWorldDynamicUpdate.obj
 0001:0000b280       ?ReallocBodyMemory@dgWorldDynamicUpdate@@AEAAXH@Z 000000018000c280 f   physics_2009:dgWorldDynamicUpdate.obj
 0001:0000b370       ?ReallocIslandMemory@dgWorldDynamicUpdate@@AEAAXH@Z 000000018000c370 f   physics_2009:dgWorldDynamicUpdate.obj
 0001:0000b460       ?ReallocJointsMemory@dgWorldDynamicUpdate@@AEAAXH@Z 000000018000c460 f   physics_2009:dgWorldDynamicUpdate.obj
 0001:0000b590       ?ReallocJacobiansMemory@dgWorldDynamicUpdate@@AEAAXHH@Z 000000018000c590 f   physics_2009:dgWorldDynamicUpdate.obj
 0001:0000b8e0       ?ReallocIntenalForcesMemory@dgWorldDynamicUpdate@@AEAAXHH@Z 000000018000c8e0 f   physics_2009:dgWorldDynamicUpdate.obj
 0001:0000ba20       ?ApplyExternalForcesAndAccelerationSimD@dgJacobianMemory@@QEBAXM@Z 000000018000ca20 f   physics_2009:dgWorldDynamicUpdate.obj
 0001:0000bdd0       ?GetJacobialDerivativesParallel@dgWorldDynamicUpdate@@AEAAHAEBVdgIsland@@_NHM@Z 000000018000cdd0 f   physics_2009:dgWorldDynamicUpdate.obj
 0001:0000bf30       ?ThreadExecute@dgParallelSolverJointAcceleration@@UEAAXXZ 000000018000cf30 f   physics_2009:dgWorldDynamicUpdate.obj
 0001:0000c160       ?ThreadExecute@dgParallelSolverInitFeedbackUpdate@@UEAAXXZ 000000018000d160 f   physics_2009:dgWorldDynamicUpdate.obj
 0001:0000c2e0       ?SpanningTree@dgWorldDynamicUpdate@@AEAAXPEAVdgBody@@@Z 000000018000d2e0 f   physics_2009:dgWorldDynamicUpdate.obj
 0001:0000c7c0       ?IntegrateArray@dgWorldDynamicUpdate@@AEBAXPEBVdgBodyInfo@@HMMH_N@Z 000000018000d7c0 f   physics_2009:dgWorldDynamicUpdate.obj
 0001:0000ce50       ?SortJointsArray@dgJacobianMemory@@QEBAHXZ 000000018000de50 f   physics_2009:dgWorldDynamicUpdate.obj
 0001:0000d250       ?ApplyExternalForcesAndAcceleration@dgJacobianMemory@@QEBAXM@Z 000000018000e250 f   physics_2009:dgWorldDynamicUpdate.obj
 0001:0000ddd0       ?SwapRowsSimd@dgJacobianMemory@@QEBAXHH@Z 000000018000edd0 f   physics_2009:dgWorldDynamicUpdate.obj
 0001:0000dfc0       ?SwapRows@dgJacobianMemory@@QEBAXHH@Z 000000018000efc0 f   physics_2009:dgWorldDynamicUpdate.obj
 0001:0000e2c0       ?CalculateSimpleBodyReactionsForcesSimD@dgJacobianMemory@@QEBAXM@Z 000000018000f2c0 f   physics_2009:dgWorldDynamicUpdate.obj
 0001:0000ee30       ?CalculateSimpleBodyReactionsForces@dgJacobianMemory@@QEBAXM@Z 000000018000fe30 f   physics_2009:dgWorldDynamicUpdate.obj
 0001:000110c0       ?CalculateJointForcesSimD@dgJacobianMemory@@QEBAMHPEAMM@Z 00000001800120c0 f   physics_2009:dgWorldDynamicUpdate.obj
 0001:00011ca0       ?CalculateJointForces@dgJacobianMemory@@QEBAMHPEAMM@Z 0000000180012ca0 f   physics_2009:dgWorldDynamicUpdate.obj
 0001:00013900       ?CalculateForcesGameModeSimD@dgJacobianMemory@@QEBAXHM@Z 0000000180014900 f   physics_2009:dgWorldDynamicUpdate.obj
 0001:00014410       ?CalculateForcesGameMode@dgJacobianMemory@@QEBAXHM@Z 0000000180015410 f   physics_2009:dgWorldDynamicUpdate.obj
 0001:00015c00       ?ThreadExecute@dgParallelSolverBuildJacobianRows@@UEAAXXZ 0000000180016c00 f   physics_2009:dgWorldDynamicUpdate.obj
 0001:00016680       ?BuildJacobianMatrixParallel@dgWorldDynamicUpdate@@AEAAXAEBVdgIsland@@MH@Z 0000000180017680 f   physics_2009:dgWorldDynamicUpdate.obj
 0001:00016a70       ?ThreadExecute@dgParallelSolverClear@@UEAAXXZ 0000000180017a70 f   physics_2009:dgWorldDynamicUpdate.obj
 0001:00016ca0       ?ThreadExecute@dgParallelSolverInitInternalForces@@UEAAXXZ 0000000180017ca0 f   physics_2009:dgWorldDynamicUpdate.obj
 0001:00017560       ?ThreadExecute@dgParallelSolverUpdateVeloc@@UEAAXXZ 0000000180018560 f   physics_2009:dgWorldDynamicUpdate.obj
 0001:00017900       ?ThreadExecute@dgParallelSolverUpdateForce@@UEAAXXZ 0000000180018900 f   physics_2009:dgWorldDynamicUpdate.obj
 0001:00017fb0       ?ThreadExecute@dgParallelSolverCalculateForces@@UEAAXXZ 0000000180018fb0 f   physics_2009:dgWorldDynamicUpdate.obj
 0001:00018860       ?CalculateForcesGameModeParallel@dgJacobianMemory@@QEBAXHMH@Z 0000000180019860 f   physics_2009:dgWorldDynamicUpdate.obj
 0001:00019290       ?AddDamingAcceleration@dgBody@@AEAAXXZ 000000018001a290 f i physics_2009:dgWorldDynamicUpdate.obj
 0001:000194b0       ?CalculateForcesSimulationModeSimd@dgJacobianMemory@@QEBAXM@Z 000000018001a4b0 f   physics_2009:dgWorldDynamicUpdate.obj
 0001:0001aac0       ?CalculateForcesSimulationMode@dgJacobianMemory@@QEBAXM@Z 000000018001bac0 f   physics_2009:dgWorldDynamicUpdate.obj
 0001:0001e350       ?ThreadExecute@dgParallelSolverBodyInertia@@UEAAXXZ 000000018001f350 f   physics_2009:dgWorldDynamicUpdate.obj
 0001:0001e430       ?UpdateDynamics@dgWorldDynamicUpdate@@AEAAXPEAVdgWorld@@HM@Z 000000018001f430 f   physics_2009:dgWorldDynamicUpdate.obj
 0001:0001e910       ?ThreadExecute@dgParallelSolverBuildJacobianMatrix@@UEAAXXZ 000000018001f910 f   physics_2009:dgWorldDynamicUpdate.obj
 0001:0001f1d0       ?GetJacobialDerivatives@dgWorldDynamicUpdate@@AEAAHAEBVdgIsland@@H_NHM@Z 00000001800201d0 f   physics_2009:dgWorldDynamicUpdate.obj
 0001:0001fa80       ?BuildJacobianMatrixSimD@dgWorldDynamicUpdate@@AEAAXAEBVdgIsland@@HM@Z 0000000180020a80 f   physics_2009:dgWorldDynamicUpdate.obj
 0001:00020110       ?BuildJacobianMatrix@dgWorldDynamicUpdate@@AEAAXAEBVdgIsland@@HM@Z 0000000180021110 f   physics_2009:dgWorldDynamicUpdate.obj
 0001:00020aa0       ?ThreadExecute@dgSolverWorlkerThreads@@UEAAXXZ 0000000180021aa0 f   physics_2009:dgWorldDynamicUpdate.obj
 0001:00021580       ?CreateConvexModifier@dgWorld@@QEAAPEAVdgCollision@@PEAV2@@Z 0000000180022580 f   physics_2009:dgNarrowPhaseCollision.obj
 0001:000215e0       ?CreateCompoundCollision@dgWorld@@QEAAPEAVdgCollision@@HQEBQEAV2@@Z 00000001800225e0 f   physics_2009:dgNarrowPhaseCollision.obj
 0001:00021640       ?CreateBVH@dgWorld@@QEAAPEAVdgCollision@@XZ 0000000180022640 f   physics_2009:dgNarrowPhaseCollision.obj
 0001:00021670       ?CreateStaticUserMesh@dgWorld@@QEAAPEAVdgCollision@@AEBVdgVector@@0AEBVdgUserMeshCreation@@@Z 0000000180022670 f   physics_2009:dgNarrowPhaseCollision.obj
 0001:000216d0       ?CreateBVHFieldCollision@dgWorld@@QEAAPEAVdgCollision@@HHHPEAGPEADMM@Z 00000001800226d0 f   physics_2009:dgNarrowPhaseCollision.obj
 0001:00021770       ?CreateScene@dgWorld@@QEAAPEAVdgCollision@@XZ 0000000180022770 f   physics_2009:dgNarrowPhaseCollision.obj
 0001:000217a0       ?Serialize@dgWorld@@QEBAXPEAVdgCollision@@P6AXPEAXPEBX_K@Z1@Z 00000001800227a0 f   physics_2009:dgNarrowPhaseCollision.obj
 0001:00021820       ?GetDefualtBodyGroupID@dgWorld@@QEBAIXZ 0000000180022820 f   physics_2009:dgNarrowPhaseCollision.obj
 0001:00021830       ?GetFirstMaterial@dgWorld@@QEBAPEAVdgContactMaterial@@XZ 0000000180022830 f   physics_2009:dgNarrowPhaseCollision.obj
 0001:00021860       ?GetNextMaterial@dgWorld@@QEBAPEAVdgContactMaterial@@PEAV2@@Z 0000000180022860 f   physics_2009:dgNarrowPhaseCollision.obj
 0001:00021890       ?SortContacts@dgWorld@@AEBAXQEAVdgContactPoint@@H@Z 0000000180022890 f   physics_2009:dgNarrowPhaseCollision.obj
 0001:00021b20       ?ReduceContacts@dgWorld@@AEBAHHQEAVdgContactPoint@@HMH@Z 0000000180022b20 f   physics_2009:dgNarrowPhaseCollision.obj
 0001:00021cf0       ?PruneContacts@dgWorld@@AEBAHHQEAVdgContactPoint@@H@Z 0000000180022cf0 f   physics_2009:dgNarrowPhaseCollision.obj
 0001:00021eb0       ?ProcessCachedContacts@dgWorld@@AEBAXPEAVdgContact@@PEBVdgContactMaterial@@MH@Z 0000000180022eb0 f   physics_2009:dgNarrowPhaseCollision.obj
 0001:00021fd0       ?ProcessTriggers@dgWorld@@AEAAXAEAUdgPair@dgCollidingPairCollector@@MH@Z 0000000180022fd0 f   physics_2009:dgNarrowPhaseCollision.obj
 0001:000220f0       ?ValidateContactCache@dgWorld@@AEBAHPEAVdgBody@@0PEAVdgContact@@@Z 00000001800230f0 f   physics_2009:dgNarrowPhaseCollision.obj
 0001:000227f0       ?CompoundContactsSimd@dgWorld@@AEBAXQEAUdgPair@dgCollidingPairCollector@@AEAVdgCollisionParamProxi@@@Z 00000001800237f0 f   physics_2009:dgNarrowPhaseCollision.obj
 0001:00023900       ?CompoundContacts@dgWorld@@AEBAXQEAUdgPair@dgCollidingPairCollector@@AEAVdgCollisionParamProxi@@@Z 0000000180024900 f   physics_2009:dgNarrowPhaseCollision.obj
 0001:00024a10       ?ConvexContactsSimd@dgWorld@@AEBAXQEAUdgPair@dgCollidingPairCollector@@AEAVdgCollisionParamProxi@@@Z 0000000180025a10 f   physics_2009:dgNarrowPhaseCollision.obj
 0001:00024c40       ?ConvexContacts@dgWorld@@AEBAXQEAUdgPair@dgCollidingPairCollector@@AEAVdgCollisionParamProxi@@@Z 0000000180025c40 f   physics_2009:dgNarrowPhaseCollision.obj
 0001:00024e70       ?SceneContactsSimd@dgWorld@@AEBAXAEBUdgProxy@dgCollisionScene@@QEAUdgPair@dgCollidingPairCollector@@AEAVdgCollisionParamProxi@@@Z 0000000180025e70 f   physics_2009:dgNarrowPhaseCollision.obj
 0001:00024fb0       ?SceneContacts@dgWorld@@AEBAXAEBUdgProxy@dgCollisionScene@@QEAUdgPair@dgCollidingPairCollector@@AEAVdgCollisionParamProxi@@@Z 0000000180025fb0 f   physics_2009:dgNarrowPhaseCollision.obj
 0001:000250f0       ?SceneContacts@dgWorld@@AEBAXQEAUdgPair@dgCollidingPairCollector@@AEAVdgCollisionParamProxi@@@Z 00000001800260f0 f   physics_2009:dgNarrowPhaseCollision.obj
 0001:000251f0       ?SceneContactsSimd@dgWorld@@AEBAXQEAUdgPair@dgCollidingPairCollector@@AEAVdgCollisionParamProxi@@@Z 00000001800261f0 f   physics_2009:dgNarrowPhaseCollision.obj
 0001:000252f0       ?Append@?$dgList@VdgContactMaterial@@@@QEAAPEAVdgListNode@1@XZ 00000001800262f0 f i physics_2009:dgNarrowPhaseCollision.obj
 0001:000253f0       ?GetMaterial@dgWorld@@QEBAPEAVdgContactMaterial@@II@Z 00000001800263f0 f   physics_2009:dgNarrowPhaseCollision.obj
 0001:00025440       ?RemoveFromCache@dgWorld@@QEAAXPEAVdgCollision@@@Z 0000000180026440 f   physics_2009:dgNarrowPhaseCollision.obj
 0001:000254c0       ?ReleaseCollision@dgWorld@@QEAAXPEAVdgCollision@@@Z 00000001800264c0 f   physics_2009:dgNarrowPhaseCollision.obj
 0001:00025560       ?ClosestCompoundPoint@dgWorld@@AEBAHPEAVdgBody@@0AEAVdgTriplex@@11H@Z 0000000180026560 f   physics_2009:dgNarrowPhaseCollision.obj
 0001:00025ca0       ?CalculateContactsSimd@dgWorld@@AEAAXQEAUdgPair@dgCollidingPairCollector@@MH@Z 0000000180026ca0 f   physics_2009:dgNarrowPhaseCollision.obj
 0001:00025e20       ?CalculateContacts@dgWorld@@AEAAXQEAUdgPair@dgCollidingPairCollector@@MH@Z 0000000180026e20 f   physics_2009:dgNarrowPhaseCollision.obj
 0001:00025fa0       ?CollideContinueSimd@dgWorld@@QEAAHPEAVdgCollision@@AEBVdgMatrix@@AEBVdgVector@@20122AEAMPEAVdgTriplex@@4PEAMHH@Z 0000000180026fa0 f   physics_2009:dgNarrowPhaseCollision.obj
 0001:00026760       ?CollideContinue@dgWorld@@QEAAHPEAVdgCollision@@AEBVdgMatrix@@AEBVdgVector@@20122AEAMPEAVdgTriplex@@4PEAMHH@Z 0000000180027760 f   physics_2009:dgNarrowPhaseCollision.obj
 0001:00026f10       ?Collide@dgWorld@@QEAAHPEAVdgCollision@@AEBVdgMatrix@@01PEAVdgTriplex@@2PEAMHH@Z 0000000180027f10 f   physics_2009:dgNarrowPhaseCollision.obj
 0001:000274d0       ?ClosestPoint@dgWorld@@QEBAHPEAVdgCollision@@AEBVdgMatrix@@01AEAVdgTriplex@@22H@Z 00000001800284d0 f   physics_2009:dgNarrowPhaseCollision.obj
 0001:000279c0       ?ProcessContacts@dgWorld@@AEAAXAEAUdgPair@dgCollidingPairCollector@@MH@Z 00000001800289c0 f   physics_2009:dgNarrowPhaseCollision.obj
 0001:00028a30       ?ClosestPoint@dgWorld@@QEBAHAEAVdgTriplex@@PEAVdgCollision@@AEBVdgMatrix@@00H@Z 0000000180029a30 f   physics_2009:dgNarrowPhaseCollision.obj
 0001:00028b30       ?CreateNull@dgWorld@@QEAAPEAVdgCollision@@XZ 0000000180029b30 f   physics_2009:dgNarrowPhaseCollision.obj
 0001:00028c60       ?CreateBox@dgWorld@@QEAAPEAVdgCollision@@MMMAEBVdgMatrix@@@Z 0000000180029c60 f   physics_2009:dgNarrowPhaseCollision.obj
 0001:00028ed0       ?CreateSphere@dgWorld@@QEAAPEAVdgCollision@@MAEBVdgMatrix@@@Z 0000000180029ed0 f   physics_2009:dgNarrowPhaseCollision.obj
 0001:000290c0       ?CreateEllipse@dgWorld@@QEAAPEAVdgCollision@@MMMAEBVdgMatrix@@@Z 000000018002a0c0 f   physics_2009:dgNarrowPhaseCollision.obj
 0001:00029310       ?CreateCapsule@dgWorld@@QEAAPEAVdgCollision@@MMAEBVdgMatrix@@@Z 000000018002a310 f   physics_2009:dgNarrowPhaseCollision.obj
 0001:00029500       ?CreateCone@dgWorld@@QEAAPEAVdgCollision@@MMAEBVdgMatrix@@@Z 000000018002a500 f   physics_2009:dgNarrowPhaseCollision.obj
 0001:000296f0       ?CreateCylinder@dgWorld@@QEAAPEAVdgCollision@@MMAEBVdgMatrix@@@Z 000000018002a6f0 f   physics_2009:dgNarrowPhaseCollision.obj
 0001:000298e0       ?CreateChamferCylinder@dgWorld@@QEAAPEAVdgCollision@@MMAEBVdgMatrix@@@Z 000000018002a8e0 f   physics_2009:dgNarrowPhaseCollision.obj
 0001:00029ad0       ?CreateConvexHull@dgWorld@@QEAAPEAVdgCollision@@HPEBMHMAEBVdgMatrix@@@Z 000000018002aad0 f   physics_2009:dgNarrowPhaseCollision.obj
 0001:00029d70       ?CreateFromSerialization@dgWorld@@QEAAPEAVdgCollision@@P6AXPEAX0_K@Z0@Z 000000018002ad70 f   physics_2009:dgNarrowPhaseCollision.obj
 0001:0002a670       ?CreateBodyGroupID@dgWorld@@QEAAIXZ 000000018002b670 f   physics_2009:dgNarrowPhaseCollision.obj
 0001:0002a830       ?CalculateSignature@dgCollisionConvexPolygon@dgCollisionMesh@@UEBAHXZ 000000018002b830 f   physics_2009:dgCollisionMesh.obj
 0001:0002a840       ?SupportVertexSimd@dgCollisionConvexPolygon@dgCollisionMesh@@UEBA?AVdgVector@@AEBV3@@Z 000000018002b840 f   physics_2009:dgCollisionMesh.obj
 0001:0002a9d0       ??1dgCollisionMesh@@UEAA@XZ 000000018002b9d0 f   physics_2009:dgCollisionMesh.obj
 0001:0002aa30       ?IsBilateral@dgConstraint@@MEBA_NXZ 000000018002ba30 f i physics_2009:dgConstraint.obj
 0001:0002aa30       ?IsBilateral@dgUpVectorConstraint@@UEBA_NXZ 000000018002ba30 f i physics_2009:dgUpVectorConstraint.obj
 0001:0002aa30       ?IsTriggerVolume@dgCollision@@UEBA_NXZ 000000018002ba30 f i physics_2009:dgCollisionMesh.obj
 0001:0002aa40       ?CalculateSignature@dgCollisionScene@@EEBAHXZ 000000018002ba40 f   physics_2009:dgCollisionScene.obj
 0001:0002aa40       ?GetPerformanceCount@dgWorld@@CAIXZ 000000018002ba40 f   physics_2009:dgWorld.obj
 0001:0002aa40       ?CalculateSignature@dgCollisionConvexModifier@@EEBAHXZ 000000018002ba40 f   physics_2009:dgCollisionConvexModifier.obj
 0001:0002aa40       ?CalculateSignature@dgCompoundCollision@@EEBAHXZ 000000018002ba40 f   physics_2009:dgCompoundCollision.obj
 0001:0002aa40       ?CalculateSignature@dgCollisionMesh@@EEBAHXZ 000000018002ba40 f   physics_2009:dgCollisionMesh.obj
 0001:0002aa40       ?GetUserData@dgCollision@@UEBAPEAXXZ 000000018002ba40 f   physics_2009:dgCollision.obj
 0001:0002aa40       ?GetUserData@dgCollisionMesh@@UEBAPEAXXZ 000000018002ba40 f   physics_2009:dgCollisionMesh.obj
 0001:0002aa50       ?SetCollisionCallback@dgCollisionMesh@@QEAAXP6AXPEBVdgBody@@0HHPEBMH@Z@Z 000000018002ba50 f   physics_2009:dgCollisionMesh.obj
 0001:0002aa60       ?SetCollisionRayCastCallback@dgCollisionMesh@@QEAAXP6AMMPEAMHPEAX@Z@Z 000000018002ba60 f   physics_2009:dgCollisionMesh.obj
 0001:0002aa70       ?GetVolume@dgCollisionScene@@EEBAMXZ 000000018002ba70 f   physics_2009:dgCollisionScene.obj
 0001:0002aa70       ?GetBoxMaxRadius@dgCollisionMesh@@UEBAMXZ 000000018002ba70 f   physics_2009:dgCollisionMesh.obj
 0001:0002aa70       ?GetBoxMinRadius@dgCollisionConvexPolygon@dgCollisionMesh@@UEBAMXZ 000000018002ba70 f   physics_2009:dgCollisionMesh.obj
 0001:0002aa70       ?GetBoxMaxRadius@dgCollisionConvexPolygon@dgCollisionMesh@@UEBAMXZ 000000018002ba70 f   physics_2009:dgCollisionMesh.obj
 0001:0002aa70       ?RayCast@dgCollisionConvexPolygon@dgCollisionMesh@@UEBAMAEBVdgVector@@0AEAVdgContactPoint@@P6AIPEBVdgBody@@PEBVdgCollision@@PEAX@Z24@Z 000000018002ba70 f   physics_2009:dgCollisionMesh.obj
 0001:0002aa70       ?GetVolume@dgCollisionMesh@@UEBAMXZ 000000018002ba70 f   physics_2009:dgCollisionMesh.obj
 0001:0002aa70       ?GetVolume@dgCollisionNull@@MEBAMXZ 000000018002ba70 f   physics_2009:dgCollisionNull.obj
 0001:0002aa70       ?GetBoxMaxRadius@dgCollisionScene@@EEBAMXZ 000000018002ba70 f   physics_2009:dgCollisionScene.obj
 0001:0002aa70       ?RayCastSimd@dgCollision@@UEBAMAEBVdgVector@@0AEAVdgContactPoint@@P6AIPEBVdgBody@@PEBV1@PEAX@Z24@Z 000000018002ba70 f   physics_2009:dgCollision.obj
 0001:0002aa70       ?GetVolume@dgCollisionConvexPolygon@dgCollisionMesh@@UEBAMXZ 000000018002ba70 f   physics_2009:dgCollisionMesh.obj
 0001:0002aa70       ?GetBoxMinRadius@dgCollisionScene@@EEBAMXZ 000000018002ba70 f   physics_2009:dgCollisionScene.obj
 0001:0002aa70       ?GetBoxMinRadius@dgCollisionMesh@@UEBAMXZ 000000018002ba70 f   physics_2009:dgCollisionMesh.obj
 0001:0002aa70       ?GetVolume@dgCollisionPoint@@UEBAMXZ 000000018002ba70 f   physics_2009:dgCollisionSphere.obj
 0001:0002aa80       ?CalculateInertia@dgCollisionScene@@EEBAXAEAVdgVector@@0@Z 000000018002ba80 f   physics_2009:dgCollisionScene.obj
 0001:0002aa80       ?CalculateInertia@dgCollisionMesh@@UEBAXAEAVdgVector@@0@Z 000000018002ba80 f   physics_2009:dgCollisionMesh.obj
 0001:0002aa80       ?CalculateInertia@dgCollisionNull@@MEBAXAEAVdgVector@@0@Z 000000018002ba80 f   physics_2009:dgCollisionNull.obj
 0001:0002aa80       ?CalculateInertia@dgCollisionPoint@@UEBAXAEAVdgVector@@0@Z 000000018002ba80 f   physics_2009:dgCollisionSphere.obj
 0001:0002aa80       ?CalculateInertia@dgCollisionConvexPolygon@dgCollisionMesh@@UEBAXAEAVdgVector@@0@Z 000000018002ba80 f   physics_2009:dgCollisionMesh.obj
 0001:0002aaa0       ?SupportVertex@dgCollisionConvexPolygon@dgCollisionMesh@@UEBA?AVdgVector@@AEBV3@@Z 000000018002baa0 f   physics_2009:dgCollisionMesh.obj
 0001:0002ac80       ?CalculatePlaneIntersection@dgCollisionConvexPolygon@dgCollisionMesh@@UEBAHAEBVdgVector@@0QEAV3@@Z 000000018002bc80 f   physics_2009:dgCollisionMesh.obj
 0001:0002b680       ?CalculatePlaneIntersectionSimd@dgCollisionConvexPolygon@dgCollisionMesh@@UEBAHAEBVdgVector@@0QEAV3@@Z 000000018002c680 f   physics_2009:dgCollisionMesh.obj
 0001:0002bd80       ??_GdgCollisionMesh@@UEAAPEAXI@Z 000000018002cd80 f i physics_2009:dgCollisionMesh.obj
 0001:0002bd80       ??_EdgCollisionMesh@@UEAAPEAXI@Z 000000018002cd80 f i physics_2009:dgCollisionMesh.obj
 0001:0002be00       ??0dgCollisionConvexPolygon@dgCollisionMesh@@QEAA@XZ 000000018002ce00 f   physics_2009:dgCollisionMesh.obj
 0001:0002bec0       ??_GdgCollisionConvexPolygon@dgCollisionMesh@@UEAAPEAXI@Z 000000018002cec0 f i physics_2009:dgCollisionMesh.obj
 0001:0002bec0       ??_EdgCollisionConvexPolygon@dgCollisionMesh@@UEAAPEAXI@Z 000000018002cec0 f i physics_2009:dgCollisionMesh.obj
 0001:0002bef0       ?CalculateNormalSimd@dgCollisionConvexPolygon@dgCollisionMesh@@QEAAXXZ 000000018002cef0 f   physics_2009:dgCollisionMesh.obj
 0001:0002c000       ?CalculateNormal@dgCollisionConvexPolygon@dgCollisionMesh@@QEAAXXZ 000000018002d000 f   physics_2009:dgCollisionMesh.obj
 0001:0002c1b0       ?ClipContacts@dgCollisionConvexPolygon@dgCollisionMesh@@QEBAHHQEAVdgContactPoint@@AEBVdgMatrix@@@Z 000000018002d1b0 f   physics_2009:dgCollisionMesh.obj
 0001:0002cb40       ?ClosestDistanceToTriangle@dgCollisionConvexPolygon@dgCollisionMesh@@QEBA?AVdgVector@@AEBV3@000@Z 000000018002db40 f   physics_2009:dgCollisionMesh.obj
 0001:0002cff0       ?PointToPolygonDistance@dgCollisionConvexPolygon@dgCollisionMesh@@QEAA_NAEBVdgVector@@MAEAV3@@Z 000000018002dff0 f   physics_2009:dgCollisionMesh.obj
 0001:0002d300       ?MovingPointToPolygonContact@dgCollisionConvexPolygon@dgCollisionMesh@@QEAAMAEBVdgVector@@0MAEAVdgContactPoint@@@Z 000000018002e300 f   physics_2009:dgCollisionMesh.obj
 0001:0002dd20       ?QuickTestContinueSimd@dgCollisionConvexPolygon@dgCollisionMesh@@QEAAHPEBVdgConvexCollision@@AEBVdgMatrix@@@Z 000000018002ed20 f   physics_2009:dgCollisionMesh.obj
 0001:0002e1c0       ?QuickTestContinue@dgCollisionConvexPolygon@dgCollisionMesh@@QEAAHPEBVdgConvexCollision@@AEBVdgMatrix@@@Z 000000018002f1c0 f   physics_2009:dgCollisionMesh.obj
 0001:0002e540       ?QuickTest@dgCollisionConvexPolygon@dgCollisionMesh@@QEAAHPEBVdgConvexCollision@@AEBVdgMatrix@@@Z 000000018002f540 f   physics_2009:dgCollisionMesh.obj
 0001:0002ea30       ?QuickTestSimd@dgCollisionConvexPolygon@dgCollisionMesh@@QEAAHPEBVdgConvexCollision@@AEBVdgMatrix@@@Z 000000018002fa30 f   physics_2009:dgCollisionMesh.obj
 0001:0002f020       ??0dgCollisionMesh@@QEAA@W4dgCollisionID@@@Z 0000000180030020 f   physics_2009:dgCollisionMesh.obj
 0001:0002f160       ??0dgCollisionMesh@@QEAA@PEAVdgWorld@@P6AXPEAX1_K@Z1@Z 0000000180030160 f   physics_2009:dgCollisionMesh.obj
 0001:0002f290       ??0dgCollisionBVH@@QEAA@XZ 0000000180030290 f   physics_2009:dgCollisionBVH.obj
 0001:0002f2f0       ?Serialize@dgCollisionBVH@@EEBAXP6AXPEAXPEBX_K@Z0@Z 00000001800302f0 f   physics_2009:dgCollisionBVH.obj
 0001:0002f340       ?AddFace@dgCollisionBVH@@QEAAXHQEBMHH@Z 0000000180030340 f   physics_2009:dgCollisionBVH.obj
 0001:0002f3f0       ?GetCollisionInfo@dgCollisionBVH@@EEBAXPEAVdgCollisionInfo@@@Z 00000001800303f0 f   physics_2009:dgCollisionBVH.obj
 0001:0002f3f0       ?GetCollisionInfo@dgCollisionConvexHull@@EEBAXPEAVdgCollisionInfo@@@Z 00000001800303f0 f   physics_2009:dgCollisionConvexHull.obj
 0001:0002f460       ?CollectVertexListIndexList@dgCollisionBVH@@CA?AW4dgIntersectStatus@@PEAXQEBMHQEBHH@Z 0000000180030460 f   physics_2009:dgCollisionBVH.obj
 0001:0002f530       ?GetVertexListIndexList@dgCollisionBVH@@QEBAXAEBVdgVector@@0AEAVdgGetVertexListIndexList@1@@Z 0000000180030530 f   physics_2009:dgCollisionBVH.obj
 0001:0002f560       ?SupportVertex@dgCollisionBVH@@EEBA?AVdgVector@@AEBV2@@Z 0000000180030560 f   physics_2009:dgCollisionBVH.obj
 0001:0002f580       ??_EdgCollisionBVH@@WOA@EAAPEAXI@Z 0000000180030580 f i physics_2009:dgCollisionBVH.obj
 0001:0002f590       ?Serialize@dgCollisionBVH@@GOA@EBAXP6AXPEAXPEBX_K@Z0@Z 0000000180030590 f i physics_2009:dgCollisionBVH.obj
 0001:0002f5a0       ??_GdgCollisionBVH@@UEAAPEAXI@Z 00000001800305a0 f i physics_2009:dgCollisionBVH.obj
 0001:0002f5a0       ??_EdgCollisionBVH@@UEAAPEAXI@Z 00000001800305a0 f i physics_2009:dgCollisionBVH.obj
 0001:0002f600       ?BeginBuild@dgCollisionBVH@@QEAAXXZ 0000000180030600 f   physics_2009:dgCollisionBVH.obj
 0001:0002f640       ??0dgCollisionBVH@@QEAA@PEAVdgWorld@@P6AXPEAX1_K@Z1@Z 0000000180030640 f   physics_2009:dgCollisionBVH.obj
 0001:0002f6f0       ?EndBuild@dgCollisionBVH@@QEAAXH@Z 00000001800306f0 f   physics_2009:dgCollisionBVH.obj
 0001:0002f790       ?RayHitSimd@dgCollisionBVH@@CAMPEAXQEBMHQEBHH@Z 0000000180030790 f   physics_2009:dgCollisionBVH.obj
 0001:0002f860       ?RayHit@dgCollisionBVH@@CAMPEAXQEBMHQEBHH@Z 0000000180030860 f   physics_2009:dgCollisionBVH.obj
 0001:0002f930       ?RayHitUserSimd@dgCollisionBVH@@CAMPEAXQEBMHQEBHH@Z 0000000180030930 f   physics_2009:dgCollisionBVH.obj
 0001:0002fa70       ?RayHitUser@dgCollisionBVH@@CAMPEAXQEBMHQEBHH@Z 0000000180030a70 f   physics_2009:dgCollisionBVH.obj
 0001:0002fc40       ?RayCastSimd@dgCollisionBVH@@EEBAMAEBVdgVector@@0AEAVdgContactPoint@@P6AIPEBVdgBody@@PEBVdgCollision@@PEAX@Z24@Z 0000000180030c40 f   physics_2009:dgCollisionBVH.obj
 0001:0002ff40       ?RayCast@dgCollisionBVH@@EEBAMAEBVdgVector@@0AEAVdgContactPoint@@P6AIPEBVdgBody@@PEBVdgCollision@@PEAX@Z24@Z 0000000180030f40 f   physics_2009:dgCollisionBVH.obj
 0001:00030240       ?GetPolygon@dgCollisionBVH@@CA?AW4dgIntersectStatus@@PEAXQEBMHQEBHH@Z 0000000180031240 f   physics_2009:dgCollisionBVH.obj
 0001:00030770       ?GetCollidingFacesSimd@dgCollisionBVH@@EEBAXQEAVdgPolygonMeshDesc@@@Z 0000000180031770 f   physics_2009:dgCollisionBVH.obj
 0001:000307f0       ?GetCollidingFaces@dgCollisionBVH@@EEBAXQEAVdgPolygonMeshDesc@@@Z 00000001800317f0 f   physics_2009:dgCollisionBVH.obj
 0001:00030870       ?ShowDebugPolygon@dgCollisionBVH@@CA?AW4dgIntersectStatus@@PEAXQEBMHQEBHH@Z 0000000180031870 f   physics_2009:dgCollisionBVH.obj
 0001:00030d30       ?DebugCollision@dgCollisionBVH@@EEBAXAEBVdgMatrix@@P6AXPEAXHPEBMH@Z1@Z 0000000180031d30 f   physics_2009:dgCollisionBVH.obj
 0001:00030e00       ??_GdgSceneNode@dgCollisionScene@@QEAAPEAXI@Z 0000000180031e00 f i physics_2009:dgCollisionScene.obj
 0001:00030e60       ?UpdateAABB@dgSceneNode@dgCollisionScene@@QEAAXAEBVdgVector@@0@Z 0000000180031e60 f i physics_2009:dgCollisionScene.obj
 0001:00030ef0       ?Serialize@dgCollisionScene@@EEBAXP6AXPEAXPEBX_K@Z0@Z 0000000180031ef0 f   physics_2009:dgCollisionScene.obj
 0001:000310e0       ?SetProxyMatrix@dgCollisionScene@@QEAAXPEAXAEBVdgMatrix@@@Z 00000001800320e0 f   physics_2009:dgCollisionScene.obj
 0001:00031160       ?SetCollisionCallback@dgCollisionScene@@QEAAXP6AXPEBVdgBody@@0HHPEBMH@Z@Z 0000000180032160 f   physics_2009:dgCollisionScene.obj
 0001:000311b0       ?DebugCollision@dgCollisionScene@@EEBAXAEBVdgMatrix@@P6AXPEAXHPEBMH@Z1@Z 00000001800321b0 f   physics_2009:dgCollisionScene.obj
 0001:00031260       ?GetCollisionInfo@dgCollisionScene@@EEBAXPEAVdgCollisionInfo@@@Z 0000000180032260 f   physics_2009:dgCollisionScene.obj
 0001:000312d0       ?RemoveAll@?$dgList@UdgProxy@dgCollisionScene@@@@QEAAXXZ 00000001800322d0 f i physics_2009:dgCollisionScene.obj
 0001:00031360       ?GetProxyMatrix@dgCollisionScene@@QEAA?AVdgMatrix@@PEAX@Z 0000000180032360 f   physics_2009:dgCollisionScene.obj
 0001:000314f0       ?CalcAABB@dgCollisionMesh@@EEBAXAEBVdgMatrix@@AEAVdgVector@@1@Z 00000001800324f0 f   physics_2009:dgCollisionMesh.obj
 0001:000314f0       ?CalcAABB@dgCollisionScene@@EEBAXAEBVdgMatrix@@AEAVdgVector@@1@Z 00000001800324f0 f   physics_2009:dgCollisionScene.obj
 0001:00031770       ?SetCollisionBBox@dgCollisionScene@@EEAAXAEBVdgVector@@0@Z 0000000180032770 f   physics_2009:dgCollisionScene.obj
 0001:00031770       ?SetCollisionBBox@dgCollisionMesh@@MEAAXAEBVdgVector@@0@Z 0000000180032770 f   physics_2009:dgCollisionMesh.obj
 0001:00031860       ?GetAxis@dgCollisionScene@@AEBAHQEAPEAVdgListNode@?$dgList@UdgProxy@dgCollisionScene@@@@H@Z 0000000180032860 f   physics_2009:dgCollisionScene.obj
 0001:00031b90       ?RayCastSimd@dgCollisionScene@@EEBAMAEBVdgVector@@0AEAVdgContactPoint@@P6AIPEBVdgBody@@PEBVdgCollision@@PEAX@Z24@Z 0000000180032b90 f   physics_2009:dgCollisionScene.obj
 0001:00032300       ?SupportVertexSimd@dgCollisionNull@@MEBA?AVdgVector@@AEBV2@@Z 0000000180033300 f   physics_2009:dgCollisionNull.obj
 0001:00032300       ?SupportVertex@dgCollisionNull@@MEBA?AVdgVector@@AEBV2@@Z 0000000180033300 f   physics_2009:dgCollisionNull.obj
 0001:00032300       ?SupportVertex@dgCollisionPoint@@UEBA?AVdgVector@@AEBV2@@Z 0000000180033300 f   physics_2009:dgCollisionSphere.obj
 0001:00032300       ?SupportVertex@dgCollisionMesh@@EEBA?AVdgVector@@AEBV2@@Z 0000000180033300 f   physics_2009:dgCollisionMesh.obj
 0001:00032300       ?SupportVertexSimd@dgCollisionPoint@@UEBA?AVdgVector@@AEBV2@@Z 0000000180033300 f   physics_2009:dgCollisionSphere.obj
 0001:00032300       ?SupportVertex@dgCollisionScene@@EEBA?AVdgVector@@AEBV2@@Z 0000000180033300 f   physics_2009:dgCollisionScene.obj
 0001:00032300       ?CalculateVolumeIntegral@dgCollisionMesh@@EEBA?AVdgVector@@AEBVdgMatrix@@P6AIPEAX10AEAVdgPlane@@@Z1@Z 0000000180033300 f   physics_2009:dgCollisionMesh.obj
 0001:00032300       ?CalculateVolumeIntegral@dgCollisionScene@@EEBA?AVdgVector@@AEBVdgMatrix@@P6AIPEAX10AEAVdgPlane@@@Z1@Z 0000000180033300 f   physics_2009:dgCollisionScene.obj
 0001:00032300       ?CalculateVolumeIntegral@dgCollisionNull@@MEBA?AVdgVector@@AEBVdgMatrix@@P6AIPEAX10AEAVdgPlane@@@Z1@Z 0000000180033300 f   physics_2009:dgCollisionNull.obj
 0001:00032320       ?RayCast@dgCollisionScene@@EEBAMAEBVdgVector@@0AEAVdgContactPoint@@P6AIPEBVdgBody@@PEBVdgCollision@@PEAX@Z24@Z 0000000180033320 f   physics_2009:dgCollisionScene.obj
 0001:00032a90       ?CollidePairSimd@dgCollisionScene@@QEBAXQEAUdgPair@dgCollidingPairCollector@@AEAVdgCollisionParamProxi@@@Z 0000000180033a90 f   physics_2009:dgCollisionScene.obj
 0001:00032e90       ?CollidePair@dgCollisionScene@@QEBAXQEAUdgPair@dgCollidingPairCollector@@AEAVdgCollisionParamProxi@@@Z 0000000180033e90 f   physics_2009:dgCollisionScene.obj
 0001:000332f0       ?SortAABBBoxes@dgCollisionScene@@AEBAHQEAPEAVdgListNode@?$dgList@UdgProxy@dgCollisionScene@@@@H@Z 00000001800342f0 f   physics_2009:dgCollisionScene.obj
 0001:00033490       ?SortAndSpliteSplite@dgCollisionScene@@AEBAHQEAPEAVdgListNode@?$dgList@UdgProxy@dgCollisionScene@@@@H@Z 0000000180034490 f   physics_2009:dgCollisionScene.obj
 0001:000336f0       ?BuildTree@dgCollisionScene@@AEAAPEAUdgSceneNode@1@PEAU21@QEAPEAVdgListNode@?$dgList@UdgProxy@dgCollisionScene@@@@HH@Z 00000001800346f0 f   physics_2009:dgCollisionScene.obj
 0001:00033870       ??0dgListNode@?$dgList@UdgProxy@dgCollisionScene@@@@AEAA@PEAV01@0@Z 0000000180034870 f i physics_2009:dgCollisionScene.obj
 0001:000338e0       ??0dgCollisionScene@@QEAA@PEAVdgWorld@@@Z 00000001800348e0 f   physics_2009:dgCollisionScene.obj
 0001:00033a00       ??1dgCollisionScene@@UEAA@XZ 0000000180034a00 f   physics_2009:dgCollisionScene.obj
 0001:00033ab0       ?Append@?$dgList@UdgProxy@dgCollisionScene@@@@QEAAPEAVdgListNode@1@XZ 0000000180034ab0 f i physics_2009:dgCollisionScene.obj
 0001:00033b50       ??_EdgCollisionScene@@UEAAPEAXI@Z 0000000180034b50 f i physics_2009:dgCollisionScene.obj
 0001:00033b50       ??_GdgCollisionScene@@UEAAPEAXI@Z 0000000180034b50 f i physics_2009:dgCollisionScene.obj
 0001:00033b80       ?AddProxy@dgCollisionScene@@QEAAPEAXPEAVdgCollision@@@Z 0000000180034b80 f   physics_2009:dgCollisionScene.obj
 0001:00033c10       ?BuildTree@dgCollisionScene@@QEAAXXZ 0000000180034c10 f   physics_2009:dgCollisionScene.obj
 0001:00033e00       ??0dgCollisionScene@@QEAA@PEAVdgWorld@@P6AXPEAX1_K@Z1@Z 0000000180034e00 f   physics_2009:dgCollisionScene.obj
 0001:00034180       ?SetAparentMassMatrix@dgBody@@QEAAXAEBVdgVector@@@Z 0000000180035180 f   physics_2009:dgBody.obj
 0001:00034200       ??DdgQuaternion@@QEBA?AV0@AEBV0@@Z 0000000180035200 f i physics_2009:dgBody.obj
 0001:00034340       ?AddBuoyancyForce@dgBody@@QEAAXMMMAEBVdgVector@@P6AIPEAX1AEBVdgMatrix@@AEAVdgPlane@@@Z1@Z 0000000180035340 f   physics_2009:dgBody.obj
 0001:000346d0       ?CalcInvInertiaMatrix@dgBody@@QEAAXXZ 00000001800356d0 f   physics_2009:dgBody.obj
 0001:00034810       ?CalcInvInertiaMatrixSimD@dgBody@@QEAAXXZ 0000000180035810 f   physics_2009:dgBody.obj
 0001:00034930       ?CalculateInverseDynamicForce@dgBody@@QEBA?AVdgVector@@AEBV2@M@Z 0000000180035930 f   physics_2009:dgBody.obj
 0001:000349e0       ?GetFirstJoint@dgBody@@QEBAPEAVdgConstraint@@XZ 00000001800359e0 f   physics_2009:dgBody.obj
 0001:00034a20       ?GetNextJoint@dgBody@@QEBAPEAVdgConstraint@@PEAV2@@Z 0000000180035a20 f   physics_2009:dgBody.obj
 0001:00034a70       ?GetFirstContact@dgBody@@QEBAPEAVdgConstraint@@XZ 0000000180035a70 f   physics_2009:dgBody.obj
 0001:00034ab0       ?GetNextContact@dgBody@@QEBAPEAVdgConstraint@@PEAV2@@Z 0000000180035ab0 f   physics_2009:dgBody.obj
 0001:00034b00       ?Freeze@dgBody@@QEAAXXZ    0000000180035b00 f   physics_2009:dgBody.obj
 0001:00034b60       ?Unfreeze@dgBody@@QEAAXXZ  0000000180035b60 f   physics_2009:dgBody.obj
 0001:00034bc0       ?InsertAfter@?$dgList@VdgBodyMasterListRow@@@@QEAAXPEAVdgListNode@1@0@Z 0000000180035bc0 f i physics_2009:dgBody.obj
 0001:00034c40       ??0dgBody@@QEAA@XZ         0000000180035c40 f   physics_2009:dgBody.obj
 0001:00034c70       ?SetMassMatrix@dgBody@@QEAAXMMMM@Z 0000000180035c70 f   physics_2009:dgBody.obj
 0001:00034e10       ?UpdateCollisionMatrixSimD@dgBody@@AEAAXMH@Z 0000000180035e10 f   physics_2009:dgBody.obj
 0001:000354e0       ?UpdateCollisionMatrix@dgBody@@AEAAXMH@Z 00000001800364e0 f   physics_2009:dgBody.obj
 0001:00035ac0       ?UpdateMatrix@dgBody@@AEAAXMH@Z 0000000180036ac0 f   physics_2009:dgBody.obj
 0001:00035b10       ?IntegrateVelocity@dgBody@@AEAAXM@Z 0000000180036b10 f   physics_2009:dgBody.obj
 0001:00035f70       ?CalculateContinueVelocity@dgBody@@AEBAXMAEAVdgVector@@0@Z 0000000180036f70 f   physics_2009:dgBody.obj
 0001:00036190       ?CalculateContinueVelocitySimD@dgBody@@AEBAXMAEAVdgVector@@0@Z 0000000180037190 f   physics_2009:dgBody.obj
 0001:00036350       ?SetFreeze@dgBody@@QEAAX_N@Z 0000000180037350 f   physics_2009:dgBody.obj
 0001:00036360       ?AddImpulse@dgBody@@AEAAXAEBVdgVector@@0@Z 0000000180037360 f   physics_2009:dgBody.obj
 0001:00036900       ?SetMatrix@dgBody@@QEAAXAEBVdgMatrix@@@Z 0000000180037900 f   physics_2009:dgBody.obj
 0001:00036a90       ?SetMatrixIgnoreSleep@dgBody@@QEAAXAEBVdgMatrix@@@Z 0000000180037a90 f   physics_2009:dgBody.obj
 0001:00036b50       ?RayCast@dgBody@@QEBAMAEBUdgLineBox@@P6AMPEBV1@AEBVdgVector@@HPEAXM@ZP6AI1PEBVdgCollision@@3@Z3M@Z 0000000180037b50 f   physics_2009:dgBody.obj
 0001:00037030       ?AttachCollision@dgBody@@QEAAXPEAVdgCollision@@@Z 0000000180038030 f   physics_2009:dgBody.obj
 0001:00037150       ?SetJointParameterCallBack@dgBallConstraint@@QEAAXP6AIAEBV1@M@Z@Z 0000000180038150 f   physics_2009:dgBallConstraint.obj
 0001:00037160       ?GetJointAngle@dgBallConstraint@@QEBA?AVdgVector@@XZ 0000000180038160 f   physics_2009:dgBallConstraint.obj
 0001:00037190       ?SetTwistLimitState@dgBallConstraint@@QEAAX_N@Z 0000000180038190 f   physics_2009:dgBallConstraint.obj
 0001:000371b0       ?SetConeLimitState@dgBallConstraint@@QEAAX_N@Z 00000001800381b0 f   physics_2009:dgBallConstraint.obj
 0001:000371d0       ?SetLatealLimitState@dgBallConstraint@@QEAAX_N@Z 00000001800381d0 f   physics_2009:dgBallConstraint.obj
 0001:000371f0       ??_GdgBallConstraint@@EEAAPEAXI@Z 00000001800381f0 f i physics_2009:dgBallConstraint.obj
 0001:000371f0       ??_EdgBallConstraint@@EEAAPEAXI@Z 00000001800381f0 f i physics_2009:dgBallConstraint.obj
 0001:00037230       ??0dgBallConstraint@@AEAA@XZ 0000000180038230 f   physics_2009:dgBallConstraint.obj
 0001:000372c0       ?GetJointOmega@dgBallConstraint@@QEBA?AVdgVector@@XZ 00000001800382c0 f   physics_2009:dgBallConstraint.obj
 0001:00037550       ?GetJointForce@dgBallConstraint@@QEBA?AVdgVector@@XZ 0000000180038550 f   physics_2009:dgBallConstraint.obj
 0001:00037680       ?SetLimits@dgBallConstraint@@QEAAXAEBVdgVector@@MMM0MM@Z 0000000180038680 f   physics_2009:dgBallConstraint.obj
 0001:00038130       ?SetPivotPoint@dgBallConstraint@@AEAAXAEBVdgVector@@@Z 0000000180039130 f   physics_2009:dgBallConstraint.obj
 0001:00038240       ?JacobianDerivative@dgBallConstraint@@EEAAIAEAVdgContraintDescritor@@@Z 0000000180039240 f   physics_2009:dgBallConstraint.obj
 0001:00038b40       ??0dgHingeConstraint@@AEAA@XZ 0000000180039b40 f   physics_2009:dgHingeConstraint.obj
 0001:00038b80       ?SetJointParameterCallBack@dgSlidingConstraint@@QEAAXP6AIAEBV1@PEAVdgJointCallBackParam@@@Z@Z 0000000180039b80 f   physics_2009:dgSlidingConstraint.obj
 0001:00038b80       ?SetJointParameterCallBack@dgCorkscrewConstraint@@QEAAXP6AIAEBV1@PEAVdgJointCallBackParam@@@Z@Z 0000000180039b80 f   physics_2009:dgCorkscrewConstraint.obj
 0001:00038b80       ?SetJointParameterCallBack@dgHingeConstraint@@QEAAXP6AIAEBV1@PEAVdgJointCallBackParam@@@Z@Z 0000000180039b80 f   physics_2009:dgHingeConstraint.obj
 0001:00038b80       ?SetJointParameterCallBack@dgUniversalConstraint@@QEAAXP6AIAEBV1@PEAVdgJointCallBackParam@@@Z@Z 0000000180039b80 f   physics_2009:dgUniversalConstraint.obj
 0001:00038b90       ??_GdgHingeConstraint@@EEAAPEAXI@Z 0000000180039b90 f i physics_2009:dgHingeConstraint.obj
 0001:00038b90       ??_EdgHingeConstraint@@EEAAPEAXI@Z 0000000180039b90 f i physics_2009:dgHingeConstraint.obj
 0001:00038bd0       ?CalculateStopAlpha@dgHingeConstraint@@QEBAMMPEBVdgJointCallBackParam@@@Z 0000000180039bd0 f   physics_2009:dgHingeConstraint.obj
 0001:00038c70       ?GetJointForce@dgHingeConstraint@@QEBA?AVdgVector@@XZ 0000000180039c70 f   physics_2009:dgHingeConstraint.obj
 0001:00038e50       ?JacobianDerivative@dgHingeConstraint@@EEAAIAEAVdgContraintDescritor@@@Z 0000000180039e50 f   physics_2009:dgHingeConstraint.obj
 0001:00039210       ??0dgSlidingConstraint@@AEAA@XZ 000000018003a210 f   physics_2009:dgSlidingConstraint.obj
 0001:00039250       ??_EdgSlidingConstraint@@EEAAPEAXI@Z 000000018003a250 f i physics_2009:dgSlidingConstraint.obj
 0001:00039250       ??_GdgSlidingConstraint@@EEAAPEAXI@Z 000000018003a250 f i physics_2009:dgSlidingConstraint.obj
 0001:00039290       ?CalculateStopAccel@dgSlidingConstraint@@QEBAMMPEBVdgJointCallBackParam@@@Z 000000018003a290 f   physics_2009:dgSlidingConstraint.obj
 0001:00039320       ?GetJointForce@dgSlidingConstraint@@QEBA?AVdgVector@@XZ 000000018003a320 f   physics_2009:dgSlidingConstraint.obj
 0001:00039520       ?JacobianDerivative@dgSlidingConstraint@@EEAAIAEAVdgContraintDescritor@@@Z 000000018003a520 f   physics_2009:dgSlidingConstraint.obj
 0001:00039ae0       ??0dgCorkscrewConstraint@@AEAA@XZ 000000018003aae0 f   physics_2009:dgCorkscrewConstraint.obj
 0001:00039b30       ?GetJointAngle0@dgUniversalConstraint@@QEBAMXZ 000000018003ab30 f   physics_2009:dgUniversalConstraint.obj
 0001:00039b30       ?GetJointAngle@dgCorkscrewConstraint@@QEBAMXZ 000000018003ab30 f   physics_2009:dgCorkscrewConstraint.obj
 0001:00039b30       ?GetJointAngle@dgHingeConstraint@@QEBAMXZ 000000018003ab30 f   physics_2009:dgHingeConstraint.obj
 0001:00039b30       ?GetJointPosit@dgSlidingConstraint@@QEBAMXZ 000000018003ab30 f   physics_2009:dgSlidingConstraint.obj
 0001:00039b40       ??_GdgCorkscrewConstraint@@EEAAPEAXI@Z 000000018003ab40 f i physics_2009:dgCorkscrewConstraint.obj
 0001:00039b40       ??_EdgCorkscrewConstraint@@EEAAPEAXI@Z 000000018003ab40 f i physics_2009:dgCorkscrewConstraint.obj
 0001:00039b80       ?GetJointOmega@dgCorkscrewConstraint@@QEBAMXZ 000000018003ab80 f   physics_2009:dgCorkscrewConstraint.obj
 0001:00039b80       ?GetJointOmega0@dgUniversalConstraint@@QEBAMXZ 000000018003ab80 f   physics_2009:dgUniversalConstraint.obj
 0001:00039b80       ?GetJointOmega@dgHingeConstraint@@QEBAMXZ 000000018003ab80 f   physics_2009:dgHingeConstraint.obj
 0001:00039c50       ?GetJointVeloc@dgCorkscrewConstraint@@QEBAMXZ 000000018003ac50 f   physics_2009:dgCorkscrewConstraint.obj
 0001:00039c50       ?GetJointVeloc@dgSlidingConstraint@@QEBAMXZ 000000018003ac50 f   physics_2009:dgSlidingConstraint.obj
 0001:00039d20       ?CalculateStopAlpha0@dgUniversalConstraint@@QEBAMMPEBVdgJointCallBackParam@@@Z 000000018003ad20 f   physics_2009:dgUniversalConstraint.obj
 0001:00039d20       ?CalculateStopAlpha@dgCorkscrewConstraint@@QEBAMMPEBVdgJointCallBackParam@@@Z 000000018003ad20 f   physics_2009:dgCorkscrewConstraint.obj
 0001:00039db0       ?CalculateStopAccel@dgCorkscrewConstraint@@QEBAMMPEBVdgJointCallBackParam@@@Z 000000018003adb0 f   physics_2009:dgCorkscrewConstraint.obj
 0001:00039e40       ?GetJointForce@dgUniversalConstraint@@QEBA?AVdgVector@@XZ 000000018003ae40 f   physics_2009:dgUniversalConstraint.obj
 0001:00039e40       ?GetJointForce@dgCorkscrewConstraint@@QEBA?AVdgVector@@XZ 000000018003ae40 f   physics_2009:dgCorkscrewConstraint.obj
 0001:00039fd0       ?JacobianDerivative@dgCorkscrewConstraint@@EEAAIAEAVdgContraintDescritor@@@Z 000000018003afd0 f   physics_2009:dgCorkscrewConstraint.obj
 0001:0003a590       ??0dgUniversalConstraint@@AEAA@XZ 000000018003b590 f   physics_2009:dgUniversalConstraint.obj
 0001:0003a5e0       ?GetJointPosit@dgCorkscrewConstraint@@QEBAMXZ 000000018003b5e0 f   physics_2009:dgCorkscrewConstraint.obj
 0001:0003a5e0       ?GetJointAngle1@dgUniversalConstraint@@QEBAMXZ 000000018003b5e0 f   physics_2009:dgUniversalConstraint.obj
 0001:0003a5f0       ??_GdgUniversalConstraint@@EEAAPEAXI@Z 000000018003b5f0 f i physics_2009:dgUniversalConstraint.obj
 0001:0003a5f0       ??_EdgUniversalConstraint@@EEAAPEAXI@Z 000000018003b5f0 f i physics_2009:dgUniversalConstraint.obj
 0001:0003a630       ?GetJointOmega1@dgUniversalConstraint@@QEBAMXZ 000000018003b630 f   physics_2009:dgUniversalConstraint.obj
 0001:0003a700       ?CalculateStopAlpha1@dgUniversalConstraint@@QEBAMMPEBVdgJointCallBackParam@@@Z 000000018003b700 f   physics_2009:dgUniversalConstraint.obj
 0001:0003a790       ?JacobianDerivative@dgUniversalConstraint@@EEAAIAEAVdgContraintDescritor@@@Z 000000018003b790 f   physics_2009:dgUniversalConstraint.obj
 0001:0003ae30       ??0dgUpVectorConstraint@@AEAA@XZ 000000018003be30 f   physics_2009:dgUpVectorConstraint.obj
 0001:0003ae80       ?InitPinDir@dgUpVectorConstraint@@QEAAXAEBVdgVector@@@Z 000000018003be80 f   physics_2009:dgUpVectorConstraint.obj
 0001:0003aec0       ?GetPinDir@dgUpVectorConstraint@@QEBA?AVdgVector@@XZ 000000018003bec0 f   physics_2009:dgUpVectorConstraint.obj
 0001:0003aef0       ??_EdgUpVectorConstraint@@EEAAPEAXI@Z 000000018003bef0 f i physics_2009:dgUpVectorConstraint.obj
 0001:0003aef0       ??_GdgUpVectorConstraint@@EEAAPEAXI@Z 000000018003bef0 f i physics_2009:dgUpVectorConstraint.obj
 0001:0003af30       ?SetPinDir@dgUpVectorConstraint@@QEAAXAEBVdgVector@@@Z 000000018003bf30 f   physics_2009:dgUpVectorConstraint.obj
 0001:0003b220       ?JacobianDerivative@dgUpVectorConstraint@@EEAAIAEAVdgContraintDescritor@@@Z 000000018003c220 f   physics_2009:dgUpVectorConstraint.obj
 0001:0003b4f0       ?GetUserData@dgConstraint@@QEBAPEAXXZ 000000018003c4f0 f   physics_2009:dgConstraint.obj
 0001:0003b500       ?SetUserData@dgConstraint@@QEAAXPEAX@Z 000000018003c500 f   physics_2009:dgConstraint.obj
 0001:0003b510       ?InitInfo@dgConstraint@@IEBAXPEAVdgConstraintInfo@@@Z 000000018003c510 f   physics_2009:dgConstraint.obj
 0001:0003b620       ?InitPointParam@dgConstraint@@IEBAXAEAVdgPointParam@1@MAEBVdgVector@@1@Z 000000018003c620 f   physics_2009:dgConstraint.obj
 0001:0003ba10       ?Realloc@dgBroadPhaseCalculateContactsWorkerThread@@QEAAXHHH@Z 000000018003ca10 f   physics_2009:dgBroadPhaseCollision.obj
 0001:0003bb40       ?ThreadExecute@dgBroadPhaseCalculateContactsWorkerThread@@UEAAXXZ 000000018003cb40 f   physics_2009:dgBroadPhaseCollision.obj
 0001:0003bd40       ?ThreadExecute@dgBroadPhaseMaterialCallbackWorkerThread@@UEAAXXZ 000000018003cd40 f   physics_2009:dgBroadPhaseCollision.obj
 0001:0003be60       ?UpdateAutoPair@dgBroadPhaseCell@@AEAAXPEAVdgWorld@@H@Z 000000018003ce60 f   physics_2009:dgBroadPhaseCollision.obj
 0001:0003bfd0       ?UpdatePairs@dgBroadPhaseCollision@@AEBAXPEAVdgBody@@PEAVdgListNode@?$dgList@VdgSortArrayEntry@@@@HH@Z 000000018003cfd0 f   physics_2009:dgBroadPhaseCollision.obj
 0001:0003c0d0       ?UpdatePairs@dgBroadPhaseCollision@@AEBAXAEAVdgBroadPhaseCell@@0H@Z 000000018003d0d0 f   physics_2009:dgBroadPhaseCollision.obj
 0001:0003c180       ?ThreadExecute@dgBroadPhaseCellPairsWorkerThread@@UEAAXXZ 000000018003d180 f   physics_2009:dgBroadPhaseCollision.obj
 0001:0003c270       ?UpdateContactsBroadPhaseEnd@dgBroadPhaseCollision@@AEAAXM@Z 000000018003d270 f   physics_2009:dgBroadPhaseCollision.obj
 0001:0003c350       ?Append@?$dgList@VdgSortArrayEntry@@@@QEAAPEAVdgListNode@1@XZ 000000018003d350 f i physics_2009:dgBroadPhaseCollision.obj
 0001:0003c3f0       ?ApplyExtenalForces@dgBody@@AEAAXMH@Z 000000018003d3f0 f i physics_2009:dgBroadPhaseCollision.obj
 0001:0003c490       ?IsInEquelibrium@dgBody@@QEBA_NXZ 000000018003d490 f i physics_2009:dgBroadPhaseCollision.obj
 0001:0003c630       ?Add@dgSortArray@@QEAAXPEAVdgBody@@@Z 000000018003d630 f   physics_2009:dgBroadPhaseCollision.obj
 0001:0003c780       ?UpdatePoisition@dgSortArray@@QEAAXPEAVdgBody@@@Z 000000018003d780 f   physics_2009:dgBroadPhaseCollision.obj
 0001:0003c9b0       ?Add@dgBroadPhaseCell@@AEAAXPEAVdgBody@@@Z 000000018003d9b0 f   physics_2009:dgBroadPhaseCollision.obj
 0001:0003ca00       ?UpdatePoisition@dgBroadPhaseCell@@AEAAXPEAVdgBody@@@Z 000000018003da00 f   physics_2009:dgBroadPhaseCollision.obj
 0001:0003ca40       ?ForEachBodyInAABB@dgBroadPhaseCollision@@QEBAXAEBVdgVector@@0P6AXPEAVdgBody@@@Z@Z 000000018003da40 f   physics_2009:dgBroadPhaseCollision.obj
 0001:0003cd50       ?ConvexCast@dgBroadPhaseCollision@@QEBAHPEAVdgCollision@@AEBVdgMatrix@@AEBVdgVector@@AEAMP6AIPEBVdgBody@@PEBV2@PEAX@Z6QEAVdgConvexCastReturnInfo@@HH@Z 000000018003dd50 f   physics_2009:dgBroadPhaseCollision.obj
 0001:0003d640       ?ThreadExecute@dgBroadPhaseApplyExternalForce@@UEAAXXZ 000000018003e640 f   physics_2009:dgBroadPhaseCollision.obj
 0001:0003d8e0       ?RayCast@dgBroadPhaseCollision@@QEBAXAEBVdgVector@@0P6AMPEBVdgBody@@0HPEAXM@ZP6AI1PEBVdgCollision@@2@Z2@Z 000000018003e8e0 f   physics_2009:dgBroadPhaseCollision.obj
 0001:0003e0d0       ?Remove@dgSortArray@@QEAAXPEAVdgBody@@@Z 000000018003f0d0 f   physics_2009:dgBroadPhaseCollision.obj
 0001:0003e170       ??1dgBroadPhaseCell@@QEAA@XZ 000000018003f170 f   physics_2009:dgBroadPhaseCollision.obj
 0001:0003e200       ?Remove@dgBroadPhaseCell@@AEAAXPEAVdgBody@@@Z 000000018003f200 f   physics_2009:dgBroadPhaseCollision.obj
 0001:0003e250       ??0dgBroadPhaseCollision@@AEAA@XZ 000000018003f250 f   physics_2009:dgBroadPhaseCollision.obj
 0001:0003e650       ??1dgBroadPhaseCollision@@AEAA@XZ 000000018003f650 f   physics_2009:dgBroadPhaseCollision.obj
 0001:0003e730       ?Remove@dgBroadPhaseCollision@@AEAAXPEAVdgBody@@@Z 000000018003f730 f   physics_2009:dgBroadPhaseCollision.obj
 0001:0003e7d0       ?UpdateContactsBroadPhaseBegin@dgBroadPhaseCollision@@AEAAXM_N@Z 000000018003f7d0 f   physics_2009:dgBroadPhaseCollision.obj
 0001:0003f1e0       ?UpdateContactsSimd@dgBroadPhaseCollision@@AEAAXM_N@Z 00000001800401e0 f   physics_2009:dgBroadPhaseCollision.obj
 0001:0003f470       ?UpdateContacts@dgBroadPhaseCollision@@AEAAXM_N@Z 0000000180040470 f   physics_2009:dgBroadPhaseCollision.obj
 0001:0003f700       ?FindCreate@dgBroadPhaseLayer@@AEAAPEAVdgBroadPhaseCell@@HH@Z 0000000180040700 f   physics_2009:dgBroadPhaseCollision.obj
 0001:0003f930       ?Add@dgBroadPhaseCollision@@AEAAXPEAVdgBody@@@Z 0000000180040930 f   physics_2009:dgBroadPhaseCollision.obj
 0001:0003f9a0       ?UpdateBodyBroadphase@dgBroadPhaseCollision@@AEAAXPEAVdgBody@@H@Z 00000001800409a0 f   physics_2009:dgBroadPhaseCollision.obj
 0001:0003fef0       ?SetWorldSize@dgBroadPhaseCollision@@QEAAXAEBVdgVector@@0@Z 0000000180040ef0 f   physics_2009:dgBroadPhaseCollision.obj
 0001:00040280       ?Init@dgBroadPhaseCollision@@AEAAXPEAVdgWorld@@@Z 0000000180041280 f   physics_2009:dgBroadPhaseCollision.obj
 0001:000402e0       ??0dgCollisionConvexHull@@QEAA@PEAVdgWorld@@P6AXPEAX1_K@Z1@Z 00000001800412e0 f   physics_2009:dgCollisionConvexHull.obj
 0001:000404f0       ?Serialize@dgCollisionConvexHull@@EEBAXP6AXPEAXPEBX_K@Z0@Z 00000001800414f0 f   physics_2009:dgCollisionConvexHull.obj
 0001:00040680       ?PlaneSplite@dgCollisionBox@@MEBAXAEBVdgPlane@@PEAPEAVdgCollisionConvexHull@@1@Z 0000000180041680 f   physics_2009:dgCollisionBox.obj
 0001:00040680       ?PlaneSplite@dgCollisionConvexHull@@EEBAXAEBVdgPlane@@PEAPEAV1@1@Z 0000000180041680 f   physics_2009:dgCollisionConvexHull.obj
 0001:00040680       ?BeginPolygon@NewtonMeshEffect@@QEAAXXZ 0000000180041680 f   NewtonMeshEffect.obj
 0001:00040690       ??_GdgCollisionConvexHull@@UEAAPEAXI@Z 0000000180041690 f i physics_2009:dgCollisionConvexHull.obj
 0001:00040690       ??_EdgCollisionConvexHull@@UEAAPEAXI@Z 0000000180041690 f i physics_2009:dgCollisionConvexHull.obj
 0001:000406e0       ?BruteForceSupportVertex@dgCollisionConvexHull@@AEBAHHPEAVdgVector@@AEBV2@@Z 00000001800416e0 f   physics_2009:dgCollisionConvexHull.obj
 0001:000408a0       ?DebugCollision@dgCollisionConvexHull@@EEBAXAEBVdgMatrix@@P6AXPEAXHPEBMH@Z1@Z 00000001800418a0 f   physics_2009:dgCollisionConvexHull.obj
 0001:000409d0       ?FaceNormal@dgCollisionConvexHull@@AEBA?AVdgVector@@PEBVdgEdge@@PEBV2@@Z 00000001800419d0 f   physics_2009:dgCollisionConvexHull.obj
 0001:00040c20       ?RemoveCoplanarEdge@dgCollisionConvexHull@@AEBA_NAEAVdgPolyhedra@@QEAVdgVector@@@Z 0000000180041c20 f   physics_2009:dgCollisionConvexHull.obj
 0001:00041190       ?OOBBTest@dgCollisionConvexHull@@EEBA_NAEBVdgMatrix@@QEBVdgConvexCollision@@PEAX@Z 0000000180042190 f   physics_2009:dgCollisionConvexHull.obj
 0001:000416e0       ?Create@dgCollisionConvexHull@@AEAA_NHHPEBMM@Z 00000001800426e0 f   physics_2009:dgCollisionConvexHull.obj
 0001:00043480       ??0dgCollisionConvexHull@@QEAA@IHHMPEBMAEBVdgMatrix@@@Z 0000000180044480 f   physics_2009:dgCollisionConvexHull.obj
 0001:00043900       ??0dgUserConstraint@@IEAA@PEAVdgWorld@@PEAVdgBody@@1H@Z 0000000180044900 f   physics_2009:dgUserConstraint.obj
 0001:00043990       ??1dgUserConstraint@@MEAA@XZ 0000000180044990 f   physics_2009:dgUserConstraint.obj
 0001:000439a0       ?GetInfo@dgUserConstraint@@MEBAXPEAVdgConstraintInfo@@@Z 00000001800449a0 f   physics_2009:dgUserConstraint.obj
 0001:000439b0       ??_GdgUserConstraint@@MEAAPEAXI@Z 00000001800449b0 f i physics_2009:dgUserConstraint.obj
 0001:000439b0       ??_EdgUserConstraint@@MEAAPEAXI@Z 00000001800449b0 f i physics_2009:dgUserConstraint.obj
 0001:000439f0       ?GetStiffness@dgConstraint@@UEBAMXZ 00000001800449f0 f i physics_2009:dgBilateralConstraint.obj
 0001:00043a00       ??1dgBilateralConstraint@@MEAA@XZ 0000000180044a00 f   physics_2009:dgBilateralConstraint.obj
 0001:00043a50       ?GetStiffness@dgBilateralConstraint@@MEBAMXZ 0000000180044a50 f   physics_2009:dgBilateralConstraint.obj
 0001:00043a70       ?SetDestructorCallback@dgBilateralConstraint@@UEAAXP6AXAEAVdgConstraint@@@Z@Z 0000000180044a70 f   physics_2009:dgBilateralConstraint.obj
 0001:00043a80       ?SetMotorAcceleration@dgBilateralConstraint@@IEAAXHMAEAVdgContraintDescritor@@@Z 0000000180044a80 f   physics_2009:dgBilateralConstraint.obj
 0001:00043ab0       ??_GdgConstraint@@MEAAPEAXI@Z 0000000180044ab0 f i physics_2009:dgBilateralConstraint.obj
 0001:00043ab0       ??_EdgConstraint@@MEAAPEAXI@Z 0000000180044ab0 f i physics_2009:dgBilateralConstraint.obj
 0001:00043ae0       ??_EdgBilateralConstraint@@MEAAPEAXI@Z 0000000180044ae0 f i physics_2009:dgBilateralConstraint.obj
 0001:00043ae0       ??_GdgBilateralConstraint@@MEAAPEAXI@Z 0000000180044ae0 f i physics_2009:dgBilateralConstraint.obj
 0001:00043b30       ?SetStiffness@dgBilateralConstraint@@MEAAXM@Z 0000000180044b30 f   physics_2009:dgBilateralConstraint.obj
 0001:00043b70       ?SetJacobianDerivative@dgBilateralConstraint@@IEAAXHAEAVdgContraintDescritor@@PEBM1PEAM@Z 0000000180044b70 f   physics_2009:dgBilateralConstraint.obj
 0001:00043c60       ?CalculatePointDerivative@dgBilateralConstraint@@IEAAXHAEAVdgContraintDescritor@@AEBVdgVector@@AEBVdgPointParam@dgConstraint@@PEAM@Z 0000000180044c60 f   physics_2009:dgBilateralConstraint.obj
 0001:00043fc0       ??0dgBilateralConstraint@@IEAA@XZ 0000000180044fc0 f   physics_2009:dgBilateralConstraint.obj
 0001:00044100       ?CalculateMatrixOffset@dgBilateralConstraint@@IEAAXAEBVdgVector@@0AEAVdgMatrix@@1@Z 0000000180045100 f   physics_2009:dgBilateralConstraint.obj
 0001:00044750       ?SetPivotAndPinDir@dgBilateralConstraint@@IEAAXAEBVdgVector@@0@Z 0000000180045750 f   physics_2009:dgBilateralConstraint.obj
 0001:00044770       ?SetPivotAndPinDir@dgBilateralConstraint@@IEAAXAEBVdgVector@@00@Z 0000000180045770 f   physics_2009:dgBilateralConstraint.obj
 0001:00044da0       ?CalculateGlobalMatrixAndAngle@dgBilateralConstraint@@IEBA?AVdgVector@@AEAVdgMatrix@@0@Z 0000000180045da0 f   physics_2009:dgBilateralConstraint.obj
 0001:00045020       ?CalculateSpringDamperAcceleration@dgBilateralConstraint@@IEAAMHAEBVdgContraintDescritor@@MAEBVdgVector@@1MM@Z 0000000180046020 f   physics_2009:dgBilateralConstraint.obj
 0001:00045320       ?CalculateAngularDerivative@dgBilateralConstraint@@IEAAXHAEAVdgContraintDescritor@@AEBVdgVector@@MMPEAM@Z 0000000180046320 f   physics_2009:dgBilateralConstraint.obj
 0001:000454e0       ?JointAccelerations@dgBilateralConstraint@@MEAAXAEBVdgJointAccelerationDecriptor@@@Z 00000001800464e0 f   physics_2009:dgBilateralConstraint.obj
 0001:000454e0       ?JointAccelerationsSimd@dgBilateralConstraint@@MEAAXAEBVdgJointAccelerationDecriptor@@@Z 00000001800464e0 f   physics_2009:dgBilateralConstraint.obj
 0001:00045730       ??1dgCollisionSphere@@UEAA@XZ 0000000180046730 f   physics_2009:dgCollisionSphere.obj
 0001:00045760       ?CalculateSignature@dgCollisionSphere@@MEBAHXZ 0000000180046760 f   physics_2009:dgCollisionSphere.obj
 0001:00045800       ?GetCollisionInfo@dgCollisionSphere@@MEBAXPEAVdgCollisionInfo@@@Z 0000000180046800 f   physics_2009:dgCollisionSphere.obj
 0001:00045880       ??_EdgCollisionSphere@@UEAAPEAXI@Z 0000000180046880 f i physics_2009:dgCollisionSphere.obj
 0001:00045880       ??_GdgCollisionSphere@@UEAAPEAXI@Z 0000000180046880 f i physics_2009:dgCollisionSphere.obj
 0001:000458d0       ?SupportVertexSimd@dgCollisionSphere@@MEBA?AVdgVector@@AEBV2@@Z 00000001800468d0 f   physics_2009:dgCollisionSphere.obj
 0001:000458d0       ?SupportVertex@dgCollisionSphere@@MEBA?AVdgVector@@AEBV2@@Z 00000001800468d0 f   physics_2009:dgCollisionSphere.obj
 0001:00045940       ?CalcAABB@dgCollisionSphere@@MEBAXAEBVdgMatrix@@AEAVdgVector@@1@Z 0000000180046940 f   physics_2009:dgCollisionSphere.obj
 0001:000459c0       ?CalculatePlaneIntersection@dgCollisionSphere@@MEBAHAEBVdgVector@@0QEAV2@@Z 00000001800469c0 f   physics_2009:dgCollisionSphere.obj
 0001:000459c0       ?CalculatePlaneIntersectionSimd@dgCollisionSphere@@MEBAHAEBVdgVector@@0QEAV2@@Z 00000001800469c0 f   physics_2009:dgCollisionSphere.obj
 0001:00045a50       ?TesselateTriangle@dgCollisionSphere@@IEBAXHAEBVdgVector@@00AEAHPEAV2@@Z 0000000180046a50 f   physics_2009:dgCollisionSphere.obj
 0001:00045e40       ?DebugCollision@dgCollisionSphere@@MEBAXAEBVdgMatrix@@P6AXPEAXHPEBMH@Z1@Z 0000000180046e40 f   physics_2009:dgCollisionSphere.obj
 0001:00046240       ?RayCast@dgCollisionSphere@@MEBAMAEBVdgVector@@0AEAVdgContactPoint@@P6AIPEBVdgBody@@PEBVdgCollision@@PEAX@Z24@Z 0000000180047240 f   physics_2009:dgCollisionSphere.obj
 0001:00046540       ?CalculateMassProperties@dgCollisionSphere@@MEBAMAEAVdgVector@@00@Z 0000000180047540 f   physics_2009:dgCollisionSphere.obj
 0001:000466a0       ?Serialize@dgCollisionSphere@@MEBAXP6AXPEAXPEBX_K@Z0@Z 00000001800476a0 f   physics_2009:dgCollisionSphere.obj
 0001:00046700       ?Init@dgCollisionSphere@@IEAAXM@Z 0000000180047700 f   physics_2009:dgCollisionSphere.obj
 0001:00046c70       ??0dgCollisionSphere@@QEAA@IMAEBVdgMatrix@@@Z 0000000180047c70 f   physics_2009:dgCollisionSphere.obj
 0001:00046cc0       ??0dgCollisionSphere@@QEAA@PEAVdgWorld@@P6AXPEAX1_K@Z1@Z 0000000180047cc0 f   physics_2009:dgCollisionSphere.obj
 0001:00046d20       ?MassProperties@dgConvexMassData@@QEAAMAEAVdgVector@@00@Z 0000000180047d20 f i physics_2009:dgConvexCollision.obj
 0001:00046e50       ??1dgConvexCollision@@MEAA@XZ 0000000180047e50 f   physics_2009:dgConvexCollision.obj
 0001:00046ea0       ?SerializeLow@dgConvexCollision@@MEBAXP6AXPEAXPEBX_K@Z0@Z 0000000180047ea0 f   physics_2009:dgConvexCollision.obj
 0001:00046ef0       ?GetUserData@dgConvexCollision@@MEBAPEAXXZ 0000000180047ef0 f   physics_2009:dgConvexCollision.obj
 0001:00046f00       ?SetUserData@dgConvexCollision@@MEAAXPEAX@Z 0000000180047f00 f   physics_2009:dgConvexCollision.obj
 0001:00046f10       ?GetVolume@dgConvexCollision@@EEBAMXZ 0000000180047f10 f   physics_2009:dgConvexCollision.obj
 0001:00046f20       ?GetBoxMinRadius@dgConvexCollision@@EEBAMXZ 0000000180047f20 f   physics_2009:dgConvexCollision.obj
 0001:00046f30       ?GetBoxMaxRadius@dgConvexCollision@@EEBAMXZ 0000000180047f30 f   physics_2009:dgConvexCollision.obj
 0001:00046f40       ?IsTriggerVolume@dgConvexCollision@@UEBA_NXZ 0000000180047f40 f   physics_2009:dgConvexCollision.obj
 0001:00046f50       ?SetAsTriggerVolume@dgConvexCollision@@MEAAX_N@Z 0000000180047f50 f   physics_2009:dgConvexCollision.obj
 0001:00046f70       ??_EdgConvexCollision@@MEAAPEAXI@Z 0000000180047f70 f i physics_2009:dgConvexCollision.obj
 0001:00046f70       ??_GdgConvexCollision@@MEAAPEAXI@Z 0000000180047f70 f i physics_2009:dgConvexCollision.obj
 0001:00046fd0       ?GetDiscretedAngleStep@dgConvexCollision@@IEBAMM@Z 0000000180047fd0 f   physics_2009:dgConvexCollision.obj
 0001:00047020       ?DebugCollision@dgConvexCollision@@MEBAXAEBVdgMatrix@@P6AXPEAXHPEBMH@Z1@Z 0000000180048020 f   physics_2009:dgConvexCollision.obj
 0001:00047180       ?GetSupportEdge@dgConvexCollision@@IEBAPEAVdgConvexSimplexEdge@@AEBVdgVector@@@Z 0000000180048180 f   physics_2009:dgConvexCollision.obj
 0001:00047240       ?CalculateInertia@dgConvexCollision@@EEBAXAEAVdgVector@@0@Z 0000000180048240 f   physics_2009:dgConvexCollision.obj
 0001:000473a0       ?RayCastClosestFace@dgConvexCollision@@AEBAHPEAVdgVector@@AEBV2@AEAM@Z 00000001800483a0 f   physics_2009:dgConvexCollision.obj
 0001:000479a0       ?RayHitBox@dgConvexCollision@@AEBA_NAEBVdgVector@@0@Z 00000001800489a0 f   physics_2009:dgConvexCollision.obj
 0001:00047b30       ?SupportVertex@dgConvexCollision@@UEBA?AVdgVector@@AEBV2@@Z 0000000180048b30 f   physics_2009:dgConvexCollision.obj
 0001:00047d50       ?SupportVertexSimd@dgConvexCollision@@UEBA?AVdgVector@@AEBV2@@Z 0000000180048d50 f   physics_2009:dgConvexCollision.obj
 0001:00047f20       ?RayCast@dgConvexCollision@@UEBAMAEBVdgVector@@0AEAVdgContactPoint@@P6AIPEBVdgBody@@PEBVdgCollision@@PEAX@Z24@Z 0000000180048f20 f   physics_2009:dgConvexCollision.obj
 0001:00048db0       ?OOBBTest@dgConvexCollision@@UEBA_NAEBVdgMatrix@@QEBV1@PEAX@Z 0000000180049db0 f   physics_2009:dgConvexCollision.obj
 0001:00049030       ?AddCg@dgConvexMassData@@QEAAXHPEBVdgVector@@@Z 000000018004a030 f i physics_2009:dgConvexCollision.obj
 0001:00049230       ?AddInertia@dgConvexMassData@@QEAAXHPEBM@Z 000000018004a230 f i physics_2009:dgConvexCollision.obj
 0001:00049580       ??0dgConvexCollision@@IEAA@IAEBVdgMatrix@@W4dgCollisionID@@@Z 000000018004a580 f   physics_2009:dgConvexCollision.obj
 0001:00049690       ??0dgConvexCollision@@IEAA@PEAVdgWorld@@P6AXPEAX1_K@Z1@Z 000000018004a690 f   physics_2009:dgConvexCollision.obj
 0001:000497a0       ?SetVolumeAndCG@dgConvexCollision@@IEAAXXZ 000000018004a7a0 f   physics_2009:dgConvexCollision.obj
 0001:00049c20       ?CalcAABB@dgConvexCollision@@UEBAXAEBVdgMatrix@@AEAVdgVector@@1@Z 000000018004ac20 f   physics_2009:dgConvexCollision.obj
 0001:00049eb0       ?CalcAABBSimD@dgConvexCollision@@UEBAXAEBVdgMatrix@@AEAVdgVector@@1@Z 000000018004aeb0 f   physics_2009:dgConvexCollision.obj
 0001:00049f30       ?CalculateInertia@dgConvexCollision@@CAXPEAXHPEBMH@Z 000000018004af30 f   physics_2009:dgConvexCollision.obj
 0001:00049f40       ?CalculateMassProperties@dgConvexCollision@@MEBAMAEAVdgVector@@00@Z 000000018004af40 f   physics_2009:dgConvexCollision.obj
 0001:00049fd0       ?CalculateVolumeIntegral@dgConvexCollision@@IEBA?AVdgVector@@AEBVdgPlane@@@Z 000000018004afd0 f   physics_2009:dgConvexCollision.obj
 0001:0004a6c0       ?SimplifyClipPolygon@dgConvexCollision@@AEBAHHAEBVdgVector@@PEAV2@@Z 000000018004b6c0 f   physics_2009:dgConvexCollision.obj
 0001:0004aa00       ?RectifyConvexSlice@dgConvexCollision@@IEBAHHAEBVdgVector@@QEAV2@@Z 000000018004ba00 f   physics_2009:dgConvexCollision.obj
 0001:0004ae40       ?CalculatePlaneIntersectionSimd@dgConvexCollision@@UEBAHAEBVdgVector@@0QEAV2@@Z 000000018004be40 f   physics_2009:dgConvexCollision.obj
 0001:0004b310       ?CalculatePlaneIntersection@dgConvexCollision@@UEBAHAEBVdgVector@@0QEAV2@@Z 000000018004c310 f   physics_2009:dgConvexCollision.obj
 0001:0004b910       ?CalculateVolumeIntegral@dgConvexCollision@@EEBA?AVdgVector@@AEBVdgMatrix@@P6AIPEAX10AEAVdgPlane@@@Z1@Z 000000018004c910 f   physics_2009:dgConvexCollision.obj
 0001:0004bb20       ?FindConstraintLink@dgBodyMasterList@@QEBAPEAVdgListNode@?$dgList@VdgBodyMasterListCell@@@@PEBVdgBody@@0@Z 000000018004cb20 f   physics_2009:dgBodyMasterList.obj
 0001:0004bb50       ?FindConstraintLinkNext@dgBodyMasterList@@QEBAPEAVdgListNode@?$dgList@VdgBodyMasterListCell@@@@PEBV23@PEBVdgBody@@@Z 000000018004cb50 f   physics_2009:dgBodyMasterList.obj
 0001:0004bb80       ?Addtop@?$dgList@VdgBodyMasterListCell@@@@QEAAPEAVdgListNode@1@XZ 000000018004cb80 f i physics_2009:dgBodyMasterList.obj
 0001:0004bc10       ?RemoveAll@?$dgList@VdgBodyMasterListCell@@@@QEAAXXZ 000000018004cc10 f i physics_2009:dgBodyMasterList.obj
 0001:0004bc90       ?SortList@dgBodyMasterListRow@@QEAAXXZ 000000018004cc90 f   physics_2009:dgBodyMasterList.obj
 0001:0004bdb0       ?AttachConstraint@dgBodyMasterList@@QEAAXPEAVdgConstraint@@PEAVdgBody@@1@Z 000000018004cdb0 f   physics_2009:dgBodyMasterList.obj
 0001:0004beb0       ?SortMasterList@dgBodyMasterList@@QEAAXXZ 000000018004ceb0 f   physics_2009:dgBodyMasterList.obj
 0001:0004c0a0       ?RemoveConstraint@dgBodyMasterList@@QEAAXPEAVdgConstraint@@@Z 000000018004d0a0 f   physics_2009:dgBodyMasterList.obj
 0001:0004c200       ?Append@?$dgList@VdgBodyMasterListRow@@@@QEAAPEAVdgListNode@1@XZ 000000018004d200 f i physics_2009:dgBodyMasterList.obj
 0001:0004c2b0       ?RemoveAll@?$dgList@VdgBodyMasterListRow@@@@QEAAXXZ 000000018004d2b0 f i physics_2009:dgBodyMasterList.obj
 0001:0004c3a0       ?AddBody@dgBodyMasterList@@QEAAXPEAVdgBody@@@Z 000000018004d3a0 f   physics_2009:dgBodyMasterList.obj
 0001:0004c3e0       ?Remove@?$dgList@VdgBodyMasterListRow@@@@QEAAXPEAVdgListNode@1@@Z 000000018004d3e0 f i physics_2009:dgBodyMasterList.obj
 0001:0004c450       ??0dgBodyMasterList@@QEAA@XZ 000000018004d450 f   physics_2009:dgBodyMasterList.obj
 0001:0004c470       ??1dgBodyMasterList@@QEAA@XZ 000000018004d470 f   physics_2009:dgBodyMasterList.obj
 0001:0004c480       ?RemoveBody@dgBodyMasterList@@QEAAXPEAVdgBody@@@Z 000000018004d480 f   physics_2009:dgBodyMasterList.obj
 0001:0004c510       ??0dgCollisionNull@@QEAA@I@Z 000000018004d510 f   physics_2009:dgCollisionNull.obj
 0001:0004c560       ??0dgCollisionNull@@QEAA@PEAVdgWorld@@P6AXPEAX1_K@Z1@Z 000000018004d560 f   physics_2009:dgCollisionNull.obj
 0001:0004c590       ?Serialize@dgCollisionNull@@EEBAXP6AXPEAXPEBX_K@Z0@Z 000000018004d590 f   physics_2009:dgCollisionNull.obj
 0001:0004c5a0       ?CalculateSignature@dgCollisionConvexHull@@EEBAHXZ 000000018004d5a0 f   physics_2009:dgCollisionConvexHull.obj
 0001:0004c5a0       ?CalculateSignature@dgCollisionNull@@EEBAHXZ 000000018004d5a0 f   physics_2009:dgCollisionNull.obj
 0001:0004c5b0       ?CalcAABBSimD@dgCollisionNull@@MEBAXAEBVdgMatrix@@AEAVdgVector@@1@Z 000000018004d5b0 f   physics_2009:dgCollisionNull.obj
 0001:0004c5b0       ?CalcAABBSimD@dgCollisionMesh@@EEBAXAEBVdgMatrix@@AEAVdgVector@@1@Z 000000018004d5b0 f   physics_2009:dgCollisionMesh.obj
 0001:0004c5b0       ?CalcAABBSimD@dgCollisionScene@@EEBAXAEBVdgMatrix@@AEAVdgVector@@1@Z 000000018004d5b0 f   physics_2009:dgCollisionScene.obj
 0001:0004c5c0       ?RayCast@dgCollisionNull@@MEBAMAEBVdgVector@@0AEAVdgContactPoint@@P6AIPEBVdgBody@@PEBVdgCollision@@PEAX@Z24@Z 000000018004d5c0 f   physics_2009:dgCollisionNull.obj
 0001:0004c5c0       ?RayCastSimd@dgCollisionNull@@MEBAMAEBVdgVector@@0AEAVdgContactPoint@@P6AIPEBVdgBody@@PEBVdgCollision@@PEAX@Z24@Z 000000018004d5c0 f   physics_2009:dgCollisionNull.obj
 0001:0004c5d0       ??_GdgCollisionNull@@UEAAPEAXI@Z 000000018004d5d0 f i physics_2009:dgCollisionNull.obj
 0001:0004c5d0       ??_EdgCollisionNull@@UEAAPEAXI@Z 000000018004d5d0 f i physics_2009:dgCollisionNull.obj
 0001:0004c610       ?CalcAABB@dgCollisionNull@@MEBAXAEBVdgMatrix@@AEAVdgVector@@1@Z 000000018004d610 f   physics_2009:dgCollisionNull.obj
 0001:0004c650       ?JointAccelerationsSimd@dgContact@@EEAAXAEBVdgJointAccelerationDecriptor@@@Z 000000018004d650 f   physics_2009:dgContact.obj
 0001:0004c8a0       ??0dgCollidingPairCollector@@QEAA@XZ 000000018004d8a0 f   physics_2009:dgContact.obj
 0001:0004c8c0       ?Init@dgCollidingPairCollector@@QEAAXPEAVdgWorld@@@Z 000000018004d8c0 f   physics_2009:dgContact.obj
 0001:0004c8f0       ?SetCaches@dgCollidingPairCollector@@QEAAXQEAUdgThreadPairCache@1@@Z 000000018004d8f0 f   physics_2009:dgContact.obj
 0001:0004c960       ?FlushChache@dgCollidingPairCollector@@QEAAXQEAUdgThreadPairCache@1@@Z 000000018004d960 f   physics_2009:dgContact.obj
 0001:0004ca80       ?GetInfo@dgContact@@EEBAXPEAVdgConstraintInfo@@@Z 000000018004da80 f   physics_2009:dgContact.obj
 0001:0004cae0       ?CalculatePointDerivative@dgContact@@AEBAXHAEAVdgContraintDescritor@@AEBVdgVector@@AEBVdgPointParam@dgConstraint@@@Z 000000018004dae0 f   physics_2009:dgContact.obj
 0001:0004cc40       ?Append@?$dgList@PEAVdgContact@@@@QEAAPEAVdgListNode@1@AEBQEAVdgContact@@@Z 000000018004dc40 f i physics_2009:dgContact.obj
 0001:0004cd00       ?JointAccelerations@dgContact@@EEAAXAEBVdgJointAccelerationDecriptor@@@Z 000000018004dd00 f   physics_2009:dgContact.obj
 0001:0004cf70       ?AddPair@dgCollidingPairCollector@@QEAAXPEAVdgBody@@0H@Z 000000018004df70 f   physics_2009:dgContact.obj
 0001:0004d2e0       ?RemoveAll@?$dgList@VdgContactMaterial@@@@QEAAXXZ 000000018004e2e0 f i physics_2009:dgContact.obj
 0001:0004d370       ??0dgContactMaterial@@QEAA@XZ 000000018004e370 f   physics_2009:dgContact.obj
 0001:0004d3d0       ?JacobianContactDerivative@dgContact@@AEAAXAEAVdgContraintDescritor@@AEBVdgContactMaterial@@HAEAH@Z 000000018004e3d0 f   physics_2009:dgContact.obj
 0001:0004d800       ??0dgContact@@AEAA@PEAVdgWorld@@@Z 000000018004e800 f   physics_2009:dgContact.obj
 0001:0004d8f0       ??1dgContact@@EEAA@XZ      000000018004e8f0 f i physics_2009:dgContact.obj
 0001:0004d9c0       ?JacobianDerivative@dgContact@@EEAAIAEAVdgContraintDescritor@@@Z 000000018004e9c0 f   physics_2009:dgContact.obj
 0001:0004da50       ??_GdgContact@@EEAAPEAXI@Z 000000018004ea50 f i physics_2009:dgContact.obj
 0001:0004da50       ??_EdgContact@@EEAAPEAXI@Z 000000018004ea50 f i physics_2009:dgContact.obj
 0001:0004da80       ??0dgCollisionConvexModifier@@QEAA@PEAVdgConvexCollision@@PEAVdgWorld@@@Z 000000018004ea80 f   physics_2009:dgCollisionConvexModifier.obj
 0001:0004dbd0       ?ModifierGetMatrix@dgCollisionConvexModifier@@UEBA?AVdgMatrix@@XZ 000000018004ebd0 f   physics_2009:dgCollisionConvexModifier.obj
 0001:0004dc30       ?GetBoxMinRadius@dgCollisionConvexModifier@@EEBAMXZ 000000018004ec30 f   physics_2009:dgCollisionConvexModifier.obj
 0001:0004dc40       ?GetBoxMaxRadius@dgCollisionConvexModifier@@EEBAMXZ 000000018004ec40 f   physics_2009:dgCollisionConvexModifier.obj
 0001:0004dc50       ?CalculatePlaneIntersectionSimd@dgCollisionConvexModifier@@EEBAHAEBVdgVector@@0QEAV2@@Z 000000018004ec50 f   physics_2009:dgCollisionConvexModifier.obj
 0001:0004dc60       ?DebugCollision@dgCollisionConvexModifier@@MEBAXAEBVdgMatrix@@P6AXPEAXHPEBMH@Z1@Z 000000018004ec60 f   physics_2009:dgCollisionConvexModifier.obj
 0001:0004dd70       ?GetVolume@dgCollisionConvexModifier@@MEBAMXZ 000000018004ed70 f   physics_2009:dgCollisionConvexModifier.obj
 0001:0004dda0       ?GetCollisionInfo@dgCollisionConvexModifier@@EEBAXPEAVdgCollisionInfo@@@Z 000000018004eda0 f   physics_2009:dgCollisionConvexModifier.obj
 0001:0004de10       ?Serialize@dgCollisionConvexModifier@@EEBAXP6AXPEAXPEBX_K@Z0@Z 000000018004ee10 f   physics_2009:dgCollisionConvexModifier.obj
 0001:0004de70       ??_EdgCollisionConvexModifier@@UEAAPEAXI@Z 000000018004ee70 f i physics_2009:dgCollisionConvexModifier.obj
 0001:0004de70       ??_GdgCollisionConvexModifier@@UEAAPEAXI@Z 000000018004ee70 f i physics_2009:dgCollisionConvexModifier.obj
 0001:0004ded0       ?ModifierSetMatrix@dgCollisionConvexModifier@@UEAAXAEBVdgMatrix@@@Z 000000018004eed0 f   physics_2009:dgCollisionConvexModifier.obj
 0001:0004e290       ??0dgCollisionConvexModifier@@QEAA@PEAVdgWorld@@P6AXPEAX1_K@Z1@Z 000000018004f290 f   physics_2009:dgCollisionConvexModifier.obj
 0001:0004e350       ?CalcAABB@dgCollisionConvexModifier@@MEBAXAEBVdgMatrix@@AEAVdgVector@@1@Z 000000018004f350 f   physics_2009:dgCollisionConvexModifier.obj
 0001:0004e6a0       ?CalcAABBSimD@dgCollisionConvexModifier@@MEBAXAEBVdgMatrix@@AEAVdgVector@@1@Z 000000018004f6a0 f   physics_2009:dgCollisionConvexModifier.obj
 0001:0004e930       ?SupportVertex@dgCollisionConvexModifier@@MEBA?AVdgVector@@AEBV2@@Z 000000018004f930 f   physics_2009:dgCollisionConvexModifier.obj
 0001:0004eb40       ?SupportVertexSimd@dgCollisionConvexModifier@@MEBA?AVdgVector@@AEBV2@@Z 000000018004fb40 f   physics_2009:dgCollisionConvexModifier.obj
 0001:0004ec90       ?CalculatePlaneIntersection@dgCollisionConvexModifier@@EEBAHAEBVdgVector@@0QEAV2@@Z 000000018004fc90 f   physics_2009:dgCollisionConvexModifier.obj
 0001:0004f2d0       ?RayCast@dgCollisionConvexModifier@@MEBAMAEBVdgVector@@0AEAVdgContactPoint@@P6AIPEBVdgBody@@PEBVdgCollision@@PEAX@Z24@Z 00000001800502d0 f   physics_2009:dgCollisionConvexModifier.obj
 0001:0004f660       ?RayCastSimd@dgCollisionConvexModifier@@MEBAMAEBVdgVector@@0AEAVdgContactPoint@@P6AIPEBVdgBody@@PEBVdgCollision@@PEAX@Z24@Z 0000000180050660 f   physics_2009:dgCollisionConvexModifier.obj
 0001:0004f880       ?CalculateVolumeIntegral@dgCollisionConvexModifier@@MEBA?AVdgVector@@AEBVdgMatrix@@P6AIPEAX10AEAVdgPlane@@@Z1@Z 0000000180050880 f   physics_2009:dgCollisionConvexModifier.obj
 0001:0004fde0       ??1dgCompoundCollision@@UEAA@XZ 0000000180050de0 f   physics_2009:dgCompoundCollision.obj
 0001:0004fe60       ?DebugCollision@dgCompoundCollision@@MEBAXAEBVdgMatrix@@P6AXPEAXHPEBMH@Z1@Z 0000000180050e60 f   physics_2009:dgCompoundCollision.obj
 0001:0004fed0       ?GetVolume@dgCompoundCollision@@MEBAMXZ 0000000180050ed0 f   physics_2009:dgCompoundCollision.obj
 0001:0004ff40       ?GetBoxMinRadius@dgCompoundCollision@@MEBAMXZ 0000000180050f40 f   physics_2009:dgCompoundCollision.obj
 0001:0004ff50       ?GetBoxMaxRadius@dgCompoundCollision@@MEBAMXZ 0000000180050f50 f   physics_2009:dgCompoundCollision.obj
 0001:0004ff60       ?GetCollisionInfo@dgCompoundCollision@@EEBAXPEAVdgCollisionInfo@@@Z 0000000180050f60 f   physics_2009:dgCompoundCollision.obj
 0001:0004ffe0       ?Serialize@dgCompoundCollision@@EEBAXP6AXPEAXPEBX_K@Z0@Z 0000000180050fe0 f   physics_2009:dgCompoundCollision.obj
 0001:00050090       ?OOBBTest@dgCompoundCollision@@MEBA_NAEBVdgMatrix@@QEBVdgConvexCollision@@PEAX@Z 0000000180051090 f   physics_2009:dgCompoundCollision.obj
 0001:00050090       ?OOBBTest@dgCollisionMesh@@EEBA_NAEBVdgMatrix@@QEBVdgConvexCollision@@PEAX@Z 0000000180051090 f   physics_2009:dgCollisionMesh.obj
 0001:00050090       ?IsBilateral@dgBilateralConstraint@@MEBA_NXZ 0000000180051090 f   physics_2009:dgBilateralConstraint.obj
 0001:00050090       ?OOBBTest@dgCollisionScene@@EEBA_NAEBVdgMatrix@@QEBVdgConvexCollision@@PEAX@Z 0000000180051090 f   physics_2009:dgCollisionScene.obj
 0001:00050090       ?OOBBTest@dgCollisionConvexModifier@@MEBA_NAEBVdgMatrix@@QEBVdgConvexCollision@@PEAX@Z 0000000180051090 f   physics_2009:dgCollisionConvexModifier.obj
 0001:00050090       ?OOBBTest@dgCollisionConvexPolygon@dgCollisionMesh@@UEBA_NAEBVdgMatrix@@QEBVdgConvexCollision@@PEAX@Z 0000000180051090 f   physics_2009:dgCollisionMesh.obj
 0001:000500a0       ??_GdgCompoundCollision@@UEAAPEAXI@Z 00000001800510a0 f i physics_2009:dgCompoundCollision.obj
 0001:000500a0       ??_EdgCompoundCollision@@UEAAPEAXI@Z 00000001800510a0 f i physics_2009:dgCompoundCollision.obj
 0001:000500d0       ?CalcAABB@dgCompoundCollision@@MEBAXAEBVdgMatrix@@AEAVdgVector@@1@Z 00000001800510d0 f   physics_2009:dgCompoundCollision.obj
 0001:00050360       ?Init@dgCompoundCollision@@IEAAXHQEBQEAVdgConvexCollision@@PEAVdgWorld@@@Z 0000000180051360 f   physics_2009:dgCompoundCollision.obj
 0001:000504a0       ?CalcAABBSimD@dgCompoundCollision@@MEBAXAEBVdgMatrix@@AEAVdgVector@@1@Z 00000001800514a0 f   physics_2009:dgCompoundCollision.obj
 0001:00050770       ?RayCastSimd@dgCompoundCollision@@MEBAMAEBVdgVector@@0AEAVdgContactPoint@@P6AIPEBVdgBody@@PEBVdgCollision@@PEAX@Z24@Z 0000000180051770 f   physics_2009:dgCompoundCollision.obj
 0001:00050a40       ?CalculateVolumeIntegral@dgCompoundCollision@@MEBA?AVdgVector@@AEBVdgMatrix@@P6AIPEAX10AEAVdgPlane@@@Z1@Z 0000000180051a40 f   physics_2009:dgCompoundCollision.obj
 0001:00050b60       ?CalculateInertia@dgCompoundCollision@@MEBAXAEAVdgVector@@0@Z 0000000180051b60 f   physics_2009:dgCompoundCollision.obj
 0001:00050d60       ?SupportVertex@dgCompoundCollision@@MEBA?AVdgVector@@AEBV2@@Z 0000000180051d60 f   physics_2009:dgCompoundCollision.obj
 0001:00050f80       ??0dgCompoundCollision@@QEAA@HQEBQEAVdgConvexCollision@@PEAVdgWorld@@@Z 0000000180051f80 f   physics_2009:dgCompoundCollision.obj
 0001:00050ff0       ??0dgCompoundCollision@@QEAA@PEAVdgWorld@@P6AXPEAX1_K@Z1@Z 0000000180051ff0 f   physics_2009:dgCompoundCollision.obj
 0001:000510f0       ?RayCast@dgCompoundCollision@@MEBAMAEBVdgVector@@0AEAVdgContactPoint@@P6AIPEBVdgBody@@PEBVdgCollision@@PEAX@Z24@Z 00000001800520f0 f   physics_2009:dgCompoundCollision.obj
 0001:00051430       ??0dgCollisionUserMesh@@QEAA@AEBVdgVector@@0AEBVdgUserMeshCreation@@@Z 0000000180052430 f   physics_2009:dgCollisionUserMesh.obj
 0001:000514e0       ?GetCollisionInfo@dgCollisionUserMesh@@EEBAXPEAVdgCollisionInfo@@@Z 00000001800524e0 f   physics_2009:dgCollisionUserMesh.obj
 0001:00051560       ?GetCollidingFacesSimd@dgCollisionHeightField@@EEBAXQEAVdgPolygonMeshDesc@@@Z 0000000180052560 f   physics_2009:dgCollisionHeightField.obj
 0001:00051560       ?GetCollidingFacesSimd@dgCollisionUserMesh@@EEBAXQEAVdgPolygonMeshDesc@@@Z 0000000180052560 f   physics_2009:dgCollisionUserMesh.obj
 0001:00051570       ?GetCollidingFaces@dgCollisionUserMesh@@EEBAXQEAVdgPolygonMeshDesc@@@Z 0000000180052570 f   physics_2009:dgCollisionUserMesh.obj
 0001:000515b0       ??_GdgCollisionUserMesh@@UEAAPEAXI@Z 00000001800525b0 f i physics_2009:dgCollisionUserMesh.obj
 0001:000515b0       ??_EdgCollisionUserMesh@@UEAAPEAXI@Z 00000001800525b0 f i physics_2009:dgCollisionUserMesh.obj
 0001:00051610       ?RayCast@dgCollisionUserMesh@@EEBAMAEBVdgVector@@0AEAVdgContactPoint@@P6AIPEBVdgBody@@PEBVdgCollision@@PEAX@Z24@Z 0000000180052610 f   physics_2009:dgCollisionUserMesh.obj
 0001:000517c0       ??1dgCollisionHeightField@@UEAA@XZ 00000001800527c0 f   physics_2009:dgCollisionHeightField.obj
 0001:00051840       ?Serialize@dgCollisionHeightField@@EEBAXP6AXPEAXPEBX_K@Z0@Z 0000000180052840 f   physics_2009:dgCollisionHeightField.obj
 0001:00051950       ?AllocateVertex@dgCollisionHeightField@@AEBAXPEAVdgWorld@@H@Z 0000000180052950 f   physics_2009:dgCollisionHeightField.obj
 0001:000519e0       ?GetCollisionInfo@dgCollisionHeightField@@EEBAXPEAVdgCollisionInfo@@@Z 00000001800529e0 f   physics_2009:dgCollisionHeightField.obj
 0001:00051a90       ??_EdgCollisionHeightField@@UEAAPEAXI@Z 0000000180052a90 f i physics_2009:dgCollisionHeightField.obj
 0001:00051a90       ??_GdgCollisionHeightField@@UEAAPEAXI@Z 0000000180052a90 f i physics_2009:dgCollisionHeightField.obj
 0001:00051ac0       ?CalculateMinExtend2d@dgCollisionHeightField@@AEBAXAEBVdgVector@@0AEAV2@1@Z 0000000180052ac0 f   physics_2009:dgCollisionHeightField.obj
 0001:00051c80       ?CalculateMinExtend3d@dgCollisionHeightField@@AEBAXAEBVdgVector@@0AEAV2@1@Z 0000000180052c80 f   physics_2009:dgCollisionHeightField.obj
 0001:00051e10       ?DebugCollision@dgCollisionHeightField@@EEBAXAEBVdgMatrix@@P6AXPEAXHPEBMH@Z1@Z 0000000180052e10 f   physics_2009:dgCollisionHeightField.obj
 0001:00052560       ??0dgCollisionHeightField@@QEAA@PEAVdgWorld@@HHHPEAGPEADMM@Z 0000000180053560 f   physics_2009:dgCollisionHeightField.obj
 0001:00052840       ??0dgCollisionHeightField@@QEAA@PEAVdgWorld@@P6AXPEAX1_K@Z1@Z 0000000180053840 f   physics_2009:dgCollisionHeightField.obj
 0001:00052a40       ?RayCastCellSimd@dgCollisionHeightField@@AEBAMAEBVFastRayTest@@HHAEAVdgVector@@@Z 0000000180053a40 f   physics_2009:dgCollisionHeightField.obj
 0001:00052fb0       ?RayCastCell@dgCollisionHeightField@@AEBAMAEBVFastRayTest@@HHAEAVdgVector@@@Z 0000000180053fb0 f   physics_2009:dgCollisionHeightField.obj
 0001:00053520       ?RayCastSimd@dgCollisionHeightField@@EEBAMAEBVdgVector@@0AEAVdgContactPoint@@P6AIPEBVdgBody@@PEBVdgCollision@@PEAX@Z24@Z 0000000180054520 f   physics_2009:dgCollisionHeightField.obj
 0001:000539f0       ?RayCast@dgCollisionHeightField@@EEBAMAEBVdgVector@@0AEAVdgContactPoint@@P6AIPEBVdgBody@@PEBVdgCollision@@PEAX@Z24@Z 00000001800549f0 f   physics_2009:dgCollisionHeightField.obj
 0001:00053df0       ?GetCollidingFaces@dgCollisionHeightField@@EEBAXQEAVdgPolygonMeshDesc@@@Z 0000000180054df0 f   physics_2009:dgCollisionHeightField.obj
 0001:00055770       ?CalcFacePlaneSimd@dgContactSolver@@AEAA_NPEAVdgMinkFace@1@@Z 0000000180056770 f i physics_2009:dgMinkowskiConv.obj
 0001:00055890       ?FilterPolygonEdgeContacts@dgWorld@@AEBAHHQEAVdgContactPoint@@@Z 0000000180056890 f   physics_2009:dgMinkowskiConv.obj
 0001:00055a30       ?Pop@?$dgUpHeap@PEAUdgPerimenterEdge@dgContactSolver@@M@@QEAAXXZ 0000000180056a30 f i physics_2009:dgMinkowskiConv.obj
 0001:00055b00       ?CheckTetraHedronVolume@dgContactSolver@@AEBA_NXZ 0000000180056b00 f i physics_2009:dgMinkowskiConv.obj
 0001:00055c20       ?CheckTetraHedronVolumeLarge@dgContactSolver@@AEBA_NXZ 0000000180056c20 f i physics_2009:dgMinkowskiConv.obj
 0001:00055d20       ?ReduceLine@dgContactSolver@@AEAA?AVdgVector@@AEBV2@@Z 0000000180056d20 f i physics_2009:dgMinkowskiConv.obj
 0001:00055ed0       ?ReduceLineLarge@dgContactSolver@@AEAA?AVdgBigVector@@AEBV2@@Z 0000000180056ed0 f i physics_2009:dgMinkowskiConv.obj
 0001:00056100       ?ReduceTriangle@dgContactSolver@@AEAA?AVdgVector@@AEBV2@@Z 0000000180057100 f i physics_2009:dgMinkowskiConv.obj
 0001:000567a0       ?ReduceTriangleLarge@dgContactSolver@@AEAA?AVdgBigVector@@AEBV2@@Z 00000001800577a0 f i physics_2009:dgMinkowskiConv.obj
 0001:00056e60       ?ReduceTetrahedrum@dgContactSolver@@AEAA?AVdgVector@@AEBV2@@Z 0000000180057e60 f i physics_2009:dgMinkowskiConv.obj
 0001:000572d0       ?ReduceTetrahedrumLarge@dgContactSolver@@AEAA?AVdgBigVector@@AEBV2@@Z 00000001800582d0 f i physics_2009:dgMinkowskiConv.obj
 0001:000577a0       ?CalcFacePlane@dgContactSolver@@AEAA_NQEAVdgMinkFace@1@@Z 00000001800587a0 f i physics_2009:dgMinkowskiConv.obj
 0001:00057970       ?CalcFacePlaneLarge@dgContactSolver@@AEAA_NQEAVdgMinkFace@1@@Z 0000000180058970 f i physics_2009:dgMinkowskiConv.obj
 0001:00057be0       ?CalculateVelocities@dgContactSolver@@QEAAXM@Z 0000000180058be0 f i physics_2009:dgMinkowskiConv.obj
 0001:00057d00       ?CalculateVelocitiesSimD@dgContactSolver@@QEAAXM@Z 0000000180058d00 f i physics_2009:dgMinkowskiConv.obj
 0001:00057e40       ?InitConvexCollision@dgWorld@@CAXXZ 0000000180058e40 f   physics_2009:dgMinkowskiConv.obj
 0001:000588d0       ?SphereSphereCollision@dgWorld@@AEBAHAEBVdgVector@@M0MAEAVdgCollisionParamProxi@@@Z 00000001800598d0 f   physics_2009:dgMinkowskiConv.obj
 0001:00058b80       ?CalculateSphereToSphereContacts@dgWorld@@AEBAHAEAVdgCollisionParamProxi@@@Z 0000000180059b80 f   physics_2009:dgMinkowskiConv.obj
 0001:00058bc0       ?CalculateCapsuleToSphereContacts@dgWorld@@AEBAHAEAVdgCollisionParamProxi@@@Z 0000000180059bc0 f   physics_2009:dgMinkowskiConv.obj
 0001:00058d90       ?CalculateCapsuleToCapsuleContacts@dgWorld@@AEBAHAEAVdgCollisionParamProxi@@@Z 0000000180059d90 f   physics_2009:dgMinkowskiConv.obj
 0001:00059ba0       ?CalculatePolySoupToSphereContactsDescrete@dgWorld@@AEBAHAEAVdgCollisionParamProxi@@@Z 000000018005aba0 f   physics_2009:dgMinkowskiConv.obj
 0001:0005a280       ?CalcSupportVertexSimd@dgContactSolver@@AEAAXAEBVdgVector@@H@Z 000000018005b280 f i physics_2009:dgMinkowskiConv.obj
 0001:0005a3c0       ?CalcSupportVertex@dgContactSolver@@AEAAXAEBVdgVector@@H@Z 000000018005b3c0 f i physics_2009:dgMinkowskiConv.obj
 0001:0005a5f0       ?CalcSupportVertexLarge@dgContactSolver@@AEAAXAEBVdgVector@@H@Z 000000018005b5f0 f i physics_2009:dgMinkowskiConv.obj
 0001:0005a890       ?CalculateConvexShapeIntersectionLine@dgContactSolver@@AEBAHAEBVdgMatrix@@AEBVdgVector@@IMHQEAV3@H2QEAVdgContactPoint@@@Z 000000018005b890 f i physics_2009:dgMinkowskiConv.obj
 0001:0005ae80       ?ReduceContacts@dgContactSolver@@AEBAPEAUdgPerimenterEdge@1@PEAU21@H@Z 000000018005be80 f i physics_2009:dgMinkowskiConv.obj
 0001:0005b180       ?CalculateConvexShapeIntersectionSimd@dgContactSolver@@AEBAHAEBVdgMatrix@@AEBVdgVector@@IMHQEAV3@H2QEAVdgContactPoint@@H@Z 000000018005c180 f i physics_2009:dgMinkowskiConv.obj
 0001:0005b800       ?CalculateConvexShapeIntersection@dgContactSolver@@AEBAHAEBVdgMatrix@@AEBVdgVector@@IMHQEAV3@H2QEAVdgContactPoint@@H@Z 000000018005c800 f i physics_2009:dgMinkowskiConv.obj
 0001:0005c100       ?UpdateSeparatingPlaneFallbackSolution@dgContactSolver@@AEAA?AW4dgMinkReturnCode@1@AEAPEAVdgMinkFace@1@AEBVdgVector@@@Z 000000018005d100 f i physics_2009:dgMinkowskiConv.obj
 0001:0005d670       ?UpdateSeparatingPlaneFallbackSolutionLarge@dgContactSolver@@AEAA?AW4dgMinkReturnCode@1@AEAPEAVdgMinkFace@1@AEBVdgBigVector@@@Z 000000018005e670 f i physics_2009:dgMinkowskiConv.obj
 0001:0005f010       ?UpdateSeparatingPlaneSimd@dgContactSolver@@AEAA?AW4dgMinkReturnCode@1@AEAPEAVdgMinkFace@1@AEBVdgVector@@@Z 0000000180060010 f i physics_2009:dgMinkowskiConv.obj
 0001:0005f8f0       ?UpdateSeparatingPlane@dgContactSolver@@AEAA?AW4dgMinkReturnCode@1@AEAPEAVdgMinkFace@1@AEBVdgVector@@@Z 00000001800608f0 f i physics_2009:dgMinkowskiConv.obj
 0001:00060160       ?UpdateSeparatingPlaneLarge@dgContactSolver@@AEAA?AW4dgMinkReturnCode@1@AEAPEAVdgMinkFace@1@AEBVdgBigVector@@@Z 0000000180061160 f i physics_2009:dgMinkowskiConv.obj
 0001:00060bf0       ?CalcSeparatingPlaneSimd@dgContactSolver@@AEAA?AW4dgMinkReturnCode@1@AEAPEAVdgMinkFace@1@AEBVdgVector@@@Z 0000000180061bf0 f i physics_2009:dgMinkowskiConv.obj
 0001:00061280       ?CalcSeparatingPlane@dgContactSolver@@AEAA?AW4dgMinkReturnCode@1@AEAPEAVdgMinkFace@1@AEBVdgVector@@@Z 0000000180062280 f i physics_2009:dgMinkowskiConv.obj
 0001:00061910       ?CalcSeparatingPlaneLarge@dgContactSolver@@AEAA?AW4dgMinkReturnCode@1@AEAPEAVdgMinkFace@1@AEBVdgBigVector@@@Z 0000000180062910 f i physics_2009:dgMinkowskiConv.obj
 0001:000620a0       ?CalculatePolySoupToSphereContactsContinue@dgWorld@@AEBAHAEAVdgCollisionParamProxi@@@Z 00000001800630a0 f   physics_2009:dgMinkowskiConv.obj
 0001:00062740       ?CalculateClosestPoints@dgContactSolver@@AEAAHXZ 0000000180063740 f i physics_2009:dgMinkowskiConv.obj
 0001:00063630       ?CalculateContactAlternateMethod@dgContactSolver@@AEAAHQEAVdgMinkFace@1@HQEAVdgContactPoint@@H@Z 0000000180064630 f i physics_2009:dgMinkowskiConv.obj
 0001:00064f40       ?CalculateContactsSimd@dgContactSolver@@AEAAHQEAVdgMinkFace@1@HQEAVdgContactPoint@@H@Z 0000000180065f40 f i physics_2009:dgMinkowskiConv.obj
 0001:00066210       ?CalculateContacts@dgContactSolver@@AEAAHQEAVdgMinkFace@1@HQEAVdgContactPoint@@H@Z 0000000180067210 f i physics_2009:dgMinkowskiConv.obj
 0001:00067c50       ?CalculateContactsContinuesSimd@dgContactSolver@@AEAAHHQEAVdgContactPoint@@HPEBVdgVector@@1M@Z 0000000180068c50 f i physics_2009:dgMinkowskiConv.obj
 0001:00067e70       ?CalculateContactsContinues@dgContactSolver@@AEAAHHQEAVdgContactPoint@@HPEBVdgVector@@1M@Z 0000000180068e70 f i physics_2009:dgMinkowskiConv.obj
 0001:00068280       ?CalculateClipPlaneSimd@dgContactSolver@@AEAAPEAVdgMinkFace@1@XZ 0000000180069280 f i physics_2009:dgMinkowskiConv.obj
 0001:00069060       ?CalculateClipPlane@dgContactSolver@@AEAAPEAVdgMinkFace@1@XZ 000000018006a060 f i physics_2009:dgMinkowskiConv.obj
 0001:00069e40       ?CalculateClipPlaneLarge@dgContactSolver@@AEAAPEAVdgMinkFace@1@XZ 000000018006ae40 f i physics_2009:dgMinkowskiConv.obj
 0001:0006ada0       ?HullHullContactsSimd@dgContactSolver@@QEAAHH@Z 000000018006bda0 f i physics_2009:dgMinkowskiConv.obj
 0001:0006b0d0       ?HullHullContacts@dgContactSolver@@QEAAHH@Z 000000018006c0d0 f i physics_2009:dgMinkowskiConv.obj
 0001:0006b530       ?HullHullContactsLarge@dgContactSolver@@QEAAHH@Z 000000018006c530 f i physics_2009:dgMinkowskiConv.obj
 0001:0006ba60       ?HullHullContinueContactsSimd@dgContactSolver@@QEAAHAEAMQEAVdgContactPoint@@HHH@Z 000000018006ca60 f i physics_2009:dgMinkowskiConv.obj
 0001:0006c430       ?HullHullContinueContacts@dgContactSolver@@QEAAHAEAMQEAVdgContactPoint@@HHH@Z 000000018006d430 f i physics_2009:dgMinkowskiConv.obj
 0001:0006ced0       ?ClosestPoint@dgWorld@@AEBAHAEAVdgCollisionParamProxi@@@Z 000000018006ded0 f   physics_2009:dgMinkowskiConv.obj
 0001:0006d180       ?CalculateHullToHullContactsSimd@dgWorld@@AEBAHAEAVdgCollisionParamProxi@@@Z 000000018006e180 f   physics_2009:dgMinkowskiConv.obj
 0001:0006d470       ?CalculateHullToHullContacts@dgWorld@@AEBAHAEAVdgCollisionParamProxi@@@Z 000000018006e470 f   physics_2009:dgMinkowskiConv.obj
 0001:0006d780       ?CalculatePolySoupToHullContactsDescreteSimd@dgWorld@@AEBAHAEAVdgCollisionParamProxi@@@Z 000000018006e780 f   physics_2009:dgMinkowskiConv.obj
 0001:0006daf0       ?CalculatePolySoupToHullContactsDescrete@dgWorld@@AEBAHAEAVdgCollisionParamProxi@@@Z 000000018006eaf0 f   physics_2009:dgMinkowskiConv.obj
 0001:0006de60       ?CalculateConvexToNonConvexContactsContinueSimd@dgWorld@@AEBAHAEAVdgCollisionParamProxi@@@Z 000000018006ee60 f   physics_2009:dgMinkowskiConv.obj
 0001:0006e370       ?CalculateConvexToNonConvexContactsContinue@dgWorld@@AEBAHAEAVdgCollisionParamProxi@@@Z 000000018006f370 f   physics_2009:dgMinkowskiConv.obj
 0001:0006e880       ?CalculateConvexToNonConvexContactsSimd@dgWorld@@AEBAHAEAVdgCollisionParamProxi@@@Z 000000018006f880 f   physics_2009:dgMinkowskiConv.obj
 0001:0006f270       ?CalculateConvexToNonConvexContacts@dgWorld@@AEBAHAEAVdgCollisionParamProxi@@@Z 0000000180070270 f   physics_2009:dgMinkowskiConv.obj
 0001:0006fcd0       ?CalculateBoxToSphereContacts@dgWorld@@AEBAHAEAVdgCollisionParamProxi@@@Z 0000000180070cd0 f   physics_2009:dgMinkowskiConv.obj
 0001:000716c0       ?CalculateConvexToConvexContactsSimd@dgWorld@@AEBAHAEAVdgCollisionParamProxi@@@Z 00000001800726c0 f   physics_2009:dgMinkowskiConv.obj
 0001:000721d0       ?CalculateConvexToConvexContacts@dgWorld@@AEBAHAEAVdgCollisionParamProxi@@@Z 00000001800731d0 f   physics_2009:dgMinkowskiConv.obj
 0001:00072ce0       ?CalculateSignature@dgCollisionBox@@MEBAHXZ 0000000180073ce0 f   physics_2009:dgCollisionBox.obj
 0001:00072da0       ?GetCollisionInfo@dgCollisionBox@@MEBAXPEAVdgCollisionInfo@@@Z 0000000180073da0 f   physics_2009:dgCollisionBox.obj
 0001:00072e40       ??_GdgCollisionBox@@UEAAPEAXI@Z 0000000180073e40 f i physics_2009:dgCollisionBox.obj
 0001:00072e40       ??_EdgCollisionBox@@UEAAPEAXI@Z 0000000180073e40 f i physics_2009:dgCollisionBox.obj
 0001:00072e90       ?CalcAABB@dgCollisionBox@@MEBAXAEBVdgMatrix@@AEAVdgVector@@1@Z 0000000180073e90 f   physics_2009:dgCollisionBox.obj
 0001:00073010       ?CalcAABBSimD@dgCollisionBox@@MEBAXAEBVdgMatrix@@AEAVdgVector@@1@Z 0000000180074010 f   physics_2009:dgCollisionBox.obj
 0001:00073070       ?CalculatePlaneIntersection@dgCollisionBox@@MEBAHAEBVdgVector@@0QEAV2@@Z 0000000180074070 f   physics_2009:dgCollisionBox.obj
 0001:00073430       ?CalculatePlaneIntersectionSimd@dgCollisionBox@@MEBAHAEBVdgVector@@0QEAV2@@Z 0000000180074430 f   physics_2009:dgCollisionBox.obj
 0001:00073790       ?Serialize@dgCollisionBox@@MEBAXP6AXPEAXPEBX_K@Z0@Z 0000000180074790 f   physics_2009:dgCollisionBox.obj
 0001:00073820       ?Init@dgCollisionBox@@IEAAXMMM@Z 0000000180074820 f   physics_2009:dgCollisionBox.obj
 0001:00073d60       ?SupportVertex@dgCollisionBox@@MEBA?AVdgVector@@AEBV2@@Z 0000000180074d60 f   physics_2009:dgCollisionBox.obj
 0001:00073d60       ?SupportVertexSimd@dgCollisionBox@@MEBA?AVdgVector@@AEBV2@@Z 0000000180074d60 f   physics_2009:dgCollisionBox.obj
 0001:00073dc0       ?RayCast@dgCollisionBox@@MEBAMAEBVdgVector@@0AEAVdgContactPoint@@P6AIPEBVdgBody@@PEBVdgCollision@@PEAX@Z24@Z 0000000180074dc0 f   physics_2009:dgCollisionBox.obj
 0001:00073fe0       ?CalculateMassProperties@dgCollisionBox@@MEBAMAEAVdgVector@@00@Z 0000000180074fe0 f   physics_2009:dgCollisionBox.obj
 0001:00074400       ??0dgCollisionBox@@QEAA@IMMMAEBVdgMatrix@@@Z 0000000180075400 f   physics_2009:dgCollisionBox.obj
 0001:00074460       ??0dgCollisionBox@@QEAA@PEAVdgWorld@@P6AXPEAX1_K@Z1@Z 0000000180075460 f   physics_2009:dgCollisionBox.obj
 0001:000744d0       ??1dgCollision@@MEAA@XZ    00000001800754d0 f   physics_2009:dgCollision.obj
 0001:000744e0       ?Quantize@dgCollision@@SAIM@Z 00000001800754e0 f   physics_2009:dgCollision.obj
 0001:000744f0       ?MakeCRC@dgCollision@@SAIPEAXH@Z 00000001800754f0 f   physics_2009:dgCollision.obj
 0001:00074500       ?GetCollisionInfo@dgCollision@@UEBAXPEAVdgCollisionInfo@@@Z 0000000180075500 f   physics_2009:dgCollision.obj
 0001:00074580       ?SerializeLow@dgCollision@@UEBAXP6AXPEAXPEBX_K@Z0@Z 0000000180075580 f   physics_2009:dgCollision.obj
 0001:000745f0       ??_EdgCollision@@MEAAPEAXI@Z 00000001800755f0 f i physics_2009:dgCollision.obj
 0001:000745f0       ??_GdgCollision@@MEAAPEAXI@Z 00000001800755f0 f i physics_2009:dgCollision.obj
 0001:00074620       ??0dgCollision@@IEAA@IAEBVdgMatrix@@W4dgCollisionID@@@Z 0000000180075620 f   physics_2009:dgCollision.obj
 0001:000746a0       ??0dgCollision@@IEAA@PEAVdgWorld@@P6AXPEAX1_K@Z1@Z 00000001800756a0 f   physics_2009:dgCollision.obj
 0001:00074720       ?CalculateSignature@dgCollisionEllipse@@EEBAHXZ 0000000180075720 f   physics_2009:dgCollisionEllipse.obj
 0001:000747e0       ?CalculateMassProperties@dgCollisionEllipse@@EEBAMAEAVdgVector@@00@Z 00000001800757e0 f   physics_2009:dgCollisionEllipse.obj
 0001:000747f0       ?GetCollisionInfo@dgCollisionEllipse@@EEBAXPEAVdgCollisionInfo@@@Z 00000001800757f0 f   physics_2009:dgCollisionEllipse.obj
 0001:00074880       ?Serialize@dgCollisionEllipse@@EEBAXP6AXPEAXPEBX_K@Z0@Z 0000000180075880 f   physics_2009:dgCollisionEllipse.obj
 0001:000748d0       ??_EdgCollisionEllipse@@UEAAPEAXI@Z 00000001800758d0 f i physics_2009:dgCollisionEllipse.obj
 0001:000748d0       ??_GdgCollisionEllipse@@UEAAPEAXI@Z 00000001800758d0 f i physics_2009:dgCollisionEllipse.obj
 0001:00074910       ?CalcAABB@dgCollisionEllipse@@MEBAXAEBVdgMatrix@@AEAVdgVector@@1@Z 0000000180075910 f   physics_2009:dgCollisionEllipse.obj
 0001:00074aa0       ??0dgCollisionEllipse@@QEAA@IMMMAEBVdgMatrix@@@Z 0000000180075aa0 f   physics_2009:dgCollisionEllipse.obj
 0001:00074b70       ??0dgCollisionEllipse@@QEAA@PEAVdgWorld@@P6AXPEAX1_K@Z1@Z 0000000180075b70 f   physics_2009:dgCollisionEllipse.obj
 0001:00074c20       ?SupportVertex@dgCollisionEllipse@@MEBA?AVdgVector@@AEBV2@@Z 0000000180075c20 f   physics_2009:dgCollisionEllipse.obj
 0001:00074d40       ?SupportVertexSimd@dgCollisionEllipse@@MEBA?AVdgVector@@AEBV2@@Z 0000000180075d40 f   physics_2009:dgCollisionEllipse.obj
 0001:00074e00       ?CalculatePlaneIntersection@dgCollisionEllipse@@EEBAHAEBVdgVector@@0QEAV2@@Z 0000000180075e00 f   physics_2009:dgCollisionEllipse.obj
 0001:00074e00       ?CalculatePlaneIntersectionSimd@dgCollisionEllipse@@EEBAHAEBVdgVector@@0QEAV2@@Z 0000000180075e00 f   physics_2009:dgCollisionEllipse.obj
 0001:00074f00       ?DebugCollision@dgCollisionEllipse@@MEBAXAEBVdgMatrix@@P6AXPEAXHPEBMH@Z1@Z 0000000180075f00 f   physics_2009:dgCollisionEllipse.obj
 0001:00075260       ?RayCast@dgCollisionEllipse@@MEBAMAEBVdgVector@@0AEAVdgContactPoint@@P6AIPEBVdgBody@@PEBVdgCollision@@PEAX@Z24@Z 0000000180076260 f   physics_2009:dgCollisionEllipse.obj
 0001:00075370       ?RayCastSimd@dgCollisionEllipse@@MEBAMAEBVdgVector@@0AEAVdgContactPoint@@P6AIPEBVdgBody@@PEBVdgCollision@@PEAX@Z24@Z 0000000180076370 f   physics_2009:dgCollisionEllipse.obj
 0001:00075480       ?CalculateSignature@dgCollisionCapsule@@EEBAHXZ 0000000180076480 f   physics_2009:dgCollisionCapsule.obj
 0001:00075500       ?RayCastSimd@dgCollisionCylinder@@EEBAMAEBVdgVector@@0AEAVdgContactPoint@@P6AIPEBVdgBody@@PEBVdgCollision@@PEAX@Z24@Z 0000000180076500 f   physics_2009:dgCollisionCylinder.obj
 0001:00075500       ?RayCastSimd@dgCollisionBox@@MEBAMAEBVdgVector@@0AEAVdgContactPoint@@P6AIPEBVdgBody@@PEBVdgCollision@@PEAX@Z24@Z 0000000180076500 f   physics_2009:dgCollisionBox.obj
 0001:00075500       ?RayCastSimd@dgConvexCollision@@UEBAMAEBVdgVector@@0AEAVdgContactPoint@@P6AIPEBVdgBody@@PEBVdgCollision@@PEAX@Z24@Z 0000000180076500 f   physics_2009:dgConvexCollision.obj
 0001:00075500       ?RayCastSimd@dgCollisionSphere@@MEBAMAEBVdgVector@@0AEAVdgContactPoint@@P6AIPEBVdgBody@@PEBVdgCollision@@PEAX@Z24@Z 0000000180076500 f   physics_2009:dgCollisionSphere.obj
 0001:00075500       ?RayCastSimd@dgCollisionCapsule@@EEBAMAEBVdgVector@@0AEAVdgContactPoint@@P6AIPEBVdgBody@@PEBVdgCollision@@PEAX@Z24@Z 0000000180076500 f   physics_2009:dgCollisionCapsule.obj
 0001:00075500       ?RayCastSimd@dgCollisionUserMesh@@EEBAMAEBVdgVector@@0AEAVdgContactPoint@@P6AIPEBVdgBody@@PEBVdgCollision@@PEAX@Z24@Z 0000000180076500 f   physics_2009:dgCollisionUserMesh.obj
 0001:00075540       ?GetCollisionInfo@dgCollisionCapsule@@EEBAXPEAVdgCollisionInfo@@@Z 0000000180076540 f   physics_2009:dgCollisionCapsule.obj
 0001:000755e0       ??_GdgCollisionCapsule@@UEAAPEAXI@Z 00000001800765e0 f i physics_2009:dgCollisionCapsule.obj
 0001:000755e0       ??_EdgCollisionCapsule@@UEAAPEAXI@Z 00000001800765e0 f i physics_2009:dgCollisionCapsule.obj
 0001:00075630       ?SupportVertexSimd@dgCollisionCapsule@@EEBA?AVdgVector@@AEBV2@@Z 0000000180076630 f   physics_2009:dgCollisionCapsule.obj
 0001:00075630       ?SupportVertex@dgCollisionCapsule@@EEBA?AVdgVector@@AEBV2@@Z 0000000180076630 f   physics_2009:dgCollisionCapsule.obj
 0001:000756c0       ?Serialize@dgCollisionCapsule@@EEBAXP6AXPEAXPEBX_K@Z0@Z 00000001800766c0 f   physics_2009:dgCollisionCapsule.obj
 0001:00075730       ?Init@dgCollisionCapsule@@AEAAXMM@Z 0000000180076730 f   physics_2009:dgCollisionCapsule.obj
 0001:00075d00       ?TesselateTriangle@dgCollisionCapsule@@AEBAXHMAEBVdgVector@@00AEAHPEAV2@@Z 0000000180076d00 f   physics_2009:dgCollisionCapsule.obj
 0001:00076270       ?DebugCollision@dgCollisionCapsule@@EEBAXAEBVdgMatrix@@P6AXPEAXHPEBMH@Z1@Z 0000000180077270 f   physics_2009:dgCollisionCapsule.obj
 0001:00076850       ?RayCast@dgCollisionCapsule@@EEBAMAEBVdgVector@@0AEAVdgContactPoint@@P6AIPEBVdgBody@@PEBVdgCollision@@PEAX@Z24@Z 0000000180077850 f   physics_2009:dgCollisionCapsule.obj
 0001:000772a0       ?CalculateMassProperties@dgCollisionCapsule@@EEBAMAEAVdgVector@@00@Z 00000001800782a0 f   physics_2009:dgCollisionCapsule.obj
 0001:000776f0       ?CalculatePlaneIntersection@dgCollisionCapsule@@EEBAHAEBVdgVector@@0QEAV2@@Z 00000001800786f0 f   physics_2009:dgCollisionCapsule.obj
 0001:00078120       ??0dgCollisionCapsule@@QEAA@IMMAEBVdgMatrix@@@Z 0000000180079120 f   physics_2009:dgCollisionCapsule.obj
 0001:00078180       ??0dgCollisionCapsule@@QEAA@PEAVdgWorld@@P6AXPEAX1_K@Z1@Z 0000000180079180 f   physics_2009:dgCollisionCapsule.obj
 0001:000781e0       ?CalculatePlaneIntersectionSimd@dgCollisionCapsule@@EEBAHAEBVdgVector@@0QEAV2@@Z 00000001800791e0 f   physics_2009:dgCollisionCapsule.obj
 0001:000781f0       ?CalculateSignature@dgCollisionCone@@EEBAHXZ 00000001800791f0 f   physics_2009:dgCollisionCone.obj
 0001:00078270       ?DebugCollision@dgCollisionCone@@EEBAXAEBVdgMatrix@@P6AXPEAXHPEBMH@Z1@Z 0000000180079270 f   physics_2009:dgCollisionCone.obj
 0001:000784a0       ?SetCollisionBBox@dgCompoundCollision@@EEAAXAEBVdgVector@@0@Z 00000001800794a0 f   physics_2009:dgCompoundCollision.obj
 0001:000784a0       ?JointVelocityCorrection@dgContact@@EEAAXAEBVdgJointAccelerationDecriptor@@@Z 00000001800794a0 f   physics_2009:dgContact.obj
 0001:000784a0       ?SpliteAcrossPlane@dgConvexCollision@@IEBAXAEBVdgPlane@@PEAPEAVdgCollisionConvexHull@@1@Z 00000001800794a0 f   physics_2009:dgConvexCollision.obj
 0001:000784a0       ?ForAllSectorsSimd@dgPolygonSoupDatabase@@MEBAXAEBVdgVector@@0P6A?AW4dgIntersectStatus@@PEAXQEBMHQEBHH@ZQEAX@Z 00000001800794a0 f   corelib_2009:dgAABBPolygonSoup.obj
 0001:000784a0       ?SetCollisionBBox@dgCollisionCylinder@@EEAAXAEBVdgVector@@0@Z 00000001800794a0 f   physics_2009:dgCollisionCylinder.obj
 0001:000784a0       ?SetCollisionBBox@dgCollisionEllipse@@EEAAXAEBVdgVector@@0@Z 00000001800794a0 f   physics_2009:dgCollisionEllipse.obj
 0001:000784a0       ?Serialize@dgCollisionConvexPolygon@dgCollisionMesh@@UEBAXP6AXPEAXPEBX_K@Z0@Z 00000001800794a0 f   physics_2009:dgCollisionMesh.obj
 0001:000784a0       ?SetUserData@dgCollision@@UEAAXPEAX@Z 00000001800794a0 f   physics_2009:dgCollision.obj
 0001:000784a0       ?SetCollisionBBox@dgCollisionConvexPolygon@dgCollisionMesh@@UEAAXAEBVdgVector@@0@Z 00000001800794a0 f   physics_2009:dgCollisionMesh.obj
 0001:000784a0       ?Init@dgBilateralConstraint@@MEAAXXZ 00000001800794a0 f   NewtonClass.obj
 0001:000784a0       ?DebugCollision@dgCollisionUserMesh@@EEBAXAEBVdgMatrix@@P6AXPEAXHPEBMH@Z1@Z 00000001800794a0 f   physics_2009:dgCollisionUserMesh.obj
 0001:000784a0       ?UpdateDynamicsCuda@dgWorldDynamicUpdate@@AEAAXPEAVdgWorld@@@Z 00000001800794a0 f   physics_2009:dgWorldDynamicUpdate.obj
 0001:000784a0       ?JointVelocityCorrection@dgBilateralConstraint@@MEAAXAEBVdgJointAccelerationDecriptor@@@Z 00000001800794a0 f   physics_2009:dgBilateralConstraint.obj
 0001:000784a0       ?SetCollisionBBox@dgCollisionChamferCylinder@@MEAAXAEBVdgVector@@0@Z 00000001800794a0 f   physics_2009:dgCollisionChamferCylinder.obj
 0001:000784a0       ?DebugCollision@dgCollisionNull@@MEBAXAEBVdgMatrix@@P6AXPEAXHPEBMH@Z1@Z 00000001800794a0 f   physics_2009:dgCollisionNull.obj
 0001:000784a0       ?SetCollisionBBox@dgCollisionNull@@EEAAXAEBVdgVector@@0@Z 00000001800794a0 f   physics_2009:dgCollisionNull.obj
 0001:000784a0       ?Remove@dgBilateralConstraint@@MEAAXPEAVdgWorld@@@Z 00000001800794a0 f   NewtonClass.obj
 0001:000784a0       ?SetStiffness@dgConstraint@@UEAAXM@Z 00000001800794a0 f   physics_2009:dgBilateralConstraint.obj
 0001:000784a0       ?GetCollisionInfo@dgCollisionMesh@@EEBAXPEAVdgCollisionInfo@@@Z 00000001800794a0 f   physics_2009:dgCollisionMesh.obj
 0001:000784a0       ?BeginFace@dgPolyhedra@@QEAAXXZ 00000001800794a0 f   corelib_2009:dgPolyhedra.obj
 0001:000784a0       ?ThreadExecute@dgSetTrreadRoundMode@dgWorld@@UEAAXXZ 00000001800794a0 f   physics_2009:dgWorld.obj
 0001:000784a0       ?SetCollisionBBox@dgCollisionSphere@@MEAAXAEBVdgVector@@0@Z 00000001800794a0 f   physics_2009:dgCollisionSphere.obj
 0001:000784a0       ??1dgCollidingPairCollector@@QEAA@XZ 00000001800794a0 f   physics_2009:dgContact.obj
 0001:000784a0       ??1dgBody@@QEAA@XZ         00000001800794a0 f   physics_2009:dgBody.obj
 0001:000784a0       ?Serialize@dgCollisionMesh@@EEBAXP6AXPEAXPEBX_K@Z0@Z 00000001800794a0 f   physics_2009:dgCollisionMesh.obj
 0001:000784a0       ?ForAllSectorsRayHitSimd@dgPolygonSoupDatabase@@MEBAXAEBVFastRayTest@@P6AMPEAXQEBMHQEBHH@ZQEAX@Z 00000001800794a0 f   corelib_2009:dgAABBPolygonSoup.obj
 0001:000784a0       ?SetDestructorCallback@dgContact@@EEAAXP6AXAEAVdgConstraint@@@Z@Z 00000001800794a0 f   physics_2009:dgContact.obj
 0001:000784a0       ?ForAllSectorsRayHit@dgPolygonSoupDatabase@@MEBAXAEBVFastRayTest@@P6AMPEAXQEBMHQEBHH@ZQEAX@Z 00000001800794a0 f   corelib_2009:dgAABBPolygonSoup.obj
 0001:000784a0       ?SetCollisionBBox@dgCollisionCone@@EEAAXAEBVdgVector@@0@Z 00000001800794a0 f   physics_2009:dgCollisionCone.obj
 0001:000784a0       ?SetCollisionBBox@dgCollisionConvexModifier@@EEAAXAEBVdgVector@@0@Z 00000001800794a0 f   physics_2009:dgCollisionConvexModifier.obj
 0001:000784a0       ?ModifierSetMatrix@dgCollision@@UEAAXAEBVdgMatrix@@@Z 00000001800794a0 f   physics_2009:dgWorld.obj
 0001:000784a0       ?SetCollisionBBox@dgCollisionCapsule@@EEAAXAEBVdgVector@@0@Z 00000001800794a0 f   physics_2009:dgCollisionCapsule.obj
 0001:000784a0       ?Serialize@dgCollisionUserMesh@@EEBAXP6AXPEAXPEBX_K@Z0@Z 00000001800794a0 f   physics_2009:dgCollisionUserMesh.obj
 0001:000784a0       ?SetCollisionBBox@dgCollisionConvexHull@@EEAAXAEBVdgVector@@0@Z 00000001800794a0 f   physics_2009:dgCollisionConvexHull.obj
 0001:000784a0       NewtonMaterialSetContactNormalDirection 00000001800794a0 f   Newton.obj
 0001:000784a0       ?SetCollisionBBox@dgCollisionBox@@MEAAXAEBVdgVector@@0@Z 00000001800794a0 f   physics_2009:dgCollisionBox.obj
 0001:000784a0       ?SetAsTriggerVolume@dgCollision@@UEAAX_N@Z 00000001800794a0 f   physics_2009:dgCollisionMesh.obj
 0001:000784a0       ?DebugCollision@dgCollisionMesh@@EEBAXAEBVdgMatrix@@P6AXPEAXHPEBMH@Z1@Z 00000001800794a0 f   physics_2009:dgCollisionMesh.obj
 0001:000784a0       ??3@YAXPEAX@Z              00000001800794a0 f   NewtonStdAfx.obj
 0001:000784a0       ?GetInfo@dgConstraint@@UEBAXPEAVdgConstraintInfo@@@Z 00000001800794a0 f   physics_2009:dgConstraint.obj
 0001:000784a0       ?ForAllSectors@dgPolygonSoupDatabase@@MEBAXAEBVdgVector@@0P6A?AW4dgIntersectStatus@@PEAXQEBMHQEBHH@ZQEAX@Z 00000001800794a0 f   corelib_2009:dgAABBPolygonSoup.obj
 0001:000784a0       ?GetAABB@dgPolygonSoupDatabase@@UEBAXAEAVdgVector@@0@Z 00000001800794a0 f   corelib_2009:dgAABBPolygonSoup.obj
 0001:000784b0       ?GetCollisionInfo@dgCollisionCone@@EEBAXPEAVdgCollisionInfo@@@Z 00000001800794b0 f   physics_2009:dgCollisionCone.obj
 0001:00078540       ??_GdgCollisionCone@@UEAAPEAXI@Z 0000000180079540 f i physics_2009:dgCollisionCone.obj
 0001:00078540       ??_EdgCollisionCone@@UEAAPEAXI@Z 0000000180079540 f i physics_2009:dgCollisionCone.obj
 0001:00078590       ?Init@dgCollisionCone@@AEAAXMM@Z 0000000180079590 f   physics_2009:dgCollisionCone.obj
 0001:00078930       ?SupportVertex@dgCollisionCone@@EEBA?AVdgVector@@AEBV2@@Z 0000000180079930 f   physics_2009:dgCollisionCone.obj
 0001:00078a10       ?CalculateMassProperties@dgCollisionCone@@EEBAMAEAVdgVector@@00@Z 0000000180079a10 f   physics_2009:dgCollisionCone.obj
 0001:00078e80       ?CalculatePlaneIntersection@dgCollisionCylinder@@EEBAHAEBVdgVector@@0QEAV2@@Z 0000000180079e80 f   physics_2009:dgCollisionCylinder.obj
 0001:00078e80       ?CalculatePlaneIntersection@dgCollisionCone@@EEBAHAEBVdgVector@@0QEAV2@@Z 0000000180079e80 f   physics_2009:dgCollisionCone.obj
 0001:00079130       ?Serialize@dgCollisionCone@@EEBAXP6AXPEAXPEBX_K@Z0@Z 000000018007a130 f   physics_2009:dgCollisionCone.obj
 0001:000791a0       ??0dgCollisionCone@@QEAA@IMMAEBVdgMatrix@@@Z 000000018007a1a0 f   physics_2009:dgCollisionCone.obj
 0001:00079200       ??0dgCollisionCone@@QEAA@PEAVdgWorld@@P6AXPEAX1_K@Z1@Z 000000018007a200 f   physics_2009:dgCollisionCone.obj
 0001:00079260       ?CalculateSignature@dgCollisionCylinder@@EEBAHXZ 000000018007a260 f   physics_2009:dgCollisionCylinder.obj
 0001:000792e0       ?DebugCollision@dgCollisionCylinder@@EEBAXAEBVdgMatrix@@P6AXPEAXHPEBMH@Z1@Z 000000018007a2e0 f   physics_2009:dgCollisionCylinder.obj
 0001:00079570       ?GetCollisionInfo@dgCollisionCylinder@@EEBAXPEAVdgCollisionInfo@@@Z 000000018007a570 f   physics_2009:dgCollisionCylinder.obj
 0001:00079600       ??_EdgCollisionCylinder@@UEAAPEAXI@Z 000000018007a600 f i physics_2009:dgCollisionCylinder.obj
 0001:00079600       ??_GdgCollisionCylinder@@UEAAPEAXI@Z 000000018007a600 f i physics_2009:dgCollisionCylinder.obj
 0001:00079650       ?Init@dgCollisionCylinder@@AEAAXMM@Z 000000018007a650 f   physics_2009:dgCollisionCylinder.obj
 0001:00079a10       ?SupportVertex@dgCollisionCylinder@@EEBA?AVdgVector@@AEBV2@@Z 000000018007aa10 f   physics_2009:dgCollisionCylinder.obj
 0001:00079ac0       ?CalculateMassProperties@dgCollisionCylinder@@EEBAMAEAVdgVector@@00@Z 000000018007aac0 f   physics_2009:dgCollisionCylinder.obj
 0001:00079ed0       ?CalculatePlaneIntersectionSimd@dgCollisionCylinder@@EEBAHAEBVdgVector@@0QEAV2@@Z 000000018007aed0 f   physics_2009:dgCollisionCylinder.obj
 0001:00079ed0       ?CalculatePlaneIntersectionSimd@dgCollisionCone@@EEBAHAEBVdgVector@@0QEAV2@@Z 000000018007aed0 f   physics_2009:dgCollisionCone.obj
 0001:0007a170       ?RayCast@dgCollisionCylinder@@EEBAMAEBVdgVector@@0AEAVdgContactPoint@@P6AIPEBVdgBody@@PEBVdgCollision@@PEAX@Z24@Z 000000018007b170 f   physics_2009:dgCollisionCylinder.obj
 0001:0007a6b0       ?Serialize@dgCollisionCylinder@@EEBAXP6AXPEAXPEBX_K@Z0@Z 000000018007b6b0 f   physics_2009:dgCollisionCylinder.obj
 0001:0007a730       ??0dgCollisionCylinder@@QEAA@IMMAEBVdgMatrix@@@Z 000000018007b730 f   physics_2009:dgCollisionCylinder.obj
 0001:0007a790       ??0dgCollisionCylinder@@QEAA@PEAVdgWorld@@P6AXPEAX1_K@Z1@Z 000000018007b790 f   physics_2009:dgCollisionCylinder.obj
 0001:0007a7f0       ?CalculateSignature@dgCollisionChamferCylinder@@MEBAHXZ 000000018007b7f0 f   physics_2009:dgCollisionChamferCylinder.obj
 0001:0007a870       ?SupportVertexSimd@dgCollisionCone@@EEBA?AVdgVector@@AEBV2@@Z 000000018007b870 f   physics_2009:dgCollisionCone.obj
 0001:0007a870       ?SupportVertexSimd@dgCollisionChamferCylinder@@MEBA?AVdgVector@@AEBV2@@Z 000000018007b870 f   physics_2009:dgCollisionChamferCylinder.obj
 0001:0007a870       ?SupportVertexSimd@dgCollisionCylinder@@EEBA?AVdgVector@@AEBV2@@Z 000000018007b870 f   physics_2009:dgCollisionCylinder.obj
 0001:0007a890       ?GetCollisionInfo@dgCollisionChamferCylinder@@MEBAXPEAVdgCollisionInfo@@@Z 000000018007b890 f   physics_2009:dgCollisionChamferCylinder.obj
 0001:0007a920       ??_GdgCollisionChamferCylinder@@UEAAPEAXI@Z 000000018007b920 f i physics_2009:dgCollisionChamferCylinder.obj
 0001:0007a920       ??_EdgCollisionChamferCylinder@@UEAAPEAXI@Z 000000018007b920 f i physics_2009:dgCollisionChamferCylinder.obj
 0001:0007a970       ?Init@dgCollisionChamferCylinder@@IEAAXMM@Z 000000018007b970 f   physics_2009:dgCollisionChamferCylinder.obj
 0001:0007aff0       ?DebugCollision@dgCollisionChamferCylinder@@MEBAXAEBVdgMatrix@@P6AXPEAXHPEBMH@Z1@Z 000000018007bff0 f   physics_2009:dgCollisionChamferCylinder.obj
 0001:0007b800       ?SupportVertex@dgCollisionChamferCylinder@@MEBA?AVdgVector@@AEBV2@@Z 000000018007c800 f   physics_2009:dgCollisionChamferCylinder.obj
 0001:0007b970       ?RayCast@dgCollisionChamferCylinder@@MEBAMAEBVdgVector@@0AEAVdgContactPoint@@P6AIPEBVdgBody@@PEBVdgCollision@@PEAX@Z24@Z 000000018007c970 f   physics_2009:dgCollisionChamferCylinder.obj
 0001:0007bb40       ?RayCastSimd@dgCollisionChamferCylinder@@MEBAMAEBVdgVector@@0AEAVdgContactPoint@@P6AIPEBVdgBody@@PEBVdgCollision@@PEAX@Z24@Z 000000018007cb40 f   physics_2009:dgCollisionChamferCylinder.obj
 0001:0007bd10       ?CalculatePlaneIntersection@dgCollisionChamferCylinder@@MEBAHAEBVdgVector@@0QEAV2@@Z 000000018007cd10 f   physics_2009:dgCollisionChamferCylinder.obj
 0001:0007c6b0       ?Serialize@dgCollisionChamferCylinder@@MEBAXP6AXPEAXPEBX_K@Z0@Z 000000018007d6b0 f   physics_2009:dgCollisionChamferCylinder.obj
 0001:0007c720       ??0dgCollisionChamferCylinder@@QEAA@IMMAEBVdgMatrix@@@Z 000000018007d720 f   physics_2009:dgCollisionChamferCylinder.obj
 0001:0007c780       ??0dgCollisionChamferCylinder@@QEAA@PEAVdgWorld@@P6AXPEAX1_K@Z1@Z 000000018007d780 f   physics_2009:dgCollisionChamferCylinder.obj
 0001:0007c7e0       ?CalculatePlaneIntersectionSimd@dgCollisionChamferCylinder@@MEBAHAEBVdgVector@@0QEAV2@@Z 000000018007d7e0 f   physics_2009:dgCollisionChamferCylinder.obj
 0001:0007c7f0       ?Malloc@dgMemoryAllocator@@QEAAPEAXH@Z 000000018007d7f0 f i corelib_2009:dgMemory.obj
 0001:0007c970       ?Free@dgMemoryAllocator@@QEAAXPEAX@Z 000000018007d970 f i corelib_2009:dgMemory.obj
 0001:0007caa0       ?__malloc__@dgMemoryAllocator@@CAPEAXI@Z 000000018007daa0 f i corelib_2009:dgMemory.obj
 0001:0007cab0       ?DefaultFreeMemory@Newton@@SAXPEAXH@Z 000000018007dab0 f i NewtonClass.obj
 0001:0007cab0       ?__free__@dgMemoryAllocator@@CAXPEAXI@Z 000000018007dab0 f i corelib_2009:dgMemory.obj
 0001:0007cac0       ?dgSetMemoryDrivers@@YAXP6APEAXI@ZP6AXPEAXI@Z@Z 000000018007dac0 f   corelib_2009:dgMemory.obj
 0001:0007cad0       ?dgGetMemoryUsed@@YAHXZ    000000018007dad0 f   corelib_2009:dgMemory.obj
 0001:0007cae0       ?dgMallocStack@@YAPEAX_K@Z 000000018007dae0 f   corelib_2009:dgMemory.obj
 0001:0007cb20       ?dgFreeStack@@YAXPEAX@Z    000000018007db20 f   corelib_2009:dgMemory.obj
 0001:0007cb50       ?dgMalloc@@YAPEAX_K@Z      000000018007db50 f   corelib_2009:dgMemory.obj
 0001:0007cb70       ?dgFree@@YAXPEAX@Z         000000018007db70 f   corelib_2009:dgMemory.obj
 0001:0007cb90       ?dgCRC@@YAIPEBXHI@Z        000000018007db90 f   corelib_2009:dgCRC.obj
 0001:0007cbf0       ?TransformTriplex@dgMatrix@@QEBAXQEAXHQEBXHH@Z 000000018007dbf0 f   corelib_2009:dgMatrix.obj
 0001:0007cf50       ?dgGetIdentityMatrix@@YAAEBVdgMatrix@@XZ 000000018007df50 f   corelib_2009:dgMatrix.obj
 0001:0007d020       ??0dgMatrix@@QEAA@AEBVdgQuaternion@@AEBVdgVector@@@Z 000000018007e020 f   corelib_2009:dgMatrix.obj
 0001:0007d1f0       ??DdgMatrix@@QEBA?AV0@AEBV0@@Z 000000018007e1f0 f   corelib_2009:dgMatrix.obj
 0001:0007d6b0       ?Symetric3by3Inverse@dgMatrix@@QEBA?AV1@XZ 000000018007e6b0 f   corelib_2009:dgMatrix.obj
 0001:0007d970       ?CalcPitchYawRoll@dgMatrix@@QEBA?AVdgVector@@XZ 000000018007e970 f   corelib_2009:dgMatrix.obj
 0001:0007da80       ?Minimum@dgRedBackNode@@QEBAPEAV1@XZ 000000018007ea80 f   corelib_2009:dgTree.obj
 0001:0007daa0       ?Next@dgRedBackNode@@QEBAPEAV1@XZ 000000018007eaa0 f   corelib_2009:dgTree.obj
 0001:0007dae0       ?InsertFixup@dgRedBackNode@@QEAAXPEAPEAV1@@Z 000000018007eae0 f   corelib_2009:dgTree.obj
 0001:0007dcf0       ?RemoveFixup@dgRedBackNode@@QEAAXPEAV1@PEAPEAV1@@Z 000000018007ecf0 f   corelib_2009:dgTree.obj
 0001:0007e030       ?Unlink@dgRedBackNode@@QEAAXPEAPEAV1@@Z 000000018007f030 f   corelib_2009:dgTree.obj
 0001:0007e160       ?RemoveAllLow@dgRedBackNode@@QEAAXXZ 000000018007f160 f   corelib_2009:dgTree.obj
 0001:0007e1a0       ?RemoveAll@dgRedBackNode@@QEAAXXZ 000000018007f1a0 f   corelib_2009:dgTree.obj
 0001:0007e1f0       ?Remove@dgRedBackNode@@QEAAXPEAPEAV1@@Z 000000018007f1f0 f   corelib_2009:dgTree.obj
 0001:0007e220       ??0dgThreads@@QEAA@XZ      000000018007f220 f   corelib_2009:dgThreads.obj
 0001:0007e320       ?GetThreadCount@dgThreads@@QEBAHXZ 000000018007f320 f   corelib_2009:dgThreads.obj
 0001:0007e330       ?DoWork@dgThreads@@AEAAXH@Z 000000018007f330 f   corelib_2009:dgThreads.obj
 0001:0007e400       ?CalculateChunkSizes@dgThreads@@QEBAXHQEAH@Z 000000018007f400 f   corelib_2009:dgThreads.obj
 0001:0007e460       ?SubmitJob@dgThreads@@QEAAHPEAVdgWorkerThread@@@Z 000000018007f460 f   corelib_2009:dgThreads.obj
 0001:0007e520       ?SynchronizationBarrier@dgThreads@@QEAAXXZ 000000018007f520 f   corelib_2009:dgThreads.obj
 0001:0007e550       ?DestroydgThreads@dgThreads@@QEAAXXZ 000000018007f550 f   corelib_2009:dgThreads.obj
 0001:0007e690       ?dgGetLock@dgThreads@@QEAAXXZ 000000018007f690 f   corelib_2009:dgThreads.obj
 0001:0007e6d0       ?dgGetIndirectLock@dgThreads@@QEAAXPEAH@Z 000000018007f6d0 f   corelib_2009:dgThreads.obj
 0001:0007e700       ?dgReleaseLock@dgThreads@@QEAAXXZ 000000018007f700 f   corelib_2009:dgThreads.obj
 0001:0007e710       ?dgReleaseIndirectLock@dgThreads@@QEAAXPEAH@Z 000000018007f710 f   corelib_2009:dgThreads.obj
 0001:0007e720       ??1dgThreads@@QEAA@XZ      000000018007f720 f   corelib_2009:dgThreads.obj
 0001:0007e740       ?ThreadExecute@dgThreads@@CAIPEAX@Z 000000018007f740 f   corelib_2009:dgThreads.obj
 0001:0007e760       ?CreateThreaded@dgThreads@@QEAAXH@Z 000000018007f760 f   corelib_2009:dgThreads.obj
 0001:0007e870       ?Pop@?$dgDownHeap@PEAVdgEdge@@M@@QEAAXXZ 000000018007f870 f i corelib_2009:dgPolyhedra.obj
 0001:0007f710       ?DeleteEdge@dgPolyhedra@@QEAAXPEAVdgEdge@@@Z 0000000180080710 f   corelib_2009:dgPolyhedra.obj
 0001:0007f7a0       ?FaceNormal@dgPolyhedra@@QEBA?AVdgVector@@PEAVdgEdge@@QEBMH@Z 00000001800807a0 f   corelib_2009:dgPolyhedra.obj
 0001:0007f800       ?Addtop@?$dgList@UEDGE_HANDLE@InternalPolyhedra@@@@QEAAPEAVdgListNode@1@AEBUEDGE_HANDLE@InternalPolyhedra@@@Z 0000000180080800 f i corelib_2009:dgPolyhedra.obj
 0001:0007f900       ?Insert@?$dgTree@VdgEdge@@_J@@QEAAPEAVdgTreeNode@1@PEAV21@_J@Z 0000000180080900 f i corelib_2009:dgPolyhedra.obj
 0001:00080540       ??0dgPolyhedra@@QEAA@XZ    0000000180081540 f   corelib_2009:dgPolyhedra.obj
 0001:00080560       ??1dgPolyhedra@@UEAA@XZ    0000000180081560 f   corelib_2009:dgPolyhedra.obj
 0001:000805a0       ?DeleteFace@dgPolyhedra@@QEAAXPEAVdgEdge@@@Z 00000001800815a0 f   corelib_2009:dgPolyhedra.obj
 0001:00080630       ?DeleteDegenerateFaces@dgPolyhedra@@QEAAXQEBMHM@Z 0000000180081630 f   corelib_2009:dgPolyhedra.obj
 0001:000807c0       ?SwapInfo@dgPolyhedra@@QEAAXAEAV1@@Z 00000001800817c0 f   corelib_2009:dgPolyhedra.obj
 0001:00080f70       ?Update@dgPolyhedraDescriptor@@QEAAXAEBVdgPolyhedra@@@Z 0000000180081f70 f   corelib_2009:dgPolyhedra.obj
 0001:000811b0       ??_EdgPolyhedra@@UEAAPEAXI@Z 00000001800821b0 f i corelib_2009:dgPolyhedra.obj
 0001:000811b0       ??_GdgPolyhedra@@UEAAPEAXI@Z 00000001800821b0 f i corelib_2009:dgPolyhedra.obj
 0001:00081210       ?CollapseEdge@dgPolyhedra@@AEAAPEAVdgEdge@@PEAV2@@Z 0000000180082210 f   corelib_2009:dgPolyhedra.obj
 0001:00081610       ?Insert@?$dgTree@VdgEdge@@_J@@QEAAPEAVdgTreeNode@1@AEBVdgEdge@@_JAEA_N@Z 0000000180082610 f i corelib_2009:dgPolyhedra.obj
 0001:000819b0       ?EndFace@dgPolyhedra@@QEAAXXZ 00000001800829b0 f   corelib_2009:dgPolyhedra.obj
 0001:000819d0       ?AddFace@dgPolyhedra@@QEAAPEAVdgEdge@@HQEBHQEB_J@Z 00000001800829d0 f   corelib_2009:dgPolyhedra.obj
 0001:00081e20       ?Optimize@dgPolyhedra@@QEAAXQEBMHM@Z 0000000180082e20 f   corelib_2009:dgPolyhedra.obj
 0001:00082cc0       ??0dgPolyhedra@@QEAA@AEBV0@@Z 0000000180083cc0 f   corelib_2009:dgPolyhedra.obj
 0001:00082e70       ?AddFace@dgPolyhedra@@QEAAPEAVdgEdge@@HQEBH@Z 0000000180083e70 f   corelib_2009:dgPolyhedra.obj
 0001:00082ed0       ?AddFace@dgPolyhedra@@QEAAPEAVdgEdge@@HHH@Z 0000000180083ed0 f   corelib_2009:dgPolyhedra.obj
 0001:00082f10       ?AddHalfEdge@dgPolyhedra@@QEAAPEAVdgEdge@@HH@Z 0000000180083f10 f   corelib_2009:dgPolyhedra.obj
 0001:00082f80       ?SpliteEdge@dgPolyhedra@@QEAAXHPEAVdgEdge@@@Z 0000000180083f80 f   corelib_2009:dgPolyhedra.obj
 0001:000831e0       ?SpliteEdgeAndTriangulate@dgPolyhedra@@QEAAXHPEAVdgEdge@@@Z 00000001800841e0 f   corelib_2009:dgPolyhedra.obj
 0001:00083530       ?GetConectedSurface@dgPolyhedra@@QEBA_NAEAV1@@Z 0000000180084530 f   corelib_2009:dgPolyhedra.obj
 0001:00085030       ?TriangulateFace@dgPolyhedra@@QEAA_NPEAVdgEdge@@QEBMHAEAVdgVector@@@Z 0000000180086030 f   corelib_2009:dgPolyhedra.obj
 0001:000850b0       ?Triangulate@dgPolyhedra@@QEAAXQEBMHPEAV1@@Z 00000001800860b0 f   corelib_2009:dgPolyhedra.obj
 0001:00085310       ?ConvexPartition@dgPolyhedra@@QEAAXQEBMHPEAV1@@Z 0000000180086310 f   corelib_2009:dgPolyhedra.obj
 0001:000853a0       ??0dgStackBase@@IEAA@H@Z   00000001800863a0 f   corelib_2009:dgStack.obj
 0001:000853c0       ??1dgStackBase@@IEAA@XZ    00000001800863c0 f   corelib_2009:dgStack.obj
 0001:000853e0       ?dgGetCpuType@@YA?AW4dgCpuClass@@XZ 00000001800863e0 f   corelib_2009:dgTypes.obj
 0001:00085410       ?GetMinMax@@YAXAEAVdgVector@@0QEBMHH@Z 0000000180086410 f   corelib_2009:dgTypes.obj
 0001:000868a0       ?dgVertexListToIndexList@@YAHQEAMHHHHQEAHM@Z 00000001800878a0 f   corelib_2009:dgTypes.obj
 0001:00086aa0       ?ForAllSectorsSimd@dgAABBTree@@QEBAXQEBHQEBMAEBVdgVector@@2P6A?AW4dgIntersectStatus@@PEAX1H0H@Z3@Z 0000000180087aa0 f i corelib_2009:dgAABBPolygonSoup.obj
 0001:00086d60       ?ForAllSectors@dgAABBTree@@QEBAXQEBHQEBMAEBVdgVector@@2P6A?AW4dgIntersectStatus@@PEAX1H0H@Z3@Z 0000000180087d60 f i corelib_2009:dgAABBPolygonSoup.obj
 0001:00087130       ?SortBoxes@dgAABBTree@@AEBAXQEAV1@HHQEBVdgTriplex@@@Z 0000000180088130 f i corelib_2009:dgAABBPolygonSoup.obj
 0001:00087400       ??0dgAABBPolygonSoup@@IEAA@XZ 0000000180088400 f   corelib_2009:dgAABBPolygonSoup.obj
 0001:00087430       ??1dgAABBPolygonSoup@@MEAA@XZ 0000000180088430 f   corelib_2009:dgAABBPolygonSoup.obj
 0001:00087480       ?ForAllSectorsSimd@dgAABBPolygonSoup@@MEBAXAEBVdgVector@@0P6A?AW4dgIntersectStatus@@PEAXQEBMHQEBHH@ZQEAX@Z 0000000180088480 f   corelib_2009:dgAABBPolygonSoup.obj
 0001:000874c0       ?ForAllSectors@dgAABBPolygonSoup@@MEBAXAEBVdgVector@@0P6A?AW4dgIntersectStatus@@PEAXQEBMHQEBHH@ZQEAX@Z 00000001800884c0 f   corelib_2009:dgAABBPolygonSoup.obj
 0001:00087500       ?Serialize@dgAABBPolygonSoup@@UEBAXP6AXPEAXPEBX_K@Z0@Z 0000000180088500 f   corelib_2009:dgAABBPolygonSoup.obj
 0001:000875d0       ?Deserialize@dgAABBPolygonSoup@@UEAAXP6AXPEAX0_K@Z0@Z 00000001800885d0 f   corelib_2009:dgAABBPolygonSoup.obj
 0001:000876e0       ?Resize@?$dgArray@VdgTriplex@@@@QEBAXH@Z 00000001800886e0 f i corelib_2009:dgAABBPolygonSoup.obj
 0001:00087800       ?Resize@?$dgArray@H@@QEBAXH@Z 0000000180088800 f i corelib_2009:dgAABBPolygonSoup.obj
 0001:000878f0       ??_EdgPolygonSoupDatabase@@MEAAPEAXI@Z 00000001800888f0 f i corelib_2009:dgAABBPolygonSoup.obj
 0001:000878f0       ??_GdgPolygonSoupDatabase@@MEAAPEAXI@Z 00000001800888f0 f i corelib_2009:dgAABBPolygonSoup.obj
 0001:00087940       ?CalcExtends@dgAABBTree@@QEAAXQEAVdgTriplex@@HQEBH@Z 0000000180088940 f i corelib_2009:dgAABBPolygonSoup.obj
 0001:00087c70       ?ForAllSectorsRayHitSimd@dgAABBTree@@QEBAXAEBVFastRayTest@@PEBHPEBMP6AMPEAXQEBMHQEBHH@ZQEAX@Z 0000000180088c70 f i corelib_2009:dgAABBPolygonSoup.obj
 0001:00088030       ?ForAllSectorsRayHit@dgAABBTree@@QEBAXAEBVFastRayTest@@PEBHPEBMP6AMPEAXQEBMHQEBHH@ZQEAX@Z 0000000180089030 f i corelib_2009:dgAABBPolygonSoup.obj
 0001:00088420       ?ForAllSectorsSupportVertex@dgAABBTree@@QEBA?AVdgVector@@AEBV2@QEBHQEBM@Z 0000000180089420 f i corelib_2009:dgAABBPolygonSoup.obj
 0001:00088a60       ?CalcBoxFromBoxArray@dgAABBTree@@AEAAXQEBV1@HPEAVdgTriplex@@AEAH@Z 0000000180089a60 f i corelib_2009:dgAABBPolygonSoup.obj
 0001:00088df0       ?GetAxis@dgAABBTree@@AEBAHQEBV1@HQEBVdgTriplex@@@Z 0000000180089df0 f i corelib_2009:dgAABBPolygonSoup.obj
 0001:000891e0       ?SpliteBoxArray@dgAABBTree@@AEBAHQEAV1@HQEBVdgTriplex@@@Z 000000018008a1e0 f i corelib_2009:dgAABBPolygonSoup.obj
 0001:000895e0       ??_EdgAABBPolygonSoup@@MEAAPEAXI@Z 000000018008a5e0 f i corelib_2009:dgAABBPolygonSoup.obj
 0001:000895e0       ??_GdgAABBPolygonSoup@@MEAAPEAXI@Z 000000018008a5e0 f i corelib_2009:dgAABBPolygonSoup.obj
 0001:00089650       ?ForAllSectorsSupportVectex@dgAABBPolygonSoup@@MEBA?AVdgVector@@AEBV2@@Z 000000018008a650 f   corelib_2009:dgAABBPolygonSoup.obj
 0001:000896a0       ?GetAABB@dgAABBPolygonSoup@@UEBAXAEAVdgVector@@0@Z 000000018008a6a0 f   corelib_2009:dgAABBPolygonSoup.obj
 0001:00089790       ?ForAllSectorsRayHit@dgAABBPolygonSoup@@MEBAXAEBVFastRayTest@@P6AMPEAXQEBMHQEBHH@ZQEAX@Z 000000018008a790 f   corelib_2009:dgAABBPolygonSoup.obj
 0001:000897c0       ?ForAllSectorsRayHitSimd@dgAABBPolygonSoup@@MEBAXAEBVFastRayTest@@P6AMPEAXQEBMHQEBHH@ZQEAX@Z 000000018008a7c0 f   corelib_2009:dgAABBPolygonSoup.obj
 0001:000897f0       ?CollectMyFaces@dgAABBPolygonSoup@@CA?AW4dgIntersectStatus@@PEAXQEBMHQEBHH@Z 000000018008a7f0 f   corelib_2009:dgAABBPolygonSoup.obj
 0001:00089bc0       ?Build@dgAABBTree@@QEAAXPEAV1@QEAV1@QEBV1@HPEBV1@AEAHQEAVdgTriplex@@4@Z 000000018008abc0 f i corelib_2009:dgAABBPolygonSoup.obj
 0001:00089d90       ?CollectAllFaces@dgAABBPolygonSoup@@CA?AW4dgIntersectStatus@@PEAXQEBMHQEBHH@Z 000000018008ad90 f   corelib_2009:dgAABBPolygonSoup.obj
 0001:0008a280       ?Create@dgAABBPolygonSoup@@IEAAXAEBVdgPolygonSoupDatabaseBuilder@@@Z 000000018008b280 f   corelib_2009:dgAABBPolygonSoup.obj
 0001:0008a8b0       ?AddFilterFace@dgPolySoupFilterAllocator@@QEAAHIQEAH@Z 000000018008b8b0 f i corelib_2009:dgPolygonSoupBuilder.obj
 0001:0008a9a0       ?Begin@dgPolygonSoupDatabaseBuilder@@QEAAXXZ 000000018008b9a0 f   corelib_2009:dgPolygonSoupBuilder.obj
 0001:0008a9b0       ??_EdgPolySoupFilterAllocator@@UEAAPEAXI@Z 000000018008b9b0 f i corelib_2009:dgPolygonSoupBuilder.obj
 0001:0008a9b0       ??_GdgPolySoupFilterAllocator@@UEAAPEAXI@Z 000000018008b9b0 f i corelib_2009:dgPolygonSoupBuilder.obj
 0001:0008a9f0       ??1dgPolygonSoupDatabaseBuilder@@QEAA@XZ 000000018008b9f0 f   corelib_2009:dgPolygonSoupBuilder.obj
 0001:0008aa50       ??0dgPolygonSoupDatabaseBuilder@@QEAA@XZ 000000018008ba50 f   corelib_2009:dgPolygonSoupBuilder.obj
 0001:0008aab0       ?FilterFace@dgPolygonSoupDatabaseBuilder@@AEAAHHQEAH@Z 000000018008bab0 f   corelib_2009:dgPolygonSoupBuilder.obj
 0001:0008b480       ?AddConvexFace@dgPolygonSoupDatabaseBuilder@@AEAAHHQEAH0@Z 000000018008c480 f   corelib_2009:dgPolygonSoupBuilder.obj
 0001:0008bf10       ?AddMesh@dgPolygonSoupDatabaseBuilder@@QEAAXQEBMHHHQEBH11AEBVdgMatrix@@@Z 000000018008cf10 f   corelib_2009:dgPolygonSoupBuilder.obj
 0001:0008c210       ?OptimizeByGroupID@dgPolygonSoupDatabaseBuilder@@AEAAXAEAV1@HH0@Z 000000018008d210 f   corelib_2009:dgPolygonSoupBuilder.obj
 0001:0008c7e0       ?OptimizeByIndividualFaces@dgPolygonSoupDatabaseBuilder@@AEAAXXZ 000000018008d7e0 f   corelib_2009:dgPolygonSoupBuilder.obj
 0001:0008c950       ?OptimizeByGroupID@dgPolygonSoupDatabaseBuilder@@AEAAXXZ 000000018008d950 f   corelib_2009:dgPolygonSoupBuilder.obj
 0001:0008d210       ?EndAndOptimize@dgPolygonSoupDatabaseBuilder@@AEAAX_N@Z 000000018008e210 f   corelib_2009:dgPolygonSoupBuilder.obj
 0001:0008d3f0       ?End@dgPolygonSoupDatabaseBuilder@@QEAAX_N@Z 000000018008e3f0 f   corelib_2009:dgPolygonSoupBuilder.obj
 0001:0008e880       ?BoxTestSimd@FastRayTest@@QEBAHAEBVdgVector@@0@Z 000000018008f880 f   corelib_2009:dgIntersections.obj
 0001:0008e920       ?PolygonIntersectSimd@FastRayTest@@QEBAMAEBVdgVector@@QEBMHQEBHH@Z 000000018008f920 f   corelib_2009:dgIntersections.obj
 0001:0008eb90       ??0FastRayTest@@QEAA@AEBVdgVector@@0@Z 000000018008fb90 f   corelib_2009:dgIntersections.obj
 0001:0008ee40       ?BoxTest@FastRayTest@@QEBAHAEBVdgVector@@0@Z 000000018008fe40 f   corelib_2009:dgIntersections.obj
 0001:0008eee0       ?PolygonIntersect@FastRayTest@@QEBAMAEBVdgVector@@QEBMHQEBHH@Z 000000018008fee0 f   corelib_2009:dgIntersections.obj
 0001:0008f150       ?dgRayBoxClip@@YA_NAEAVdgVector@@0AEBV1@1@Z 0000000180090150 f   corelib_2009:dgIntersections.obj
 0001:0008f420       ?dgPointToRayDistance@@YA?AVdgVector@@AEBV1@00@Z 0000000180090420 f   corelib_2009:dgIntersections.obj
 0001:0008f550       ?dgRayToRayDistance@@YAXAEBVdgVector@@000AEAV1@1@Z 0000000180090550 f   corelib_2009:dgIntersections.obj
 0001:0008f8c0       ?dgPointToTriangleDistance@@YA?AVdgVector@@AEBV1@000@Z 00000001800908c0 f   corelib_2009:dgIntersections.obj
 0001:0008fd60       ?dgPointToTriangleDistance@@YA?AVdgBigVector@@AEBV1@000@Z 0000000180090d60 f   corelib_2009:dgIntersections.obj
 0001:00090280       ??0dgQuaternion@@QEAA@AEBVdgVector@@M@Z 0000000180091280 f   corelib_2009:dgQuaternion.obj
 0001:000902f0       ??0dgQuaternion@@QEAA@AEBVdgMatrix@@@Z 00000001800912f0 f   corelib_2009:dgQuaternion.obj
 0001:00090498       _cfltcvt_init              0000000180091498 f   LIBCMT:_fpinit_.obj
 0001:00090520       _fpmath                    0000000180091520 f   LIBCMT:_fpinit_.obj
 0001:00090528       ceilf                      0000000180091528 f   LIBCMT:_ceilf_.obj
 0001:00090860       sinf                       0000000180091860 f   LIBCMT:_sincosf_.obj
 0001:00090cb0       cosf                       0000000180091cb0 f   LIBCMT:_sincosf_.obj
 0001:000910e0       sqrtf                      00000001800920e0 f   LIBCMT:_sqrtf_.obj
 0001:000911bc       malloc                     00000001800921bc f   LIBCMT:malloc.obj
 0001:00091274       free                       0000000180092274 f   LIBCMT:free.obj
 0001:000912d0       memset                     00000001800922d0 f   LIBCMT:memset.obj
 0001:000913d0       memmove                    00000001800923d0     LIBCMT:memcpy.obj
 0001:000913d0       memcpy                     00000001800923d0 f   LIBCMT:memcpy.obj
 0001:00091704       atan2f                     0000000180092704 f   LIBCMT:_atan2f_.obj
 0001:00091c10       _CRT_INIT                  0000000180092c10 f   LIBCMT:dllcrt0.obj
 0001:00091e64       _DllMainCRTStartup         0000000180092e64 f   LIBCMT:dllcrt0.obj
 0001:00091ea4       sprintf                    0000000180092ea4 f   LIBCMT:sprintf.obj
 0001:00091f40       _purecall                  0000000180092f40 f   LIBCMT:purevirt.obj
 0001:00091f78       floorf                     0000000180092f78 f   LIBCMT:_floorf_.obj
 0001:00092048       acosf                      0000000180093048 f   LIBCMT:_acosf_.obj
 0001:000922f0       asinf                      00000001800932f0 f   LIBCMT:_asinf_.obj
 0001:00092584       logf                       0000000180093584 f   LIBCMT:_logf_.obj
 0001:000927ac       powf                       00000001800937ac f   LIBCMT:_powf_.obj
 0001:00092cac       sqrt                       0000000180093cac f   LIBCMT:_sqrt_.obj
 0001:00092db8       __onexitinit               0000000180093db8 f   LIBCMT:onexit.obj
 0001:00092dfc       _onexit                    0000000180093dfc f   LIBCMT:onexit.obj
 0001:00092f04       atexit                     0000000180093f04 f   LIBCMT:onexit.obj
 0001:00092f1c       _endthreadex               0000000180093f1c f   LIBCMT:threadex.obj
 0001:0009302c       _beginthreadex             000000018009402c f   LIBCMT:threadex.obj
 0001:00093130       ??0_LocaleUpdate@@QEAA@PEAUlocaleinfo_struct@@@Z 0000000180094130 f i LIBCMT:cvt.obj
 0001:000931dc       _forcdecpt_l               00000001800941dc f   LIBCMT:cvt.obj
 0001:0009325c       _cropzeros_l               000000018009425c f   LIBCMT:cvt.obj
 0001:000932fc       _positive                  00000001800942fc f   LIBCMT:cvt.obj
 0001:00093314       _fassign_l                 0000000180094314 f   LIBCMT:cvt.obj
 0001:00093358       _fassign                   0000000180094358 f   LIBCMT:cvt.obj
 0001:00093360       _forcdecpt                 0000000180094360 f   LIBCMT:cvt.obj
 0001:00093368       _cropzeros                 0000000180094368 f   LIBCMT:cvt.obj
 0001:000935c8       _cftoe_l                   00000001800945c8 f   LIBCMT:cvt.obj
 0001:000936d4       _cftoa_l                   00000001800946d4 f   LIBCMT:cvt.obj
 0001:00093cc4       _cftof_l                   0000000180094cc4 f   LIBCMT:cvt.obj
 0001:00093dac       _cftog_l                   0000000180094dac f   LIBCMT:cvt.obj
 0001:00093ef0       _cfltcvt_l                 0000000180094ef0 f   LIBCMT:cvt.obj
 0001:00093f88       _cfltcvt                   0000000180094f88 f   LIBCMT:cvt.obj
 0001:00093fac       _initp_misc_cfltcvt_tab    0000000180094fac f   LIBCMT:cmiscdat.obj
 0001:00094108       _handle_errorf             0000000180095108 f   LIBCMT:_libm_error_.obj
 0001:00094268       _handle_error              0000000180095268 f   LIBCMT:_libm_error_.obj
 0001:000943b8       _controlfp_s               00000001800953b8 f   LIBCMT:_contrlfp_.obj
 0001:0009442c       _amsg_exit                 000000018009542c f   LIBCMT:crt0dat.obj
 0001:0009445c       __crtCorExitProcess        000000018009545c f   LIBCMT:crt0dat.obj
 0001:00094498       __crtExitProcess           0000000180095498 f   LIBCMT:crt0dat.obj
 0001:000944b0       _lockexit                  00000001800954b0 f   LIBCMT:crt0dat.obj
 0001:000944bc       _unlockexit                00000001800954bc f   LIBCMT:crt0dat.obj
 0001:000944fc       _initterm_e                00000001800954fc f   LIBCMT:crt0dat.obj
 0001:00094538       _cinit                     0000000180095538 f   LIBCMT:crt0dat.obj
 0001:00094774       _exit                      0000000180095774 f   LIBCMT:crt0dat.obj
 0001:00094780       _cexit                     0000000180095780 f   LIBCMT:crt0dat.obj
 0001:00094790       _init_pointers             0000000180095790 f   LIBCMT:crt0dat.obj
 0001:000947f8       _NMSG_WRITE                00000001800957f8 f   LIBCMT:crt0msg.obj
 0001:00094a20       _FF_MSGBANNER              0000000180095a20 f   LIBCMT:crt0msg.obj
 0001:00094a64       _heap_init                 0000000180095a64 f   LIBCMT:heapinit.obj
 0001:00094ab0       _heap_term                 0000000180095ab0 f   LIBCMT:heapinit.obj
 0001:00094ad0       _get_errno_from_oserr      0000000180095ad0 f   LIBCMT:dosmap.obj
 0001:00094b18       _errno                     0000000180095b18 f   LIBCMT:dosmap.obj
 0001:00094b38       __doserrno                 0000000180095b38 f   LIBCMT:dosmap.obj
 0001:00094b58       _dosmaperr                 0000000180095b58 f   LIBCMT:dosmap.obj
 0001:00094ba0       _initp_heap_handler        0000000180095ba0 f   LIBCMT:handler.obj
 0001:00094ba8       _callnewh                  0000000180095ba8 f   LIBCMT:handler.obj
 0001:00094bdc       _encode_pointer            0000000180095bdc f   LIBCMT:tidtable.obj
 0001:00094be4       _encoded_null              0000000180095be4 f   LIBCMT:tidtable.obj
 0001:00094bf0       _decode_pointer            0000000180095bf0 f   LIBCMT:tidtable.obj
 0001:00094bf8       __fls_getvalue             0000000180095bf8 f   LIBCMT:tidtable.obj
 0001:00094c00       __get_flsindex             0000000180095c00 f   LIBCMT:tidtable.obj
 0001:00094c08       _matherr                   0000000180095c08 f   LIBCMT:_matherr_.obj
 0001:00094c08       __set_flsgetvalue          0000000180095c08 f   LIBCMT:tidtable.obj
 0001:00094c0c       __fls_setvalue             0000000180095c0c f   LIBCMT:tidtable.obj
 0001:00094c14       _mtterm                    0000000180095c14 f   LIBCMT:tidtable.obj
 0001:00094c3c       _initptd                   0000000180095c3c f   LIBCMT:tidtable.obj
 0001:00094cf0       _getptd_noexit             0000000180095cf0 f   LIBCMT:tidtable.obj
 0001:00094d74       _getptd                    0000000180095d74 f   LIBCMT:tidtable.obj
 0001:00094d98       _freefls                   0000000180095d98 f   LIBCMT:tidtable.obj
 0001:00094ed0       _freeptd                   0000000180095ed0 f   LIBCMT:tidtable.obj
 0001:00094f10       _mtinit                    0000000180095f10 f   LIBCMT:tidtable.obj
 0001:00094f94       _malloc_crt                0000000180095f94 f   LIBCMT:crtheap.obj
 0001:00095000       _calloc_crt                0000000180096000 f   LIBCMT:crtheap.obj
 0001:00095084       _realloc_crt               0000000180096084 f   LIBCMT:crtheap.obj
 0001:0009510c       _ioinit                    000000018009610c f   LIBCMT:ioinit.obj
 0001:000953fc       _ioterm                    00000001800963fc f   LIBCMT:ioinit.obj
 0001:00095468       _setenvp                   0000000180096468 f   LIBCMT:stdenvp.obj
 0001:00095768       _setargv                   0000000180096768 f   LIBCMT:stdargv.obj
 0001:00095860       __crtGetEnvironmentStringsA 0000000180096860 f   LIBCMT:a_env.obj
 0001:00095a14       _RTC_Initialize            0000000180096a14 f   LIBCMT:_initsect_.obj
 0001:00095a4c       _RTC_Terminate             0000000180096a4c f   LIBCMT:_initsect_.obj
 0001:00095a84       __C_specific_handler       0000000180096a84 f   LIBCMT:chandler.obj
 0001:00095c28       _fpclear                   0000000180096c28 f   LIBCMT:_fpinit_.obj
 0001:00095c28       _initp_misc_winxfltr       0000000180096c28 f   LIBCMT:winxfltr.obj
 0001:00095c2c       _XcptFilter                0000000180096c2c f   LIBCMT:winxfltr.obj
 0001:00095dfc       __CppXcptFilter            0000000180096dfc f   LIBCMT:winxfltr.obj
 0001:00095e1c       __security_init_cookie     0000000180096e1c f   LIBCMT:gs_support.obj
 0001:00095ed0       _flsbuf                    0000000180096ed0 f   LIBCMT:_flsbuf.obj
 0001:0009617c       _output_l                  000000018009717c f   LIBCMT:output.obj
 0001:00096c64       _initp_misc_invarg         0000000180097c64 f   LIBCMT:invarg.obj
 0001:00096c6c       _invoke_watson             0000000180097c6c f   LIBCMT:invarg.obj
 0001:00096d94       _invalid_parameter         0000000180097d94 f   LIBCMT:invarg.obj
 0001:00096e1c       abort                      0000000180097e1c f   LIBCMT:abort.obj
 0001:00096ec0       _set_abort_behavior        0000000180097ec0 f   LIBCMT:abort.obj
 0001:00096edc       _initp_misc_purevirt       0000000180097edc f   LIBCMT:inithelp.obj
 0001:00097014       _exp2                      0000000180098014 f   LIBCMT:_exp2_.obj
 0001:00097390       log2                       0000000180098390 f   LIBCMT:_log2_.obj
 0001:00097710       _msize                     0000000180098710 f   LIBCMT:msize.obj
 0001:00097760       _ValidateImageBase         0000000180098760 f   LIBCMT:pesect.obj
 0001:00097790       _FindPESection             0000000180098790 f   LIBCMT:pesect.obj
 0001:000977e0       _IsNonwritableInCurrentImage 00000001800987e0 f   LIBCMT:pesect.obj
 0001:00097824       strrchr                    0000000180098824 f   LIBCMT:strrchr.obj
 0001:00097ac4       __updatetmbcinfo           0000000180098ac4 f   LIBCMT:mbctype.obj
 0001:00097c10       _setmbcp_nolock            0000000180098c10 f   LIBCMT:mbctype.obj
 0001:00097e88       _setmbcp                   0000000180098e88 f   LIBCMT:mbctype.obj
 0001:00098080       __initmbctable             0000000180099080 f   LIBCMT:mbctype.obj
 0001:000980a8       __freetlocinfo             00000001800990a8 f   LIBCMT:setlocal.obj
 0001:00098224       __addlocaleref             0000000180099224 f   LIBCMT:setlocal.obj
 0001:000982bc       __removelocaleref          00000001800992bc f   LIBCMT:setlocal.obj
 0001:000983bc       __updatetlocinfo           00000001800993bc f   LIBCMT:setlocal.obj
 0001:00098434       isdigit                    0000000180099434 f i LIBCMT:_ctype.obj
 0001:000984b4       _tolower_l                 00000001800994b4 f   LIBCMT:tolower.obj
 0001:00098624       tolower                    0000000180099624 f   LIBCMT:tolower.obj
 0001:0009864c       _atodbl_l                  000000018009964c f   LIBCMT:atodbl.obj
 0001:00098750       _atoflt_l                  0000000180099750 f   LIBCMT:atodbl.obj
 0001:00098870       strlen                     0000000180099870 f   LIBCMT:strlen.obj
 0001:00098918       strcpy_s                   0000000180099918 f   LIBCMT:strcpy_s.obj
 0001:0009898c       __GSHandlerCheckCommon     000000018009998c f   LIBCMT:gshandler.obj
 0001:000989f0       __GSHandlerCheck           00000001800999f0 f   LIBCMT:gshandler.obj
 0001:00098a10       _fptostr                   0000000180099a10 f   LIBCMT:_fptostr.obj
 0001:00098aec       __dtold                    0000000180099aec f   LIBCMT:_cfout_.obj
 0001:00098bc4       _fltout2                   0000000180099bc4 f   LIBCMT:_cfout_.obj
 0001:00098ca0       __security_check_cookie    0000000180099ca0 f   LIBCMT:amdsecgs.obj
 0001:00098cc0       _fptrap                    0000000180099cc0 f   LIBCMT:crt0fp.obj
 0001:00098ccc       _raise_exc_ex              0000000180099ccc f   LIBCMT:_fpexcept_.obj
 0001:00099008       _raise_exc                 000000018009a008 f   LIBCMT:_fpexcept_.obj
 0001:00099030       _raise_excf                000000018009a030 f   LIBCMT:_fpexcept_.obj
 0001:0009905c       _set_errno_from_matherr    000000018009a05c f   LIBCMT:_fpexcept_.obj
 0001:0009908c       _statfp                    000000018009a08c f   LIBCMT:_fpctrl_.obj
 0001:000990a0       _clrfp                     000000018009a0a0 f   LIBCMT:_fpctrl_.obj
 0001:000990c0       _ctrlfp                    000000018009a0c0 f   LIBCMT:_fpctrl_.obj
 0001:00099140       _set_statfp                000000018009a140 f   LIBCMT:_fpctrl_.obj
 0001:00099160       _control87                 000000018009a160 f i LIBCMT:_ieee_.obj
 0001:000993fc       _mtinitlocks               000000018009a3fc f   LIBCMT:mlock.obj
 0001:00099488       _mtdeletelocks             000000018009a488 f   LIBCMT:mlock.obj
 0001:0009950c       _unlock                    000000018009a50c f   LIBCMT:mlock.obj
 0001:00099524       _mtinitlocknum             000000018009a524 f   LIBCMT:mlock.obj
 0001:0009960c       _lock                      000000018009a60c f   LIBCMT:mlock.obj
 0001:00099650       ?terminate@@YAXXZ          000000018009a650 f   LIBCMT:hooks.obj
 0001:00099674       _initp_eh_hooks            000000018009a674 f   LIBCMT:hooks.obj
 0001:00099690       _initp_misc_winsig         000000018009a690 f   LIBCMT:winsig.obj
 0001:000996b0       __get_sigabrt              000000018009a6b0 f   LIBCMT:winsig.obj
 0001:000996bc       raise                      000000018009a6bc f   LIBCMT:winsig.obj
 0001:00099930       _initp_misc_rand_s         000000018009a930 f   LIBCMT:rand_s.obj
 0001:00099938       _initp_misc_initcrit       000000018009a938 f   LIBCMT:initcrit.obj
 0001:00099940       __crtInitCritSecAndSpinCount 000000018009a940 f   LIBCMT:initcrit.obj
 0001:00099978       __crtMessageBoxA           000000018009a978 f   LIBCMT:crtmbox.obj
 0001:00099b6c       strcat_s                   000000018009ab6c f   LIBCMT:strcat_s.obj
 0001:00099bf8       strncpy_s                  000000018009abf8 f   LIBCMT:strncpy_s.obj
 0001:00099cd0       _set_error_mode            000000018009acd0 f   LIBCMT:errmode.obj
 0001:00099d20       _calloc_impl               000000018009ad20 f   LIBCMT:calloc_impl.obj
 0001:00099dd0       realloc                    000000018009add0 f   LIBCMT:realloc.obj
 0001:00099f20       _ismbblead                 000000018009af20 f   LIBCMT:ismbbyte.obj
 0001:00099f50       _local_unwind              000000018009af50 f   LIBCMT:jmpuwind.obj
 0001:00099f80       _NLG_Notify                000000018009af80 f   LIBCMT:jmpuwind.obj
 0001:00099fa0       __NLG_Dispatch2            000000018009afa0 f   LIBCMT:jmpuwind.obj
 0001:00099fb0       __NLG_Return2              000000018009afb0 f   LIBCMT:jmpuwind.obj
 0001:00099fb4       _lseeki64_nolock           000000018009afb4 f   LIBCMT:lseeki64.obj
 0001:0009a04c       _lseeki64                  000000018009b04c f   LIBCMT:lseeki64.obj
 0001:0009a184       _write_nolock              000000018009b184 f   LIBCMT:write.obj
 0001:0009a8e4       _write                     000000018009b8e4 f   LIBCMT:write.obj
 0001:0009aa18       _getbuf                    000000018009ba18 f   LIBCMT:_getbuf.obj
 0001:0009aa6c       _isatty                    000000018009ba6c f   LIBCMT:isatty.obj
 0001:0009aadc       __iob_func                 000000018009badc f   LIBCMT:_file.obj
 0001:0009aae4       __initstdio                000000018009bae4 f   LIBCMT:_file.obj
 0001:0009abc8       __endstdio                 000000018009bbc8 f   LIBCMT:_file.obj
 0001:0009abf0       _lock_file                 000000018009bbf0 f   LIBCMT:_file.obj
 0001:0009ac50       _lock_file2                000000018009bc50 f   LIBCMT:_file.obj
 0001:0009ac80       _unlock_file               000000018009bc80 f   LIBCMT:_file.obj
 0001:0009acd8       _unlock_file2              000000018009bcd8 f   LIBCMT:_file.obj
 0001:0009ad00       _fileno                    000000018009bd00 f   LIBCMT:fileno.obj
 0001:0009ad38       _isleadbyte_l              000000018009bd38 f i LIBCMT:_wctype.obj
 0001:0009ad80       isleadbyte                 000000018009bd80 f i LIBCMT:_wctype.obj
 0001:0009adc8       _get_printf_count_output   000000018009bdc8 f   LIBCMT:printf.obj
 0001:0009ade0       _wctomb_s_l                000000018009bde0 f   LIBCMT:wctomb.obj
 0001:0009aff0       wctomb_s                   000000018009bff0 f   LIBCMT:wctomb.obj
 0001:0009b004       __crt_debugger_hook        000000018009c004 f   LIBCMT:dbghook.obj
 0001:0009b54c       __crtLCMapStringA          000000018009c54c f   LIBCMT:a_map.obj
 0001:0009b850       __crtGetStringTypeA        000000018009c850 f   LIBCMT:a_str.obj
 0001:0009b8dc       __free_lc_time             000000018009c8dc f   LIBCMT:inittime.obj
 0001:0009bac8       __free_lconv_num           000000018009cac8 f   LIBCMT:initnum.obj
 0001:0009bb10       __free_lconv_mon           000000018009cb10 f   LIBCMT:initmon.obj
 0001:0009bbc0       strcmp                     000000018009cbc0 f   LIBCMT:strcmp.obj
 0001:0009bc80       memcmp                     000000018009cc80 f   LIBCMT:memcmp.obj
 0001:0009bd60       strncmp                    000000018009cd60 f   LIBCMT:strncmp.obj
 0001:0009be18       _isctype_l                 000000018009ce18 f   LIBCMT:isctype.obj
 0001:0009bf24       _ld12tod                   000000018009cf24 f   LIBCMT:_intrncvt_.obj
 0001:0009c528       _ld12tof                   000000018009d528 f   LIBCMT:_intrncvt_.obj
 0001:0009cb2c       __strgtold12_l             000000018009db2c f   LIBCMT:_strgtold_.obj
 0001:0009d428       $I10_OUTPUT                000000018009e428 f   LIBCMT:_x10fout_.obj
 0001:0009df90       __report_gsfailure         000000018009ef90 f   LIBCMT:gs_report.obj
 0001:0009e0e0       _set_fpsr                  000000018009f0e0 f   LIBCMT:_fpsr_.obj
 0001:0009e0ea       _fclrf                     000000018009f0ea f   LIBCMT:_fpsr_.obj
 0001:0009e100       _free_osfhnd               000000018009f100 f   LIBCMT:osfinfo.obj
 0001:0009e1ac       _get_osfhandle             000000018009f1ac f   LIBCMT:osfinfo.obj
 0001:0009e230       __lock_fhandle             000000018009f230 f   LIBCMT:osfinfo.obj
 0001:0009e2d8       _unlock_fhandle            000000018009f2d8 f   LIBCMT:osfinfo.obj
 0001:0009e300       _putwch_nolock             000000018009f300 f   LIBCMT:putwch.obj
 0001:0009e414       _mbtowc_l                  000000018009f414 f   LIBCMT:mbtowc.obj
 0001:0009e588       mbtowc                     000000018009f588 f   LIBCMT:mbtowc.obj
 0001:0009e590       _fcloseall                 000000018009f590 f   LIBCMT:closeall.obj
 0001:0009e640       _flush                     000000018009f640 f   LIBCMT:fflush.obj
 0001:0009e6bc       _fflush_nolock             000000018009f6bc f   LIBCMT:fflush.obj
 0001:0009e7f8       _flushall                  000000018009f7f8 f   LIBCMT:fflush.obj
 0001:0009ea88       strtol                     000000018009fa88 f   LIBCMT:strtol.obj
 0001:0009eab8       __ansicp                   000000018009fab8 f   LIBCMT:convrtcp.obj
 0001:0009eb0c       __convertcp                000000018009fb0c f   LIBCMT:convrtcp.obj
 0001:0009ed94       atol                       000000018009fd94 f   LIBCMT:atox.obj
 0001:0009eda0       __mtold12                  000000018009fda0 f   LIBCMT:_mantold_.obj
 0001:0009efc0       __initconout               000000018009ffc0 f   LIBCMT:initcon.obj
 0001:0009effc       __termcon                  000000018009fffc f   LIBCMT:initcon.obj
 0001:0009f038       _fclose_nolock             00000001800a0038 f   LIBCMT:fclose.obj
 0001:0009f0c4       fclose                     00000001800a00c4 f   LIBCMT:fclose.obj
 0001:0009f13c       _commit                    00000001800a013c f   LIBCMT:commit.obj
 0001:0009f250       _close_nolock              00000001800a0250 f   LIBCMT:close.obj
 0001:0009f30c       _close                     00000001800a030c f   LIBCMT:close.obj
 0001:0009f424       _freebuf                   00000001800a0424 f   LIBCMT:_freebuf.obj
 0001:0009f45c       RtlUnwindEx                00000001800a045c f   kernel32:KERNEL32.dll
 0001:0009f462       RtlVirtualUnwind           00000001800a0462 f   kernel32:KERNEL32.dll
 0001:0009f468       RtlLookupFunctionEntry     00000001800a0468 f   kernel32:KERNEL32.dll
 0001:0009f470       _frnd                      00000001800a0470 f   LIBCMT:_fpsr_.obj
 0001:0009f4a0       __chkstk                   00000001800a04a0 f   LIBCMT:chkstk.obj
 0001:0009f4a0       _alloca_probe              00000001800a04a0     LIBCMT:chkstk.obj
 0001:0009f500       _get_fpsr                  00000001800a0500 f   LIBCMT:_fpsr_.obj
 0002:00000000       __imp_Sleep                00000001800a1000     kernel32:KERNEL32.dll
 0002:00000008       __imp_GetSystemInfo        00000001800a1008     kernel32:KERNEL32.dll
 0002:00000010       __imp_LeaveCriticalSection 00000001800a1010     kernel32:KERNEL32.dll
 0002:00000018       __imp_ReleaseSemaphore     00000001800a1018     kernel32:KERNEL32.dll
 0002:00000020       __imp_EnterCriticalSection 00000001800a1020     kernel32:KERNEL32.dll
 0002:00000028       __imp_WaitForMultipleObjects 00000001800a1028     kernel32:KERNEL32.dll
 0002:00000030       __imp_WaitForSingleObject  00000001800a1030     kernel32:KERNEL32.dll
 0002:00000038       __imp_CloseHandle          00000001800a1038     kernel32:KERNEL32.dll
 0002:00000040       __imp_DeleteCriticalSection 00000001800a1040     kernel32:KERNEL32.dll
 0002:00000048       __imp_SetEvent             00000001800a1048     kernel32:KERNEL32.dll
 0002:00000050       __imp_InitializeCriticalSection 00000001800a1050     kernel32:KERNEL32.dll
 0002:00000058       __imp_CreateEventA         00000001800a1058     kernel32:KERNEL32.dll
 0002:00000060       __imp_CreateSemaphoreA     00000001800a1060     kernel32:KERNEL32.dll
 0002:00000068       __imp_HeapAlloc            00000001800a1068     kernel32:KERNEL32.dll
 0002:00000070       __imp_GetLastError         00000001800a1070     kernel32:KERNEL32.dll
 0002:00000078       __imp_HeapFree             00000001800a1078     kernel32:KERNEL32.dll
 0002:00000080       __imp_GetCurrentThreadId   00000001800a1080     kernel32:KERNEL32.dll
 0002:00000088       __imp_FlsSetValue          00000001800a1088     kernel32:KERNEL32.dll
 0002:00000090       __imp_GetCommandLineA      00000001800a1090     kernel32:KERNEL32.dll
 0002:00000098       __imp_ExitThread           00000001800a1098     kernel32:KERNEL32.dll
 0002:000000a0       __imp_CreateThread         00000001800a10a0     kernel32:KERNEL32.dll
 0002:000000a8       __imp_GetModuleHandleW     00000001800a10a8     kernel32:KERNEL32.dll
 0002:000000b0       __imp_GetProcAddress       00000001800a10b0     kernel32:KERNEL32.dll
 0002:000000b8       __imp_ExitProcess          00000001800a10b8     kernel32:KERNEL32.dll
 0002:000000c0       __imp_WriteFile            00000001800a10c0     kernel32:KERNEL32.dll
 0002:000000c8       __imp_GetStdHandle         00000001800a10c8     kernel32:KERNEL32.dll
 0002:000000d0       __imp_GetModuleFileNameA   00000001800a10d0     kernel32:KERNEL32.dll
 0002:000000d8       __imp_HeapSetInformation   00000001800a10d8     kernel32:KERNEL32.dll
 0002:000000e0       __imp_HeapCreate           00000001800a10e0     kernel32:KERNEL32.dll
 0002:000000e8       __imp_HeapDestroy          00000001800a10e8     kernel32:KERNEL32.dll
 0002:000000f0       __imp_EncodePointer        00000001800a10f0     kernel32:KERNEL32.dll
 0002:000000f8       __imp_DecodePointer        00000001800a10f8     kernel32:KERNEL32.dll
 0002:00000100       __imp_FlsGetValue          00000001800a1100     kernel32:KERNEL32.dll
 0002:00000108       __imp_FlsFree              00000001800a1108     kernel32:KERNEL32.dll
 0002:00000110       __imp_SetLastError         00000001800a1110     kernel32:KERNEL32.dll
 0002:00000118       __imp_FlsAlloc             00000001800a1118     kernel32:KERNEL32.dll
 0002:00000120       __imp_SetHandleCount       00000001800a1120     kernel32:KERNEL32.dll
 0002:00000128       __imp_GetFileType          00000001800a1128     kernel32:KERNEL32.dll
 0002:00000130       __imp_GetStartupInfoA      00000001800a1130     kernel32:KERNEL32.dll
 0002:00000138       __imp_FreeEnvironmentStringsA 00000001800a1138     kernel32:KERNEL32.dll
 0002:00000140       __imp_GetEnvironmentStrings 00000001800a1140     kernel32:KERNEL32.dll
 0002:00000148       __imp_FreeEnvironmentStringsW 00000001800a1148     kernel32:KERNEL32.dll
 0002:00000150       __imp_WideCharToMultiByte  00000001800a1150     kernel32:KERNEL32.dll
 0002:00000158       __imp_GetEnvironmentStringsW 00000001800a1158     kernel32:KERNEL32.dll
 0002:00000160       __imp_RtlUnwindEx          00000001800a1160     kernel32:KERNEL32.dll
 0002:00000168       __imp_QueryPerformanceCounter 00000001800a1168     kernel32:KERNEL32.dll
 0002:00000170       __imp_GetTickCount         00000001800a1170     kernel32:KERNEL32.dll
 0002:00000178       __imp_GetCurrentProcessId  00000001800a1178     kernel32:KERNEL32.dll
 0002:00000180       __imp_GetSystemTimeAsFileTime 00000001800a1180     kernel32:KERNEL32.dll
 0002:00000188       __imp_TerminateProcess     00000001800a1188     kernel32:KERNEL32.dll
 0002:00000190       __imp_GetCurrentProcess    00000001800a1190     kernel32:KERNEL32.dll
 0002:00000198       __imp_UnhandledExceptionFilter 00000001800a1198     kernel32:KERNEL32.dll
 0002:000001a0       __imp_SetUnhandledExceptionFilter 00000001800a11a0     kernel32:KERNEL32.dll
 0002:000001a8       __imp_IsDebuggerPresent    00000001800a11a8     kernel32:KERNEL32.dll
 0002:000001b0       __imp_RtlVirtualUnwind     00000001800a11b0     kernel32:KERNEL32.dll
 0002:000001b8       __imp_RtlLookupFunctionEntry 00000001800a11b8     kernel32:KERNEL32.dll
 0002:000001c0       __imp_RtlCaptureContext    00000001800a11c0     kernel32:KERNEL32.dll
 0002:000001c8       __imp_HeapSize             00000001800a11c8     kernel32:KERNEL32.dll
 0002:000001d0       __imp_GetCPInfo            00000001800a11d0     kernel32:KERNEL32.dll
 0002:000001d8       __imp_GetACP               00000001800a11d8     kernel32:KERNEL32.dll
 0002:000001e0       __imp_GetOEMCP             00000001800a11e0     kernel32:KERNEL32.dll
 0002:000001e8       __imp_IsValidCodePage      00000001800a11e8     kernel32:KERNEL32.dll
 0002:000001f0       __imp_RaiseException       00000001800a11f0     kernel32:KERNEL32.dll
 0002:000001f8       __imp_LoadLibraryA         00000001800a11f8     kernel32:KERNEL32.dll
 0002:00000200       __imp_InitializeCriticalSectionAndSpinCount 00000001800a1200     kernel32:KERNEL32.dll
 0002:00000208       __imp_HeapReAlloc          00000001800a1208     kernel32:KERNEL32.dll
 0002:00000210       __imp_SetFilePointer       00000001800a1210     kernel32:KERNEL32.dll
 0002:00000218       __imp_GetConsoleCP         00000001800a1218     kernel32:KERNEL32.dll
 0002:00000220       __imp_GetConsoleMode       00000001800a1220     kernel32:KERNEL32.dll
 0002:00000228       __imp_GetLocaleInfoA       00000001800a1228     kernel32:KERNEL32.dll
 0002:00000230       __imp_LCMapStringA         00000001800a1230     kernel32:KERNEL32.dll
 0002:00000238       __imp_MultiByteToWideChar  00000001800a1238     kernel32:KERNEL32.dll
 0002:00000240       __imp_LCMapStringW         00000001800a1240     kernel32:KERNEL32.dll
 0002:00000248       __imp_GetStringTypeA       00000001800a1248     kernel32:KERNEL32.dll
 0002:00000250       __imp_GetStringTypeW       00000001800a1250     kernel32:KERNEL32.dll
 0002:00000258       __imp_SetStdHandle         00000001800a1258     kernel32:KERNEL32.dll
 0002:00000260       __imp_WriteConsoleA        00000001800a1260     kernel32:KERNEL32.dll
 0002:00000268       __imp_GetConsoleOutputCP   00000001800a1268     kernel32:KERNEL32.dll
 0002:00000270       __imp_WriteConsoleW        00000001800a1270     kernel32:KERNEL32.dll
 0002:00000278       __imp_CreateFileA          00000001800a1278     kernel32:KERNEL32.dll
 0002:00000280       __imp_FlushFileBuffers     00000001800a1280     kernel32:KERNEL32.dll
 0002:00000288       \177KERNEL32_NULL_THUNK_DATA 00000001800a1288     kernel32:KERNEL32.dll
 0002:00000290       __xc_a                     00000001800a1290     LIBCMT:crt0init.obj
 0002:000002a0       __xc_z                     00000001800a12a0     LIBCMT:crt0init.obj
 0002:000002a8       __xi_a                     00000001800a12a8     LIBCMT:crt0init.obj
 0002:000002c8       __xi_z                     00000001800a12c8     LIBCMT:crt0init.obj
 0002:000002d0       __xp_a                     00000001800a12d0     LIBCMT:crt0init.obj
 0002:000002e8       __xp_z                     00000001800a12e8     LIBCMT:crt0init.obj
 0002:000002f0       __xt_a                     00000001800a12f0     LIBCMT:crt0init.obj
 0002:000002f8       __xt_z                     00000001800a12f8     LIBCMT:crt0init.obj
 0002:00000320       ??_C@_0IE@IMGBDMJL@Newton?5Game?5Dynamics?5is?5the?5prop@ 00000001800a1320     Newton.obj
 0002:000003b0       __mask@@AbsDouble@         00000001800a13b0     Newton.obj
 0002:000003c0       __real@3727c5ac            00000001800a13c0     Newton.obj
 0002:000003c4       __real@80000000            00000001800a13c4     Newton.obj
 0002:000003c8       __real@3f800000            00000001800a13c8     Newton.obj
 0002:000003cc       __real@3ca3d70a            00000001800a13cc     Newton.obj
 0002:000003d0       __real@2edbe6ff            00000001800a13d0     Newton.obj
 0002:000003d4       __real@3c888889            00000001800a13d4     Newton.obj
 0002:000003d8       __real@3a83126f            00000001800a13d8     Newton.obj
 0002:000003dc       __real@4479ffff            00000001800a13dc     Newton.obj
 0002:000003e0       __real@426fffff            00000001800a13e0     Newton.obj
 0002:000003e4       __real@3e000000            00000001800a13e4     Newton.obj
 0002:000003e8       __real@40000000            00000001800a13e8     Newton.obj
 0002:000003ec       __real@3c23d70a            00000001800a13ec     Newton.obj
 0002:000003f0       __real@3f333333            00000001800a13f0     Newton.obj
 0002:000003f4       __real@57e35fa9            00000001800a13f4     Newton.obj
 0002:000003f8       __real@322bcc77            00000001800a13f8     Newton.obj
 0002:000003fc       __real@3f7fbe77            00000001800a13fc     Newton.obj
 0002:00000400       __real@38d1b717            00000001800a1400     Newton.obj
 0002:00000404       __real@358637bd            00000001800a1404     Newton.obj
 0002:00000408       __real@58aa87bf            00000001800a1408     Newton.obj
 0002:0000040c       __real@42c80000            00000001800a140c     Newton.obj
 0002:00000410       __real@c2c80000            00000001800a1410     Newton.obj
 0002:00000414       __real@3d4ccccd            00000001800a1414     NewtonAproximateConvexPartition.obj
 0002:00000420       ??_7NewtonUserJoint@@6B@   00000001800a1420     NewtonClass.obj
 0002:00000480       __real@58635fa9            00000001800a1480     NewtonClass.obj
 0002:00000484       __real@ba83126f            00000001800a1484     NewtonClass.obj
 0002:00000488       __real@d8635fa9            00000001800a1488     NewtonClass.obj
 0002:0000048c       __real@42c60000            00000001800a148c     NewtonClass.obj
 0002:00000490       ??_7NewtonMeshEffect@@6B@  00000001800a1490     NewtonMeshEffect.obj
 0002:00000498       __real@3f19999a            00000001800a1498     NewtonMeshEffect.obj
 0002:0000049c       __real@3f000000            00000001800a149c     NewtonMeshEffect.obj
 0002:000004a0       __real@3e22f986            00000001800a14a0     NewtonMeshEffect.obj
 0002:000004a4       __real@3fc90fd8            00000001800a14a4     NewtonMeshEffect.obj
 0002:000004a8       __real@40c90fd8            00000001800a14a8     NewtonMeshEffect.obj
 0002:000004ac       __real@3f7ff972            00000001800a14ac     NewtonMeshEffect.obj
 0002:000004b0       __real@bf7ff972            00000001800a14b0     NewtonMeshEffect.obj
 0002:000004b4       __real@3f7d70a4            00000001800a14b4     NewtonMeshEffect.obj
 0002:000004b8       __real@d01502f9            00000001800a14b8     NewtonMeshEffect.obj
 0002:000004bc       __real@501502f9            00000001800a14bc     NewtonMeshEffect.obj
 0002:000004c0       __real@24e69595            00000001800a14c0     NewtonMeshEffect.obj
 0002:000004c4       __real@b727c5ac            00000001800a14c4     NewtonMeshEffect.obj
 0002:000004c8       ??_C@_0P@GHFPNOJB@bad?5allocation?$AA@ 00000001800a14c8     NewtonStdAfx.obj
 0002:000004f0       ??_7dgCollisionPoint@@6B@  00000001800a14f0     physics_2009:dgWorld.obj
 0002:000005d8       ??_C@_04IABPNMKE@simd?$AA@ 00000001800a15d8     physics_2009:dgWorld.obj
 0002:000005e0       ??_C@_03MKEPLMIM@x87?$AA@  00000001800a15e0     physics_2009:dgWorld.obj
 0002:000005e8       ??_7dgWorkerThread@@6B@    00000001800a15e8     physics_2009:dgWorld.obj
 0002:000005f8       ??_7dgSetTrreadRoundMode@dgWorld@@6B@ 00000001800a15f8     physics_2009:dgWorld.obj
 0002:00000608       ??_7dgSolverWorlkerThreads@@6B@ 00000001800a1608     physics_2009:dgWorld.obj
 0002:00000618       ??_7dgParallelSolverClear@@6B@ 00000001800a1618     physics_2009:dgWorld.obj
 0002:00000628       ??_7dgParallelSolverBodyInertia@@6B@ 00000001800a1628     physics_2009:dgWorld.obj
 0002:00000638       ??_7dgParallelSolverUpdateVeloc@@6B@ 00000001800a1638     physics_2009:dgWorld.obj
 0002:00000648       ??_7dgParallelSolverUpdateForce@@6B@ 00000001800a1648     physics_2009:dgWorld.obj
 0002:00000658       ??_7dgParallelSolverCalculateForces@@6B@ 00000001800a1658     physics_2009:dgWorld.obj
 0002:00000668       ??_7dgParallelSolverInitInternalForces@@6B@ 00000001800a1668     physics_2009:dgWorld.obj
 0002:00000678       ??_7dgParallelSolverBuildJacobianRows@@6B@ 00000001800a1678     physics_2009:dgWorld.obj
 0002:00000688       ??_7dgParallelSolverJointAcceleration@@6B@ 00000001800a1688     physics_2009:dgWorld.obj
 0002:00000698       ??_7dgParallelSolverInitFeedbackUpdate@@6B@ 00000001800a1698     physics_2009:dgWorld.obj
 0002:000006a8       ??_7dgParallelSolverBuildJacobianMatrix@@6B@ 00000001800a16a8     physics_2009:dgWorld.obj
 0002:000006b8       __real@58e35fa9            00000001800a16b8     physics_2009:dgWorld.obj
 0002:000006bc       __real@3b08f862            00000001800a16bc     physics_2009:dgWorld.obj
 0002:000006c0       __real@42700000            00000001800a16c0     physics_2009:dgWorldDynamicUpdate.obj
 0002:000006c4       __real@3f666666            00000001800a16c4     physics_2009:dgWorldDynamicUpdate.obj
 0002:000006c8       __real@60ad78ec            00000001800a16c8     physics_2009:dgWorldDynamicUpdate.obj
 0002:000006cc       __real@233877aa            00000001800a16cc     physics_2009:dgWorldDynamicUpdate.obj
 0002:000006d0       __real@bf800000            00000001800a16d0     physics_2009:dgWorldDynamicUpdate.obj
 0002:000006f0       __real@40800000            00000001800a16f0     physics_2009:dgWorldDynamicUpdate.obj
 0002:000006f4       __real@a4e69595            00000001800a16f4     physics_2009:dgWorldDynamicUpdate.obj
 0002:000006f8       __real@3e800000            00000001800a16f8     physics_2009:dgWorldDynamicUpdate.obj
 0002:000006fc       __real@c0800000            00000001800a16fc     physics_2009:dgWorldDynamicUpdate.obj
 0002:00000700       __real@358637be            00000001800a1700     physics_2009:dgNarrowPhaseCollision.obj
 0002:00000704       __real@3f7fdf3b            00000001800a1704     physics_2009:dgNarrowPhaseCollision.obj
 0002:00000708       __real@3f13b646            00000001800a1708     physics_2009:dgNarrowPhaseCollision.obj
 0002:00000710       ??_7dgCollisionMesh@@6B@   00000001800a1710     physics_2009:dgCollisionMesh.obj
 0002:000007e8       __real@3e31c433            00000001800a17e8     physics_2009:dgCollisionMesh.obj
 0002:000007f0       ??_7dgCollisionConvexPolygon@dgCollisionMesh@@6B@ 00000001800a17f0     physics_2009:dgCollisionMesh.obj
 0002:000008d8       __real@179abe15            00000001800a18d8     physics_2009:dgCollisionMesh.obj
 0002:000008dc       __real@3b23d70b            00000001800a18dc     physics_2009:dgCollisionMesh.obj
 0002:000008e0       __real@3f7ff2e5            00000001800a18e0     physics_2009:dgCollisionMesh.obj
 0002:000008e4       __real@c0000000            00000001800a18e4     physics_2009:dgCollisionMesh.obj
 0002:000008e8       __real@bdcccccd            00000001800a18e8     physics_2009:dgCollisionMesh.obj
 0002:000008ec       __real@3c000000            00000001800a18ec     physics_2009:dgCollisionMesh.obj
 0002:000008f0       __real@bb800000            00000001800a18f0     physics_2009:dgCollisionMesh.obj
 0002:000008f4       __real@3dcccccd            00000001800a18f4     physics_2009:dgCollisionMesh.obj
 0002:00000900       ??_7dgCollisionBVH@@6BdgCollisionMesh@@@ 00000001800a1900     physics_2009:dgCollisionBVH.obj
 0002:000009e0       ??_7dgCollisionBVH@@6BdgAABBPolygonSoup@@@ 00000001800a19e0     physics_2009:dgCollisionBVH.obj
 0002:00000a28       __real@3f99999a            00000001800a1a28     physics_2009:dgCollisionBVH.obj
 0002:00000a2c       __real@e0ad78ec            00000001800a1a2c     physics_2009:dgCollisionBVH.obj
 0002:00000a30       __real@42800000            00000001800a1a30     physics_2009:dgCollisionScene.obj
 0002:00000a40       ??_7dgCollisionScene@@6B@  00000001800a1a40     physics_2009:dgCollisionScene.obj
 0002:00000b0c       __real@447a0000            00000001800a1b0c     physics_2009:dgBody.obj
 0002:00000b10       __real@41200000            00000001800a1b10     physics_2009:dgBody.obj
 0002:00000b14       __real@3fcccccd            00000001800a1b14     physics_2009:dgBody.obj
 0002:00000b18       __real@3c4ccccd            00000001800a1b18     physics_2009:dgBody.obj
 0002:00000b1c       __real@3f4ccccd            00000001800a1b1c     physics_2009:dgBody.obj
 0002:00000b20       __real@42340000            00000001800a1b20     physics_2009:dgBody.obj
 0002:00000b30       ??_7dgBallConstraint@@6B@  00000001800a1b30     physics_2009:dgBallConstraint.obj
 0002:00000b90       __real@432f0000            00000001800a1b90     physics_2009:dgBallConstraint.obj
 0002:00000b94       __real@42b40000            00000001800a1b94     physics_2009:dgBallConstraint.obj
 0002:00000b98       __real@40a00000            00000001800a1b98     physics_2009:dgBallConstraint.obj
 0002:00000b9c       __real@bfc90fd0            00000001800a1b9c     physics_2009:dgBallConstraint.obj
 0002:00000ba0       __real@3fc90fd0            00000001800a1ba0     physics_2009:dgBallConstraint.obj
 0002:00000ba4       __real@3f8ccccd            00000001800a1ba4     physics_2009:dgBallConstraint.obj
 0002:00000ba8       __real@41800000            00000001800a1ba8     physics_2009:dgBallConstraint.obj
 0002:00000bb0       ??_7dgHingeConstraint@@6B@ 00000001800a1bb0     physics_2009:dgHingeConstraint.obj
 0002:00000c10       __real@3f8147ae            00000001800a1c10     physics_2009:dgHingeConstraint.obj
 0002:00000c20       ??_7dgSlidingConstraint@@6B@ 00000001800a1c20     physics_2009:dgSlidingConstraint.obj
 0002:00000c80       ??_7dgCorkscrewConstraint@@6B@ 00000001800a1c80     physics_2009:dgCorkscrewConstraint.obj
 0002:00000ce0       ??_7dgUniversalConstraint@@6B@ 00000001800a1ce0     physics_2009:dgUniversalConstraint.obj
 0002:00000d40       ??_7dgUpVectorConstraint@@6B@ 00000001800a1d40     physics_2009:dgUpVectorConstraint.obj
 0002:00000da0       __real@3f7eb852            00000001800a1da0     physics_2009:dgUpVectorConstraint.obj
 0002:00000da8       ??_7dgBroadPhaseApplyExternalForce@@6B@ 00000001800a1da8     physics_2009:dgBroadPhaseCollision.obj
 0002:00000db8       ??_7dgBroadPhaseCellPairsWorkerThread@@6B@ 00000001800a1db8     physics_2009:dgBroadPhaseCollision.obj
 0002:00000dc8       ??_7dgBroadPhaseMaterialCallbackWorkerThread@@6B@ 00000001800a1dc8     physics_2009:dgBroadPhaseCollision.obj
 0002:00000dd8       ??_7dgBroadPhaseCalculateContactsWorkerThread@@6B@ 00000001800a1dd8     physics_2009:dgBroadPhaseCollision.obj
 0002:00000de8       __real@43000000            00000001800a1de8     physics_2009:dgBroadPhaseCollision.obj
 0002:00000df0       ??_7dgCollisionConvexHull@@6B@ 00000001800a1df0     physics_2009:dgCollisionConvexHull.obj
 0002:00000ee0       __real@c202a05f20000000    00000001800a1ee0     physics_2009:dgCollisionConvexHull.obj
 0002:00000ee8       __real@3f7ffcb9            00000001800a1ee8     physics_2009:dgCollisionConvexHull.obj
 0002:00000eec       __real@b58637bd            00000001800a1eec     physics_2009:dgCollisionConvexHull.obj
 0002:00000ef0       __real@3a000000            00000001800a1ef0     physics_2009:dgCollisionConvexHull.obj
 0002:00000ef4       __real@45000000            00000001800a1ef4     physics_2009:dgCollisionConvexHull.obj
 0002:00000ef8       __real@3f7ae148            00000001800a1ef8     physics_2009:dgCollisionConvexHull.obj
 0002:00000f00       ??_7dgUserConstraint@@6B@  00000001800a1f00     physics_2009:dgUserConstraint.obj
 0002:00000f60       ??_7dgConstraint@@6B@      00000001800a1f60     physics_2009:dgBilateralConstraint.obj
 0002:00000fb0       ??_7dgBilateralConstraint@@6B@ 00000001800a1fb0     physics_2009:dgBilateralConstraint.obj
 0002:00001010       __real@44bb8000            00000001800a2010     physics_2009:dgBilateralConstraint.obj
 0002:00001014       __real@461c4000            00000001800a2014     physics_2009:dgBilateralConstraint.obj
 0002:00001018       __real@c61c4000            00000001800a2018     physics_2009:dgBilateralConstraint.obj
 0002:0000101c       __real@43c80000            00000001800a201c     physics_2009:dgBilateralConstraint.obj
 0002:00001020       __real@43bb8000            00000001800a2020     physics_2009:dgBilateralConstraint.obj
 0002:00001030       ??_7dgCollisionSphere@@6B@ 00000001800a2030     physics_2009:dgCollisionSphere.obj
 0002:00001118       __real@3ecccccd            00000001800a2118     physics_2009:dgCollisionSphere.obj
 0002:0000111c       __real@40860a90            00000001800a211c     physics_2009:dgCollisionSphere.obj
 0002:00001130       ??_7dgConvexCollision@@6B@ 00000001800a2130     physics_2009:dgConvexCollision.obj
 0002:00001218       __real@44800000            00000001800a2218     physics_2009:dgConvexCollision.obj
 0002:0000121c       __real@43800000            00000001800a221c     physics_2009:dgConvexCollision.obj
 0002:00001220       __real@b8d1b717            00000001800a2220     physics_2009:dgConvexCollision.obj
 0002:00001224       __real@1e3ce508            00000001800a2224     physics_2009:dgConvexCollision.obj
 0002:00001228       __real@2b8cbccc            00000001800a2228     physics_2009:dgConvexCollision.obj
 0002:0000122c       __real@3716feb5            00000001800a222c     physics_2009:dgConvexCollision.obj
 0002:00001230       __real@979abe15            00000001800a2230     physics_2009:dgConvexCollision.obj
 0002:00001240       ??_7dgCollisionNull@@6B@   00000001800a2240     physics_2009:dgCollisionNull.obj
 0002:00001328       __real@3e99999a            00000001800a2328     physics_2009:dgContact.obj
 0002:0000132c       __real@42480000            00000001800a232c     physics_2009:dgContact.obj
 0002:00001330       ??_7dgContact@@6B@         00000001800a2330     physics_2009:dgContact.obj
 0002:00001380       ??_7dgCollisionConvexModifier@@6B@ 00000001800a2380     physics_2009:dgCollisionConvexModifier.obj
 0002:00001468       __real@ccbebc20            00000001800a2468     physics_2009:dgCollisionConvexModifier.obj
 0002:00001470       ??_7dgCompoundCollision@@6B@ 00000001800a2470     physics_2009:dgCompoundCollision.obj
 0002:00001538       __real@9e3ce508            00000001800a2538     physics_2009:dgCompoundCollision.obj
 0002:00001540       ??_7dgCollisionUserMesh@@6B@ 00000001800a2540     physics_2009:dgCollisionUserMesh.obj
 0002:00001620       ??_7dgCollisionHeightField@@6B@ 00000001800a2620     physics_2009:dgCollisionHeightField.obj
 0002:000016f8       __real@d368d4a5            00000001800a26f8     physics_2009:dgCollisionHeightField.obj
 0002:000016fc       __real@3f5c28f6            00000001800a26fc     physics_2009:dgMinkowskiConv.obj
 0002:00001700       __real@0000000000000000    00000001800a2700     physics_2009:dgMinkowskiConv.obj
 0002:00001708       __real@8000000000000000    00000001800a2708     physics_2009:dgMinkowskiConv.obj
 0002:00001710       __real@3ff0000000000000    00000001800a2710     physics_2009:dgMinkowskiConv.obj
 0002:00001718       __real@3af357c2a0000000    00000001800a2718     physics_2009:dgMinkowskiConv.obj
 0002:00001720       __real@4415af1d80000000    00000001800a2720     physics_2009:dgMinkowskiConv.obj
 0002:00001728       __real@bf13cd36            00000001800a2728     physics_2009:dgMinkowskiConv.obj
 0002:0000172c       __real@3f13cd36            00000001800a272c     physics_2009:dgMinkowskiConv.obj
 0002:00001730       __real@40400000            00000001800a2730     physics_2009:dgMinkowskiConv.obj
 0002:00001734       __real@3f7f7cee            00000001800a2734     physics_2009:dgMinkowskiConv.obj
 0002:00001738       __real@3f7fd806            00000001800a2738     physics_2009:dgMinkowskiConv.obj
 0002:0000173c       __real@3d0ef333            00000001800a273c     physics_2009:dgMinkowskiConv.obj
 0002:00001740       __real@3f7fd814            00000001800a2740     physics_2009:dgMinkowskiConv.obj
 0002:00001744       __real@3d0ef2c6            00000001800a2744     physics_2009:dgMinkowskiConv.obj
 0002:00001748       __real@3f3504f3            00000001800a2748     physics_2009:dgMinkowskiConv.obj
 0002:0000174c       __real@3a03126f            00000001800a274c     physics_2009:dgMinkowskiConv.obj
 0002:00001750       __real@3089705f            00000001800a2750     physics_2009:dgMinkowskiConv.obj
 0002:00001758       __real@3f1a36e2e0000000    00000001800a2758     physics_2009:dgMinkowskiConv.obj
 0002:00001760       __real@4202a05f20000000    00000001800a2760     physics_2009:dgMinkowskiConv.obj
 0002:00001768       __real@3eb0c6f7a0000000    00000001800a2768     physics_2009:dgMinkowskiConv.obj
 0002:00001770       __real@3f40624de0000000    00000001800a2770     physics_2009:dgMinkowskiConv.obj
 0002:00001778       __real@3feffbe760000000    00000001800a2778     physics_2009:dgMinkowskiConv.obj
 0002:00001780       __real@bff0000000000000    00000001800a2780     physics_2009:dgMinkowskiConv.obj
 0002:00001788       __real@3e112e0be0000000    00000001800a2788     physics_2009:dgMinkowskiConv.obj
 0002:00001790       __real@38d1b718            00000001800a2790     physics_2009:dgMinkowskiConv.obj
 0002:00001798       __real@3f50624de0000000    00000001800a2798     physics_2009:dgMinkowskiConv.obj
 0002:000017a0       __real@3f1a36e300000000    00000001800a27a0     physics_2009:dgMinkowskiConv.obj
 0002:000017a8       __real@3eb0c6f7c0000000    00000001800a27a8     physics_2009:dgMinkowskiConv.obj
 0002:000017b0       __real@3b000000            00000001800a27b0     physics_2009:dgMinkowskiConv.obj
 0002:000017b8       __real@3f60000000000000    00000001800a27b8     physics_2009:dgMinkowskiConv.obj
 0002:000017c0       __real@3f80000000000000    00000001800a27c0     physics_2009:dgMinkowskiConv.obj
 0002:000017c8       __real@3b800000            00000001800a27c8     physics_2009:dgMinkowskiConv.obj
 0002:000017d0       __real@3f40000000000000    00000001800a27d0     physics_2009:dgMinkowskiConv.obj
 0002:000017d8       __real@4040000000000000    00000001800a27d8     physics_2009:dgMinkowskiConv.obj
 0002:000017e0       __real@3d800000            00000001800a27e0     physics_2009:dgMinkowskiConv.obj
 0002:000017f0       ??_7dgCollisionBox@@6B@    00000001800a27f0     physics_2009:dgCollisionBox.obj
 0002:000018e0       __real@3eaaaaab            00000001800a28e0     physics_2009:dgCollisionBox.obj
 0002:000018e4       __real@41000000            00000001800a28e4     physics_2009:dgCollisionBox.obj
 0002:000018f0       ??_7dgCollision@@6B@       00000001800a28f0     physics_2009:dgCollision.obj
 0002:000019c0       ??_7dgCollisionEllipse@@6B@ 00000001800a29c0     physics_2009:dgCollisionEllipse.obj
 0002:00001ab0       ??_7dgCollisionCapsule@@6B@ 00000001800a2ab0     physics_2009:dgCollisionCapsule.obj
 0002:00001b98       __real@40c00000            00000001800a2b98     physics_2009:dgCollisionCapsule.obj
 0002:00001b9c       __real@40ca57a8            00000001800a2b9c     physics_2009:dgCollisionCapsule.obj
 0002:00001ba0       __real@4086e51b            00000001800a2ba0     physics_2009:dgCollisionCapsule.obj
 0002:00001ba4       __real@bf000000            00000001800a2ba4     physics_2009:dgCollisionCapsule.obj
 0002:00001bb0       ??_7dgCollisionCone@@6B@   00000001800a2bb0     physics_2009:dgCollisionCone.obj
 0002:00001c98       __real@41c00000            00000001800a2c98     physics_2009:dgCollisionCone.obj
 0002:00001c9c       __real@3e19999a            00000001800a2c9c     physics_2009:dgCollisionCone.obj
 0002:00001ca0       __real@4006e51b            00000001800a2ca0     physics_2009:dgCollisionCone.obj
 0002:00001cb0       ??_7dgCollisionCylinder@@6B@ 00000001800a2cb0     physics_2009:dgCollisionCylinder.obj
 0002:00001da0       ??_7dgCollisionChamferCylinder@@6B@ 00000001800a2da0     physics_2009:dgCollisionChamferCylinder.obj
 0002:00001e88       __real@3f490fd0            00000001800a2e88     physics_2009:dgCollisionChamferCylinder.obj
 0002:00001e8c       __real@3e860a8b            00000001800a2e8c     physics_2009:dgCollisionChamferCylinder.obj
 0002:00001e90       __real@219392ef            00000001800a2e90     physics_2009:dgCollisionChamferCylinder.obj
 0002:00001ea4       __real@bf7ffcb9            00000001800a2ea4     corelib_2009:dgMatrix.obj
 0002:00001ea8       __real@3f7fffef            00000001800a2ea8     corelib_2009:dgMatrix.obj
 0002:00001eac       __real@bf7fffef            00000001800a2eac     corelib_2009:dgMatrix.obj
 0002:00001eb8       __real@4000000000000000    00000001800a2eb8     corelib_2009:dgPolyhedra.obj
 0002:00001ec0       __real@3d71979980000000    00000001800a2ec0     corelib_2009:dgPolyhedra.obj
 0002:00001ec8       __real@4024000000000000    00000001800a2ec8     corelib_2009:dgPolyhedra.obj
 0002:00001ed0       __real@4030000000000000    00000001800a2ed0     corelib_2009:dgPolyhedra.obj
 0002:00001ed8       __real@3fe69fbe80000000    00000001800a2ed8     corelib_2009:dgPolyhedra.obj
 0002:00001ee0       __real@bfecccccc0000000    00000001800a2ee0     corelib_2009:dgPolyhedra.obj
 0002:00001ee8       ??_7dgPolyhedra@@6B@       00000001800a2ee8     corelib_2009:dgPolyhedra.obj
 0002:00001ef0       __real@4010000000000000    00000001800a2ef0     corelib_2009:dgPolyhedra.obj
 0002:00001ef8       __real@3fefff2e40000000    00000001800a2ef8     corelib_2009:dgPolyhedra.obj
 0002:00001f00       __real@3f70000000000000    00000001800a2f00     corelib_2009:dgPolyhedra.obj
 0002:00001f08       __real@3f1a36e2eb1c432d    00000001800a2f08     corelib_2009:dgTypes.obj
 0002:00001f10       ??_7dgPolygonSoupDatabase@@6B@ 00000001800a2f10     corelib_2009:dgAABBPolygonSoup.obj
 0002:00001f50       ??_7dgAABBPolygonSoup@@6B@ 00000001800a2f50     corelib_2009:dgAABBPolygonSoup.obj
 0002:00001f98       ??_7dgPolySoupFilterAllocator@@6B@ 00000001800a2f98     corelib_2009:dgPolygonSoupBuilder.obj
 0002:00001fa0       __real@3fb5555560000000    00000001800a2fa0     corelib_2009:dgPolygonSoupBuilder.obj
 0002:00001fa8       __real@3fe0000000000000    00000001800a2fa8     corelib_2009:dgPolygonSoupBuilder.obj
 0002:00001fb8       _FPinit                    00000001800a2fb8     LIBCMT:_fpinit_.obj
 0002:00001fc0       _FPmtinit                  00000001800a2fc0     LIBCMT:_fpinit_.obj
 0002:00001fc8       _FPmtterm                  00000001800a2fc8     LIBCMT:_fpinit_.obj
 0002:00001fd0       ??_C@_05KFMLJNHJ@ceilf?$AA@ 00000001800a2fd0     LIBCMT:_ceilf_.obj
 0002:00002090       __real@3fc555555545e87d    00000001800a3090     LIBCMT:_sincosf_.obj
 0002:00002098       __real@3f2a013a88a37196    00000001800a3098     LIBCMT:_sincosf_.obj
 0002:000020a0       __real@3f56c16bf55699d7    00000001800a30a0     LIBCMT:_sincosf_.obj
 0002:000020a8       __real@3e92524743cc46b8    00000001800a30a8     LIBCMT:_sincosf_.obj
 0002:000020b0       __real@411e848000000000    00000001800a30b0     LIBCMT:_sincosf_.obj
 0002:000020b8       ??_C@_04LAGPAAHP@sinf?$AA@ 00000001800a30b8     LIBCMT:_sincosf_.obj
 0002:000020c0       __real@3fc5555555555555    00000001800a30c0     LIBCMT:_sincosf_.obj
 0002:000020c8       ??_C@_04OBBKPIAC@cosf?$AA@ 00000001800a30c8     LIBCMT:_sincosf_.obj
 0002:000020d0       ??_C@_05KGFAIMPG@sqrtf?$AA@ 00000001800a30d0     LIBCMT:_sqrtf_.obj
 0002:00002868       __real@3fd5555555555538    00000001800a3868     LIBCMT:_atan2f_.obj
 0002:00002870       __real@3fc2492482bd6be1    00000001800a3870     LIBCMT:_atan2f_.obj
 0002:00002878       __real@3fc99999999643a3    00000001800a3878     LIBCMT:_atan2f_.obj
 0002:00002880       __real@3fd5555555550877    00000001800a3880     LIBCMT:_atan2f_.obj
 0002:00002888       __real@4070000000000000    00000001800a3888     LIBCMT:_atan2f_.obj
 0002:00002890       __real@3fb0000000000000    00000001800a3890     LIBCMT:_atan2f_.obj
 0002:00002898       ??_C@_06LEACALBF@atan2f?$AA@ 00000001800a3898     LIBCMT:_atan2f_.obj
 0002:000028a0       _pRawDllMain               00000001800a38a0     LIBCMT:dllcrt0.obj
 0002:000028a0       _pDefaultRawDllMain        00000001800a38a0     LIBCMT:dllcrt0.obj
 0002:000028a8       ??_C@_06OJDGOBKJ@floorf?$AA@ 00000001800a38a8     LIBCMT:_floorf_.obj
 0002:000028d0       __real@3f561f0d            00000001800a38d0     LIBCMT:_acosf_.obj
 0002:000028d4       __real@3e3c94dc            00000001800a38d4     LIBCMT:_acosf_.obj
 0002:000028d8       __real@3d678bdd            00000001800a38d8     LIBCMT:_acosf_.obj
 0002:000028dc       __real@3f8d6fa5            00000001800a38dc     LIBCMT:_acosf_.obj
 0002:000028e0       __real@3b81ce6b            00000001800a38e0     LIBCMT:_acosf_.obj
 0002:000028e4       __real@bc5b3fe1            00000001800a38e4     LIBCMT:_acosf_.obj
 0002:000028e8       __real@40490fdb            00000001800a38e8     LIBCMT:_acosf_.obj
 0002:000028ec       ??_C@_05FFFCHCED@acosf?$AA@ 00000001800a38ec     LIBCMT:_acosf_.obj
 0002:00002900       __real@bfc90fdb            00000001800a3900     LIBCMT:_asinf_.obj
 0002:00002904       ??_C@_05ECHIKDO@asinf?$AA@ 00000001800a3904     LIBCMT:_asinf_.obj
 0002:00002d38       ??_C@_04HIGFGEHP@logf?$AA@ 00000001800a3d38     LIBCMT:_logf_.obj
 0002:00002d40       __real@36a0000000000000    00000001800a3d40     LIBCMT:_powf_.obj
 0002:00002d48       __real@47efffffe0000000    00000001800a3d48     LIBCMT:_powf_.obj
 0002:00002d50       ??_C@_04MBFDLNIM@powf?$AA@ 00000001800a3d50     LIBCMT:_powf_.obj
 0002:00002d58       ??_C@_04EIAKFFMI@sqrt?$AA@ 00000001800a3d58     LIBCMT:_sqrt_.obj
 0002:00002d60       ??_C@_05KLBDPFGC@e?$CL000?$AA@ 00000001800a3d60     LIBCMT:cvt.obj
 0002:00002d68       ??_C@_0P@MIGLKIOC@CorExitProcess?$AA@ 00000001800a3d68     LIBCMT:crt0dat.obj
 0002:00002d78       ??_C@_1BI@BGOHAHKC@?$AAm?$AAs?$AAc?$AAo?$AAr?$AAe?$AAe?$AA?4?$AAd?$AAl?$AAl?$AA?$AA@ 00000001800a3d78     LIBCMT:crt0dat.obj
 0002:00002d90       ??_C@_0P@GGKDKEEG@runtime?5error?5?$AA@ 00000001800a3d90     LIBCMT:crt0msg.obj
 0002:00002da0       ??_C@_02PCIJFNDE@?$AN?6?$AA@ 00000001800a3da0     LIBCMT:crt0msg.obj
 0002:00002da8       ??_C@_0O@MJNIPGOH@TLOSS?5error?$AN?6?$AA@ 00000001800a3da8     LIBCMT:crt0msg.obj
 0002:00002db8       ??_C@_0N@BONNPDHF@SING?5error?$AN?6?$AA@ 00000001800a3db8     LIBCMT:crt0msg.obj
 0002:00002dc8       ??_C@_0P@MBDAJNE@DOMAIN?5error?$AN?6?$AA@ 00000001800a3dc8     LIBCMT:crt0msg.obj
 0002:00002de0       ??_C@_0JL@DFDOOABL@R6034?$AN?6An?5application?5has?5made?5a@ 00000001800a3de0     LIBCMT:crt0msg.obj
 0002:00002e80       ??_C@_0PH@EPAFIJ@R6033?$AN?6?9?5Attempt?5to?5use?5MSIL?5cod@ 00000001800a3e80     LIBCMT:crt0msg.obj
 0002:00002f78       ??_C@_0DD@BKEEABMM@R6032?$AN?6?9?5not?5enough?5space?5for?5lo@ 00000001800a3f78     LIBCMT:crt0msg.obj
 0002:00002fb0       ??_C@_0GD@OFKILIED@R6031?$AN?6?9?5Attempt?5to?5initialize?5t@ 00000001800a3fb0     LIBCMT:crt0msg.obj
 0002:00003018       ??_C@_0BP@LPMHJOKI@R6030?$AN?6?9?5CRT?5not?5initialized?$AN?6?$AA@ 00000001800a4018     LIBCMT:crt0msg.obj
 0002:00003038       ??_C@_0CF@KJDAIALP@R6028?$AN?6?9?5unable?5to?5initialize?5he@ 00000001800a4038     LIBCMT:crt0msg.obj
 0002:00003060       ??_C@_0DF@GAKBPDFP@R6027?$AN?6?9?5not?5enough?5space?5for?5lo@ 00000001800a4060     LIBCMT:crt0msg.obj
 0002:00003098       ??_C@_0DF@IBLNNAIG@R6026?$AN?6?9?5not?5enough?5space?5for?5st@ 00000001800a4098     LIBCMT:crt0msg.obj
 0002:000030d0       ??_C@_0CG@IOHKGFNJ@R6025?$AN?6?9?5pure?5virtual?5function?5c@ 00000001800a40d0     LIBCMT:crt0msg.obj
 0002:000030f8       ??_C@_0DF@JIJJFJDC@R6024?$AN?6?9?5not?5enough?5space?5for?5_o@ 00000001800a40f8     LIBCMT:crt0msg.obj
 0002:00003130       ??_C@_0CJ@EGEJHFME@R6019?$AN?6?9?5unable?5to?5open?5console?5@ 00000001800a4130     LIBCMT:crt0msg.obj
 0002:00003160       ??_C@_0CB@GNHNIELH@R6018?$AN?6?9?5unexpected?5heap?5error?$AN?6@ 00000001800a4160     LIBCMT:crt0msg.obj
 0002:00003188       ??_C@_0CN@FOLDKNG@R6017?$AN?6?9?5unexpected?5multithread?5@ 00000001800a4188     LIBCMT:crt0msg.obj
 0002:000031b8       ??_C@_0CM@FAHFJNHO@R6016?$AN?6?9?5not?5enough?5space?5for?5th@ 00000001800a41b8     LIBCMT:crt0msg.obj
 0002:000031f0       ??_C@_0JG@LBKMGKLD@?$AN?6This?5application?5has?5requested@ 00000001800a41f0     LIBCMT:crt0msg.obj
 0002:00003288       ??_C@_0CM@FLCNIPKK@R6009?$AN?6?9?5not?5enough?5space?5for?5en@ 00000001800a4288     LIBCMT:crt0msg.obj
 0002:000032b8       ??_C@_0CK@KMMJOAPP@R6008?$AN?6?9?5not?5enough?5space?5for?5ar@ 00000001800a42b8     LIBCMT:crt0msg.obj
 0002:000032e8       ??_C@_0CN@LEKKICBM@R6002?$AN?6?9?5floating?5point?5support?5@ 00000001800a42e8     LIBCMT:crt0msg.obj
 0002:00003318       ??_C@_0CF@GOGNBNAK@Microsoft?5Visual?5C?$CL?$CL?5Runtime?5Lib@ 00000001800a4318     LIBCMT:crt0msg.obj
 0002:00003340       ??_C@_02PHMGELLB@?6?6?$AA@ 00000001800a4340     LIBCMT:crt0msg.obj
 0002:00003344       ??_C@_03KHICJKCI@?4?4?4?$AA@ 00000001800a4344     LIBCMT:crt0msg.obj
 0002:00003348       ??_C@_0BH@DNAGHKFM@?$DMprogram?5name?5unknown?$DO?$AA@ 00000001800a4348     LIBCMT:crt0msg.obj
 0002:00003360       ??_C@_0BK@OFGJDLJJ@Runtime?5Error?$CB?6?6Program?3?5?$AA@ 00000001800a4360     LIBCMT:crt0msg.obj
 0002:00003380       _XcptActTab                00000001800a4380     LIBCMT:winxfltr.obj
 0002:00003420       ??_C@_1O@CEDCILHN@?$AA?$CI?$AAn?$AAu?$AAl?$AAl?$AA?$CJ?$AA?$AA@ 00000001800a4420     LIBCMT:output.obj
 0002:00003430       ??_C@_06OJHGLDPL@?$CInull?$CJ?$AA@ 00000001800a4430     LIBCMT:output.obj
 0002:00003440       __lookuptable              00000001800a4440     LIBCMT:output.obj
 0002:000036d0       __real@3fc5555555548f7c    00000001800a46d0     LIBCMT:_exp2_.obj
 0002:000036d8       __real@3fa5555555545d4e    00000001800a46d8     LIBCMT:_exp2_.obj
 0002:000036e0       __real@3f811115b7aa905e    00000001800a46e0     LIBCMT:_exp2_.obj
 0002:000036e8       __real@3f56c1728d739765    00000001800a46e8     LIBCMT:_exp2_.obj
 0002:000036f0       __real@3fdffc2b5ee8cd41    00000001800a46f0     LIBCMT:_exp2_.obj
 0002:000036f8       __real@3ef0e88e25daf0f3    00000001800a46f8     LIBCMT:_exp2_.obj
 0002:00003700       __real@3fbb6a194bd1cdeb    00000001800a4700     LIBCMT:_exp2_.obj
 0002:00003708       __real@3f985eaf935d972d    00000001800a4708     LIBCMT:_exp2_.obj
 0002:00003710       __real@3f885dd726cbfa41    00000001800a4710     LIBCMT:_exp2_.obj
 0002:00003718       __real@3e9208a80efa0f9c    00000001800a4718     LIBCMT:_exp2_.obj
 0002:00003720       __real@3f437d98a3a06a02    00000001800a4720     LIBCMT:_exp2_.obj
 0002:00003728       __real@3feffc6f012164ad    00000001800a4728     LIBCMT:_exp2_.obj
 0002:00003730       ??_C@_04HPAFEEIN@exp2?$AA@ 00000001800a4730     LIBCMT:_exp2_.obj
 0002:00003bb0       ??_C@_04KGLCPMCP@log2?$AA@ 00000001800a4bb0     LIBCMT:_log2_.obj
 0002:00003c40       ??_C@_0L@KDOEJCKC@_nextafter?$AA@ 00000001800a4c40     LIBCMT:_fpexcept_.obj
 0002:00003c4c       ??_C@_05JGDBENOH@_logb?$AA@ 00000001800a4c4c     LIBCMT:_fpexcept_.obj
 0002:00003c54       ??_C@_03ONILCKOB@_yn?$AA@  00000001800a4c54     LIBCMT:_fpexcept_.obj
 0002:00003c58       ??_C@_03NAKIGLHK@_y1?$AA@  00000001800a4c58     LIBCMT:_fpexcept_.obj
 0002:00003c5c       ??_C@_03MJLDFKDL@_y0?$AA@  00000001800a4c5c     LIBCMT:_fpexcept_.obj
 0002:00003c60       ??_C@_05GKKHEGJL@frexp?$AA@ 00000001800a4c60     LIBCMT:_fpexcept_.obj
 0002:00003c68       ??_C@_04KEPJIHGP@fmod?$AA@ 00000001800a4c68     LIBCMT:_fpexcept_.obj
 0002:00003c70       ??_C@_06MEIMCGCF@_hypot?$AA@ 00000001800a4c70     LIBCMT:_fpexcept_.obj
 0002:00003c78       ??_C@_05KBKMEMPO@_cabs?$AA@ 00000001800a4c78     LIBCMT:_fpexcept_.obj
 0002:00003c80       ??_C@_05CEJMAHNP@ldexp?$AA@ 00000001800a4c80     LIBCMT:_fpexcept_.obj
 0002:00003c88       ??_C@_04EHEDPDJG@modf?$AA@ 00000001800a4c88     LIBCMT:_fpexcept_.obj
 0002:00003c90       ??_C@_04ODHECPBC@fabs?$AA@ 00000001800a4c90     LIBCMT:_fpexcept_.obj
 0002:00003c98       ??_C@_05PBJFFIGL@floor?$AA@ 00000001800a4c98     LIBCMT:_fpexcept_.obj
 0002:00003ca0       ??_C@_04GFPJNGEK@ceil?$AA@ 00000001800a4ca0     LIBCMT:_fpexcept_.obj
 0002:00003ca8       ??_C@_03IIINPABG@tan?$AA@  00000001800a4ca8     LIBCMT:_fpexcept_.obj
 0002:00003cac       ??_C@_03LALBNOCG@cos?$AA@  00000001800a4cac     LIBCMT:_fpexcept_.obj
 0002:00003cb0       ??_C@_03BLEJJJBH@sin?$AA@  00000001800a4cb0     LIBCMT:_fpexcept_.obj
 0002:00003cb4       ??_C@_05KNGEOGJB@atan2?$AA@ 00000001800a4cb4     LIBCMT:_fpexcept_.obj
 0002:00003cbc       ??_C@_04MLLJIGOK@atan?$AA@ 00000001800a4cbc     LIBCMT:_fpexcept_.obj
 0002:00003cc4       ??_C@_04PDIFKINK@acos?$AA@ 00000001800a4cc4     LIBCMT:_fpexcept_.obj
 0002:00003ccc       ??_C@_04FIHNOPOL@asin?$AA@ 00000001800a4ccc     LIBCMT:_fpexcept_.obj
 0002:00003cd4       ??_C@_04FJHINJAO@tanh?$AA@ 00000001800a4cd4     LIBCMT:_fpexcept_.obj
 0002:00003cdc       ??_C@_04HPJJNFIM@cosh?$AA@ 00000001800a4cdc     LIBCMT:_fpexcept_.obj
 0002:00003ce4       ??_C@_04COOMCNPB@sinh?$AA@ 00000001800a4ce4     LIBCMT:_fpexcept_.obj
 0002:00003cec       ??_C@_05HGHHAHAP@log10?$AA@ 00000001800a4cec     LIBCMT:_fpexcept_.obj
 0002:00003cf4       ??_C@_03MGHMBJCF@log?$AA@  00000001800a4cf4     LIBCMT:_fpexcept_.obj
 0002:00003cf8       ??_C@_03JGHBODFD@pow?$AA@  00000001800a4cf8     LIBCMT:_fpexcept_.obj
 0002:00003cfc       ??_C@_03KHJOGHMM@exp?$AA@  00000001800a4cfc     LIBCMT:_fpexcept_.obj
 0002:00003d00       ??_C@_0BI@DFKBFLJE@GetProcessWindowStation?$AA@ 00000001800a4d00     LIBCMT:crtmbox.obj
 0002:00003d18       ??_C@_0BK@CIDNPOGP@GetUserObjectInformationA?$AA@ 00000001800a4d18     LIBCMT:crtmbox.obj
 0002:00003d38       ??_C@_0BD@HHGDFDBJ@GetLastActivePopup?$AA@ 00000001800a4d38     LIBCMT:crtmbox.obj
 0002:00003d50       ??_C@_0BA@HNOPNCHB@GetActiveWindow?$AA@ 00000001800a4d50     LIBCMT:crtmbox.obj
 0002:00003d60       ??_C@_0M@CHKKJDAI@MessageBoxA?$AA@ 00000001800a4d60     LIBCMT:crtmbox.obj
 0002:00003d70       ??_C@_0L@NDEGIDAG@USER32?4DLL?$AA@ 00000001800a4d70     LIBCMT:crtmbox.obj
 0002:00003d80       __lookuptable_s            00000001800a4d80     LIBCMT:outputs.obj
 0002:00003ddc       __real@00000000            00000001800a4ddc     Newton.obj
 0002:00003ddc       ??_C@_13NOLLCAOD@?$AA?$AA?$AA?$AA@ 00000001800a4ddc     LIBCMT:a_map.obj
 0002:00003de0       __newctype                 00000001800a4de0     LIBCMT:ctype.obj
 0002:000040e0       _wctype                    00000001800a50e0     LIBCMT:ctype.obj
 0002:000042f0       __newclmap                 00000001800a52f0     LIBCMT:ctype.obj
 0002:00004470       __newcumap                 00000001800a5470     LIBCMT:ctype.obj
 0002:000045f0       ??_C@_08JCCMCCIL@HH?3mm?3ss?$AA@ 00000001800a55f0     LIBCMT:strftime.obj
 0002:00004600       ??_C@_0BE@CKGJFCPC@dddd?0?5MMMM?5dd?0?5yyyy?$AA@ 00000001800a5600     LIBCMT:strftime.obj
 0002:00004618       ??_C@_08BPBNCDIB@MM?1dd?1yy?$AA@ 00000001800a5618     LIBCMT:strftime.obj
 0002:00004624       ??_C@_02CJNFDJBF@PM?$AA@   00000001800a5624     LIBCMT:strftime.obj
 0002:00004628       ??_C@_02DEDBPAFC@AM?$AA@   00000001800a5628     LIBCMT:strftime.obj
 0002:00004630       ??_C@_08EDHMEBNP@December?$AA@ 00000001800a5630     LIBCMT:strftime.obj
 0002:00004640       ??_C@_08HCHEGEOA@November?$AA@ 00000001800a5640     LIBCMT:strftime.obj
 0002:00004650       ??_C@_07JJNFCEND@October?$AA@ 00000001800a5650     LIBCMT:strftime.obj
 0002:00004658       ??_C@_09BHHEALKD@September?$AA@ 00000001800a5658     LIBCMT:strftime.obj
 0002:00004664       ??_C@_06LBBHFDDG@August?$AA@ 00000001800a5664     LIBCMT:strftime.obj
 0002:0000466c       ??_C@_04MIEPOIFP@July?$AA@ 00000001800a566c     LIBCMT:strftime.obj
 0002:00004674       ??_C@_04CNLMGBGM@June?$AA@ 00000001800a5674     LIBCMT:strftime.obj
 0002:0000467c       ??_C@_05DMJDNLEJ@April?$AA@ 00000001800a567c     LIBCMT:strftime.obj
 0002:00004684       ??_C@_05HPCKOFNC@March?$AA@ 00000001800a5684     LIBCMT:strftime.obj
 0002:00004690       ??_C@_08GNJGEPFN@February?$AA@ 00000001800a5690     LIBCMT:strftime.obj
 0002:000046a0       ??_C@_07CGJPFGJA@January?$AA@ 00000001800a56a0     LIBCMT:strftime.obj
 0002:000046a8       ??_C@_03MKABNOCG@Dec?$AA@  00000001800a56a8     LIBCMT:strftime.obj
 0002:000046ac       ??_C@_03JPJOFNIA@Nov?$AA@  00000001800a56ac     LIBCMT:strftime.obj
 0002:000046b0       ??_C@_03BMAOKBAD@Oct?$AA@  00000001800a56b0     LIBCMT:strftime.obj
 0002:000046b4       ??_C@_03GGCAPAJC@Sep?$AA@  00000001800a56b4     LIBCMT:strftime.obj
 0002:000046b8       ??_C@_03IFJFEIGA@Aug?$AA@  00000001800a56b8     LIBCMT:strftime.obj
 0002:000046bc       ??_C@_03LBGABGKK@Jul?$AA@  00000001800a56bc     LIBCMT:strftime.obj
 0002:000046c0       ??_C@_03IDFGHECI@Jun?$AA@  00000001800a56c0     LIBCMT:strftime.obj
 0002:000046c4       ??_C@_03CNMDKL@May?$AA@    00000001800a56c4     LIBCMT:strftime.obj
 0002:000046c8       ??_C@_03LEOLGMJP@Apr?$AA@  00000001800a56c8     LIBCMT:strftime.obj
 0002:000046cc       ??_C@_03ODNJBKGA@Mar?$AA@  00000001800a56cc     LIBCMT:strftime.obj
 0002:000046d0       ??_C@_03HJBDCHOM@Feb?$AA@  00000001800a56d0     LIBCMT:strftime.obj
 0002:000046d4       ??_C@_03JIHJHPIE@Jan?$AA@  00000001800a56d4     LIBCMT:strftime.obj
 0002:000046d8       ??_C@_08INBOOONO@Saturday?$AA@ 00000001800a56d8     LIBCMT:strftime.obj
 0002:000046e4       ??_C@_06JECMNKMI@Friday?$AA@ 00000001800a56e4     LIBCMT:strftime.obj
 0002:000046f0       ??_C@_08HACCIKIA@Thursday?$AA@ 00000001800a56f0     LIBCMT:strftime.obj
 0002:00004700       ??_C@_09DLIGFAKA@Wednesday?$AA@ 00000001800a5700     LIBCMT:strftime.obj
 0002:00004710       ??_C@_07BAAGCFCM@Tuesday?$AA@ 00000001800a5710     LIBCMT:strftime.obj
 0002:00004718       ??_C@_06JLEDEDGH@Monday?$AA@ 00000001800a5718     LIBCMT:strftime.obj
 0002:00004720       ??_C@_06OOPIFAJ@Sunday?$AA@ 00000001800a5720     LIBCMT:strftime.obj
 0002:00004728       ??_C@_03FEFJNEK@Sat?$AA@   00000001800a5728     LIBCMT:strftime.obj
 0002:0000472c       ??_C@_03IDIOELNC@Fri?$AA@  00000001800a572c     LIBCMT:strftime.obj
 0002:00004730       ??_C@_03IOFIKPDN@Thu?$AA@  00000001800a5730     LIBCMT:strftime.obj
 0002:00004734       ??_C@_03MHOMLAJA@Wed?$AA@  00000001800a5734     LIBCMT:strftime.obj
 0002:00004738       ??_C@_03NAGEINEP@Tue?$AA@  00000001800a5738     LIBCMT:strftime.obj
 0002:0000473c       ??_C@_03PDAGKDH@Mon?$AA@   00000001800a573c     LIBCMT:strftime.obj
 0002:00004740       ??_C@_03KOEHGMDN@Sun?$AA@  00000001800a5740     LIBCMT:strftime.obj
 0002:00004744       ??_C@_06IMKFLFPG@1?$CDQNAN?$AA@ 00000001800a5744     LIBCMT:_x10fout_.obj
 0002:0000474c       ??_C@_05DNEBIAHO@1?$CDINF?$AA@ 00000001800a574c     LIBCMT:_x10fout_.obj
 0002:00004754       ??_C@_05PHHOCPM@1?$CDIND?$AA@ 00000001800a5754     LIBCMT:_x10fout_.obj
 0002:0000475c       ??_C@_06PGGFOGJG@1?$CDSNAN?$AA@ 00000001800a575c     LIBCMT:_x10fout_.obj
 0002:00004790       __dnames                   00000001800a5790     LIBCMT:timeset.obj
 0002:000047a8       __mnames                   00000001800a57a8     LIBCMT:timeset.obj
 0002:000047d0       ??_C@_07GPDNMNG@CONOUT$?$AA@ 00000001800a57d0     LIBCMT:initcon.obj
 0002:00004838       __rtc_iaa                  00000001800a5838     LIBCMT:_initsect_.obj
 0002:00004840       __rtc_izz                  00000001800a5840     LIBCMT:_initsect_.obj
 0002:00004848       __rtc_taa                  00000001800a5848     LIBCMT:_initsect_.obj
 0002:00004850       __rtc_tzz                  00000001800a5850     LIBCMT:_initsect_.obj
 0002:0000c03c       __IMPORT_DESCRIPTOR_KERNEL32 00000001800ad03c     kernel32:KERNEL32.dll
 0002:0000c050       __NULL_IMPORT_DESCRIPTOR   00000001800ad050     kernel32:KERNEL32.dll
 0003:00000030       ?m_rayCastSimplex@dgConvexCollision@@1PAY03HA 00000001800b0030     physics_2009:dgConvexCollision.obj
 0003:00000070       ?m_hullDirs@dgConvexCollision@@1PAVdgTriplex@@A 00000001800b0070     physics_2009:dgConvexCollision.obj
 0003:00000118       ?mult@dgConvexMassData@@2PAMA 00000001800b0118     physics_2009:dgConvexCollision.obj
 0003:00000150       ?m_negOne@dgConvexCollision@@1VdgVector@@A 00000001800b0150     physics_2009:dgConvexCollision.obj
 0003:00000160       ?m_nrh0p5@dgConvexCollision@@1VdgVector@@A 00000001800b0160     physics_2009:dgConvexCollision.obj
 0003:00000170       ?m_nrh3p0@dgConvexCollision@@1VdgVector@@A 00000001800b0170     physics_2009:dgConvexCollision.obj
 0003:00000180       ?m_indexStep@dgConvexCollision@@1VdgVector@@A 00000001800b0180     physics_2009:dgConvexCollision.obj
 0003:00000190       ?m_index_0123@dgConvexCollision@@1VdgVector@@A 00000001800b0190     physics_2009:dgConvexCollision.obj
 0003:000001a0       ?m_index_4567@dgConvexCollision@@1VdgVector@@A 00000001800b01a0     physics_2009:dgConvexCollision.obj
 0003:000001b0       ?m_huge@dgConvexCollision@@1VdgVector@@A 00000001800b01b0     physics_2009:dgConvexCollision.obj
 0003:000001c0       ?m_negativeTiny@dgConvexCollision@@1VdgVector@@A 00000001800b01c0     physics_2009:dgConvexCollision.obj
 0003:000001d0       ?m_aabb_padd@dgConvexCollision@@1VdgVector@@A 00000001800b01d0     physics_2009:dgConvexCollision.obj
 0003:000001e0       ?m_faceIndex@dgContactSolver@@2PAY03HA 00000001800b01e0     physics_2009:dgMinkowskiConv.obj
 0003:00000220       ?m_edgeArray@dgCollisionBox@@1PAVdgConvexSimplexEdge@@A 00000001800b0220     physics_2009:dgCollisionBox.obj
 0003:00000530       ?g_allocaror@dgInternalMemory@@3VdgMemoryAllocator@@A 00000001800b0530     corelib_2009:dgMemory.obj
 0003:00000b5c       _fltused                   00000001800b0b5c     LIBCMT:_fpinit_.obj
 0003:00000b60       _ldused                    00000001800b0b60     LIBCMT:_fpinit_.obj
 0003:00000c00       _cfltcvt_tab               00000001800b0c00     LIBCMT:cmiscdat.obj
 0003:00000c50       _aexit_rtn                 00000001800b0c50     LIBCMT:crt0dat.obj
 0003:00000dd0       _amblksiz                  00000001800b0dd0     LIBCMT:heapinit.obj
 0003:00000f50       __flsindex                 00000001800b0f50     LIBCMT:tidtable.obj
 0003:00000f60       __badioinfo                00000001800b0f60     LIBCMT:ioinit.obj
 0003:00000fb8       _First_FPE_Indx            00000001800b0fb8     LIBCMT:winxfltr.obj
 0003:00000fbc       _Num_FPE                   00000001800b0fbc     LIBCMT:winxfltr.obj
 0003:00000fc0       _XcptActTabSize            00000001800b0fc0     LIBCMT:winxfltr.obj
 0003:00000fc4       _XcptActTabCount           00000001800b0fc4     LIBCMT:winxfltr.obj
 0003:00000fc8       __nullstring               00000001800b0fc8     LIBCMT:output.obj
 0003:00000fd0       __wnullstring              00000001800b0fd0     LIBCMT:output.obj
 0003:00000fd8       __abort_behavior           00000001800b0fd8     LIBCMT:abort.obj
 0003:00000fe0       __initialmbcinfo           00000001800b0fe0     LIBCMT:mbctype.obj
 0003:00001200       _mbctype                   00000001800b1200     LIBCMT:mbctype.obj
 0003:00001310       _mbcasemap                 00000001800b1310     LIBCMT:mbctype.obj
 0003:00001410       __ptmbcinfo                00000001800b1410     LIBCMT:mbctype.obj
 0003:00001518       __globallocalestatus       00000001800b1518     LIBCMT:glstatus.obj
 0003:00001520       __clocalestr               00000001800b1520     LIBCMT:nlsdata2.obj
 0003:00001530       __initiallocinfo           00000001800b1530     LIBCMT:nlsdata2.obj
 0003:00001690       __ptlocinfo                00000001800b1690     LIBCMT:nlsdata2.obj
 0003:00001698       __lc_clike                 00000001800b1698     LIBCMT:nlsdata2.obj
 0003:000016a0       __initiallocalestructinfo  00000001800b16a0     LIBCMT:nlsdata2.obj
 0003:000016b0       __security_cookie          00000001800b16b0     LIBCMT:gs_cookie.obj
 0003:000016b8       __security_cookie_complement 00000001800b16b8     LIBCMT:gs_cookie.obj
 0003:00001890       _matherr_flag              00000001800b1890     LIBCMT:_matherr_.obj
 0003:00001895       ?dazSupported@?1??_control87@@9@9 00000001800b1895     LIBCMT:_ieee_.obj
 0003:00001ae0       _iob                       00000001800b1ae0     LIBCMT:_file.obj
 0003:00001ea0       _pctype                    00000001800b1ea0     LIBCMT:ctype.obj
 0003:00001ea8       _pwctype                   00000001800b1ea8     LIBCMT:ctype.obj
 0003:00001eb0       __lc_time_c                00000001800b1eb0     LIBCMT:strftime.obj
 0003:00002018       __lc_time_curr             00000001800b2018     LIBCMT:strftime.obj
 0003:00002020       __lconv_static_decimal     00000001800b2020     LIBCMT:lconv.obj
 0003:00002030       __lconv_c                  00000001800b2030     LIBCMT:lconv.obj
 0003:00002088       __lconv                    00000001800b2088     LIBCMT:lconv.obj
 0003:00002090       __mb_cur_max               00000001800b2090     LIBCMT:nlsdata1.obj
 0003:00002094       __decimal_point            00000001800b2094     LIBCMT:nlsdata1.obj
 0003:00002098       __decimal_point_length     00000001800b2098     LIBCMT:nlsdata1.obj
 0003:000020d0       _d_inf                     00000001800b20d0     LIBCMT:_util_.obj
 0003:000020d8       _d_ind                     00000001800b20d8     LIBCMT:_util_.obj
 0003:000020e0       _d_max                     00000001800b20e0     LIBCMT:_util_.obj
 0003:000020e8       _d_min                     00000001800b20e8     LIBCMT:_util_.obj
 0003:000020f0       _d_mzero                   00000001800b20f0     LIBCMT:_util_.obj
 0003:00002110       _timezone                  00000001800b2110     LIBCMT:timeset.obj
 0003:00002114       _daylight                  00000001800b2114     LIBCMT:timeset.obj
 0003:00002118       _dstbias                   00000001800b2118     LIBCMT:timeset.obj
 0003:000021a0       _tzname                    00000001800b21a0     LIBCMT:timeset.obj
 0003:000021d0       _pow10pos                  00000001800b21d0     LIBCMT:_constpow_.obj
 0003:00002330       _pow10neg                  00000001800b2330     LIBCMT:_constpow_.obj
 0003:00002490       _coninpfh                  00000001800b2490     LIBCMT:initcon.obj
 0003:00002498       _confh                     00000001800b2498     LIBCMT:initcon.obj
 0003:000024a0       _lpdays                    00000001800b24a0     LIBCMT:days.obj
 0003:000024d8       _days                      00000001800b24d8     LIBCMT:days.obj
 0003:00002530       ?m_edgeArray@dgCollisionSphere@@1PAVdgConvexSimplexEdge@@A 00000001800b2530     physics_2009:dgCollisionSphere.obj
 0003:00003130       ?m_shapeRefCount@dgCollisionSphere@@1HA 00000001800b3130     physics_2009:dgCollisionSphere.obj
 0003:00003140       ?m_unitSphere@dgCollisionSphere@@1PAVdgVector@@A 00000001800b3140     physics_2009:dgCollisionSphere.obj
 0003:00003260       ?m_iniliazised@dgConvexCollision@@1HA 00000001800b3260     physics_2009:dgConvexCollision.obj
 0003:00003270       ?m_zero@dgConvexCollision@@1VdgVector@@A 00000001800b3270     physics_2009:dgConvexCollision.obj
 0003:00003280       ?m_signMask@dgConvexCollision@@1VdgVector@@A 00000001800b3280     physics_2009:dgConvexCollision.obj
 0003:00003290       ?m_triplexMask@dgConvexCollision@@1VdgVector@@A 00000001800b3290     physics_2009:dgConvexCollision.obj
 0003:000032a0       ?m_multiResDir@dgConvexCollision@@1PAVdgVector@@A 00000001800b32a0     physics_2009:dgConvexCollision.obj
 0003:00003320       ?m_multiResDir_sse@dgConvexCollision@@1PAVdgVector@@A 00000001800b3320     physics_2009:dgConvexCollision.obj
 0003:00003380       ?m_vertex@dgCollisionHeightField@@0PAPEAVdgVector@@A 00000001800b3380     physics_2009:dgCollisionHeightField.obj
 0003:000033c0       ?m_vertexCount@dgCollisionHeightField@@0PAHA 00000001800b33c0     physics_2009:dgCollisionHeightField.obj
 0003:000033e0       ?m_refCount@dgCollisionHeightField@@0HA 00000001800b33e0     physics_2009:dgCollisionHeightField.obj
 0003:000033f0       ?m_negIndex@dgContactSolver@@2T__m128@@A 00000001800b33f0     physics_2009:dgMinkowskiConv.obj
 0003:00003400       ?m_zero@dgContactSolver@@2T__m128@@A 00000001800b3400     physics_2009:dgMinkowskiConv.obj
 0003:00003410       ?m_index_yx@dgContactSolver@@2T__m128@@A 00000001800b3410     physics_2009:dgMinkowskiConv.obj
 0003:00003420       ?m_index_wz@dgContactSolver@@2T__m128@@A 00000001800b3420     physics_2009:dgMinkowskiConv.obj
 0003:00003430       ?m_zeroTolerenace@dgContactSolver@@2T__m128@@A 00000001800b3430     physics_2009:dgMinkowskiConv.obj
 0003:00003440       ?m_nrh0p5@dgContactSolver@@2T__m128@@A 00000001800b3440     physics_2009:dgMinkowskiConv.obj
 0003:00003450       ?m_nrh3p0@dgContactSolver@@2T__m128@@A 00000001800b3450     physics_2009:dgMinkowskiConv.obj
 0003:00003460       ?m_negativeOne@dgContactSolver@@2T__m128@@A 00000001800b3460     physics_2009:dgMinkowskiConv.obj
 0003:00003470       ?m_dir@dgContactSolver@@2PAVdgVector@@A 00000001800b3470     physics_2009:dgMinkowskiConv.obj
 0003:00003550       ?m_edgeArray@dgCollisionCapsule@@0PAVdgConvexSimplexEdge@@A 00000001800b3550     physics_2009:dgCollisionCapsule.obj
 0003:00004bd0       ?m_shapeRefCount@dgCollisionCapsule@@0HA 00000001800b4bd0     physics_2009:dgCollisionCapsule.obj
 0003:00004be0       ?m_edgeArray@dgCollisionCone@@0PAVdgConvexSimplexEdge@@A 00000001800b4be0     physics_2009:dgCollisionCone.obj
 0003:00004fe0       ?m_shapeRefCount@dgCollisionCone@@0HA 00000001800b4fe0     physics_2009:dgCollisionCone.obj
 0003:00004ff0       ?m_edgeArray@dgCollisionCylinder@@0PAVdgConvexSimplexEdge@@A 00000001800b4ff0     physics_2009:dgCollisionCylinder.obj
 0003:000055f0       ?m_shapeRefCount@dgCollisionCylinder@@0HA 00000001800b55f0     physics_2009:dgCollisionCylinder.obj
 0003:00005600       ?m_edgeArray@dgCollisionChamferCylinder@@0PAVdgConvexSimplexEdge@@A 00000001800b5600     physics_2009:dgCollisionChamferCylinder.obj
 0003:00006800       ?m_shapeRefCount@dgCollisionChamferCylinder@@0HA 00000001800b6800     physics_2009:dgCollisionChamferCylinder.obj
 0003:00006810       ?m_shapesDirs@dgCollisionChamferCylinder@@0PAVdgVector@@A 00000001800b6810     physics_2009:dgCollisionChamferCylinder.obj
 0003:000068d4       __fastflag                 00000001800b68d4     LIBCMT:_fpinit_.obj
 0003:000068dc       __error_mode               00000001800b68dc     LIBCMT:dllcrt0.obj
 0003:000068e0       _aenvptr                   00000001800b68e0     LIBCMT:dllcrt0.obj
 0003:000068e8       _wenvptr                   00000001800b68e8     LIBCMT:dllcrt0.obj
 0003:000068f0       __app_type                 00000001800b68f0     LIBCMT:dllcrt0.obj
 0003:000068f8       _umaskval                  00000001800b68f8     LIBCMT:crt0dat.obj
 0003:000068fc       __argc                     00000001800b68fc     LIBCMT:crt0dat.obj
 0003:00006900       __argv                     00000001800b6900     LIBCMT:crt0dat.obj
 0003:00006908       __wargv                    00000001800b6908     LIBCMT:crt0dat.obj
 0003:00006910       _environ                   00000001800b6910     LIBCMT:crt0dat.obj
 0003:00006918       __initenv                  00000001800b6918     LIBCMT:crt0dat.obj
 0003:00006920       _wenviron                  00000001800b6920     LIBCMT:crt0dat.obj
 0003:00006928       __winitenv                 00000001800b6928     LIBCMT:crt0dat.obj
 0003:00006930       _pgmptr                    00000001800b6930     LIBCMT:crt0dat.obj
 0003:00006938       _wpgmptr                   00000001800b6938     LIBCMT:crt0dat.obj
 0003:00006940       _exitflag                  00000001800b6940     LIBCMT:crt0dat.obj
 0003:00006944       _C_Termination_Done        00000001800b6944     LIBCMT:crt0dat.obj
 0003:00006948       _C_Exit_Done               00000001800b6948     LIBCMT:crt0dat.obj
 0003:00006c68       _crtheap                   00000001800b6c68     LIBCMT:heapinit.obj
 0003:00006c70       ?_pnhHeap@@3P6AH_K@ZEA     00000001800b6c70     LIBCMT:handler.obj
 0003:00006c78       _newmode                   00000001800b6c78     LIBCMT:_newmode.obj
 0003:00006c7c       _maxwait                   00000001800b6c7c     LIBCMT:crtheap.obj
 0003:00006d90       __pInvalidArgHandler       00000001800b6d90     LIBCMT:invarg.obj
 0003:00006da0       __pPurecall                00000001800b6da0     LIBCMT:inithelp.obj
 0003:00006db0       __mbulinfo                 00000001800b6db0     LIBCMT:mbctype.obj
 0003:00006dbc       __mbcodepage               00000001800b6dbc     LIBCMT:mbctype.obj
 0003:00006dc0       __ismbcodepage             00000001800b6dc0     LIBCMT:mbctype.obj
 0003:00006dc4       __mblcid                   00000001800b6dc4     LIBCMT:mbctype.obj
 0003:00006dc8       __locale_changed           00000001800b6dc8     LIBCMT:setlocal.obj
 0003:00006dd0       __lc_handle                00000001800b6dd0     LIBCMT:nlsdata2.obj
 0003:00006de8       __lc_codepage              00000001800b6de8     LIBCMT:nlsdata2.obj
 0003:00006dec       __lc_collate_cp            00000001800b6dec     LIBCMT:nlsdata2.obj
 0003:00006df0       _outputformat              00000001800b6df0     LIBCMT:outputformat.obj
 0003:00007030       ?__pInconsistency@@3P6AXXZEA 00000001800b7030     LIBCMT:hooks.obj
 0003:00007098       _cflush                    00000001800b7098     LIBCMT:_file.obj
 0003:000070b0       __lconv_static_null        00000001800b70b0     LIBCMT:lconv.obj
 0003:00007630       _stdbuf                    00000001800b7630     LIBCMT:_sftbuf.obj
 0003:000076fc       _debugger_hook_dummy       00000001800b76fc     <common>
 0003:00007700       __piob                     00000001800b7700     <common>
 0003:00007720       _bufin                     00000001800b7720     <common>
 0003:00008720       _nstream                   00000001800b8720     <common>
 0003:00008728       _pDestructExceptionObject  00000001800b8728     <common>
 0003:00008730       _nhandle                   00000001800b8730     <common>
 0003:00008740       __pioinfo                  00000001800b8740     <common>
 0003:00008940       __env_initialized          00000001800b8940     <common>
 0003:00008948       __onexitend                00000001800b8948     <common>
 0003:00008950       __onexitbegin              00000001800b8950     <common>
 0003:00008958       __mbctype_initialized      00000001800b8958     <common>
 0003:00008960       __dyn_tls_init_callback    00000001800b8960     <common>
 0003:00008968       _acmdln                    00000001800b8968     <common>

 entry point at        0001:00091e64

 Static symbols

 0001:0007e940       ?NormalizeVertex@InternalPolyhedra@@YAXHQEAVdgTriplex@@QEBMH@Z 000000018007f940 f   corelib_2009:dgPolyhedra.obj
 0001:0007eb10       ?EdgePlane@InternalPolyhedra@@YA?AVdgBigPlane@@HHHQEBVdgTriplex@@@Z 000000018007fb10 f   corelib_2009:dgPolyhedra.obj
 0001:0007ed30       ?UnboundedLoopPlane@InternalPolyhedra@@YA?AVdgBigPlane@@HHHQEBVdgTriplex@@@Z 000000018007fd30 f   corelib_2009:dgPolyhedra.obj
 0001:0007ef80       ?BigFaceNormal@InternalPolyhedra@@YA?AVdgBigVector@@PEAVdgEdge@@QEBMH@Z 000000018007ff80 f   corelib_2009:dgPolyhedra.obj
 0001:0007f1d0       ?CalculateVertexMetrics@InternalPolyhedra@@YAXQEAUVERTEX_METRIC_STRUCT@1@QEBVdgTriplex@@PEAVdgEdge@@@Z 00000001800801d0 f   corelib_2009:dgPolyhedra.obj
 0001:0007f4d0       ?IsEssensialPointDiagonal@InternalPolyhedra@@YA_NPEAVdgEdge@@AEBVdgBigVector@@QEBMH@Z 00000001800804d0 f   corelib_2009:dgPolyhedra.obj
 0001:0007f9a0       ?CalculateAllMetrics@InternalPolyhedra@@YAXPEBVdgPolyhedra@@QEAUVERTEX_METRIC_STRUCT@1@QEBVdgTriplex@@@Z 00000001800809a0 f   corelib_2009:dgPolyhedra.obj
 0001:0007fe20       ?EdgePenalty@InternalPolyhedra@@YAMAEBVdgPolyhedra@@QEBVdgTriplex@@PEAVdgEdge@@@Z 0000000180080e20 f   corelib_2009:dgPolyhedra.obj
 0001:00080820       ?MatchTwins@InternalPolyhedra@@YA_NPEAVdgPolyhedra@@@Z 0000000180081820 f   corelib_2009:dgPolyhedra.obj
 0001:000808e0       ?FindEarTip@InternalPolyhedra@@YAPEAVdgEdge@@AEBVdgPolyhedra@@PEAV2@QEBMHAEAV?$dgDownHeap@PEAVdgEdge@@M@@AEBVdgVector@@@Z 00000001800818e0 f   corelib_2009:dgPolyhedra.obj
 0001:00081720       ?CloseOpenBounds@InternalPolyhedra@@YAXPEAVdgPolyhedra@@@Z 0000000180082720 f   corelib_2009:dgPolyhedra.obj
 0001:000836a0       ?MarkAdjacentCoplanarFaces@InternalPolyhedra@@YAXAEAVdgPolyhedra@@0PEAVdgEdge@@QEBMH@Z 00000001800846a0 f   corelib_2009:dgPolyhedra.obj
 0001:00083be0       ?ConvexPartition@InternalPolyhedra@@YA_NAEAVdgPolyhedra@@QEBMH@Z 0000000180084be0 f   corelib_2009:dgPolyhedra.obj
 0001:00084b20       ?TriangulateFace@InternalPolyhedra@@YAPEAVdgEdge@@AEAVdgPolyhedra@@PEAV2@QEBMHAEAV?$dgDownHeap@PEAVdgEdge@@M@@PEAVdgVector@@@Z 0000000180085b20 f   corelib_2009:dgPolyhedra.obj
 0001:000853d0       ?DetectSSE@@YA_NXZ         00000001800863d0 f   corelib_2009:dgTypes.obj
 0001:000853d0       ?DetectSSE_3@@YA_NXZ       00000001800863d0 f   corelib_2009:dgTypes.obj
 0001:000857b0       ?SortVertices@InternalGeoUtil@@YAHQEAMHHHHM@Z 00000001800867b0 f   corelib_2009:dgTypes.obj
 0001:00086210       ?QuickSortVertices@InternalGeoUtil@@YAHQEAMHHHHM@Z 0000000180087210 f   corelib_2009:dgTypes.obj
 0001:000905fc       __remainder_piby2f_inline  00000001800915fc f   LIBCMT:_sincosf_.obj
 0001:00091d4c       __DllMainCRTStartup        0000000180092d4c f   LIBCMT:dllcrt0.obj
 0001:00092f60       _callthreadstartex         0000000180093f60 f   LIBCMT:threadex.obj
 0001:00092f8c       _threadstartex             0000000180093f8c f   LIBCMT:threadex.obj
 0001:00093370       _cftoe2_l                  0000000180094370 f   LIBCMT:cvt.obj
 0001:00093b00       _cftof2_l                  0000000180094b00 f   LIBCMT:cvt.obj
 0001:00093fe4       _call_matherr              0000000180094fe4 f   LIBCMT:_libm_error_.obj
 0001:0009404c       _exception_enabled         000000018009504c f   LIBCMT:_libm_error_.obj
 0001:000944c8       _initterm                  00000001800954c8 f   LIBCMT:crt0dat.obj
 0001:000945e8       doexit                     00000001800955e8 f   LIBCMT:crt0dat.obj
 0001:00095598       parse_cmdline              0000000180096598 f   LIBCMT:stdargv.obj
 0001:00096060       write_char                 0000000180097060 f   LIBCMT:output.obj
 0001:000960a8       write_multi_char           00000001800970a8 f   LIBCMT:output.obj
 0001:000960fc       write_string               00000001800970fc f   LIBCMT:output.obj
 0001:00096ee4       splitexp                   0000000180097ee4 f   LIBCMT:_exp2_.obj
 0001:0009784c       ?setSBCS@@YAXPEAUthreadmbcinfostruct@@@Z 000000018009884c f   LIBCMT:mbctype.obj
 0001:000978e0       ?setSBUpLow@@YAXPEAUthreadmbcinfostruct@@@Z 00000001800988e0 f   LIBCMT:mbctype.obj
 0001:00097b80       ?getSystemCP@@YAHH@Z       0000000180098b80 f   LIBCMT:mbctype.obj
 0001:00098364       _updatetlocinfoEx_nolock   0000000180099364 f   LIBCMT:setlocal.obj
 0001:00099ea4       ?x_ismbbtype_l@@YAHPEAUlocaleinfo_struct@@IHH@Z 000000018009aea4 f   LIBCMT:ismbbyte.obj
 0001:0009b00c       ?__crtLCMapStringA_stat@@YAHPEAUlocaleinfo_struct@@KKPEBDHPEADHHH@Z 000000018009c00c f   LIBCMT:a_map.obj
 0001:0009b5e4       ?__crtGetStringTypeA_stat@@YAHPEAUlocaleinfo_struct@@KPEBDHPEAGHHH@Z 000000018009c5e4 f   LIBCMT:a_str.obj
 0001:0009e704       flsall                     000000018009f704 f   LIBCMT:fflush.obj
 0001:0009e804       ?strtoxl@@YAKPEAUlocaleinfo_struct@@PEBDPEAPEBDHH@Z 000000018009f804 f   LIBCMT:strtol.obj
 0001:0009f510       __DllMainCRTStartup$filt$0 00000001800a0510 f   LIBCMT:dllcrt0.obj
 0001:0009f52c       _onexit$fin$0              00000001800a052c f   LIBCMT:onexit.obj
 0001:0009f540       _callthreadstartex$filt$0  00000001800a0540 f   LIBCMT:threadex.obj
 0001:0009f55c       doexit$fin$0               00000001800a055c f   LIBCMT:crt0dat.obj
 0001:0009f57e       _freefls$fin$1             00000001800a057e f   LIBCMT:tidtable.obj
 0001:0009f57e       _initptd$fin$1             00000001800a057e f   LIBCMT:tidtable.obj
 0001:0009f59e       _freefls$fin$0             00000001800a059e f   LIBCMT:tidtable.obj
 0001:0009f59e       _initptd$fin$0             00000001800a059e f   LIBCMT:tidtable.obj
 0001:0009f5c0       _IsNonwritableInCurrentImage$filt$0 00000001800a05c0 f   LIBCMT:pesect.obj
 0001:0009f5e1       __updatetmbcinfo$fin$0     00000001800a05e1 f   LIBCMT:mbctype.obj
 0001:0009f5e1       _setmbcp$fin$0             00000001800a05e1 f   LIBCMT:mbctype.obj
 0001:0009f5fa       __updatetlocinfo$fin$0     00000001800a05fa f   LIBCMT:setlocal.obj
 0001:0009f613       _ctrlfp$filt$0             00000001800a0613 f   LIBCMT:_fpctrl_.obj
 0001:0009f63e       _control87$filt$0          00000001800a063e f   LIBCMT:_ieee_.obj
 0001:0009f66d       _mtinitlocknum$fin$0       00000001800a066d f   LIBCMT:mlock.obj
 0001:0009f689       raise$fin$0                00000001800a0689 f   LIBCMT:winsig.obj
 0001:0009f6a5       __crtInitCritSecAndSpinCount$filt$0 00000001800a06a5 f   LIBCMT:initcrit.obj
 0001:0009f6c7       _lseeki64$fin$0            00000001800a06c7 f   LIBCMT:lseeki64.obj
 0001:0009f6c7       _write$fin$0               00000001800a06c7 f   LIBCMT:lseeki64.obj
 0001:0009f6de       __lock_fhandle$fin$0       00000001800a06de f   LIBCMT:osfinfo.obj
 0001:0009f6f7       _fcloseall$fin$0           00000001800a06f7 f   LIBCMT:closeall.obj
 0001:0009f710       flsall$fin$0               00000001800a0710 f   LIBCMT:fflush.obj
 0001:0009f740       flsall$fin$1               00000001800a0740 f   LIBCMT:fflush.obj
 0001:0009f759       fclose$fin$0               00000001800a0759 f   LIBCMT:fclose.obj
 0001:0009f771       _close$fin$0               00000001800a0771 f   LIBCMT:commit.obj
 0001:0009f771       _commit$fin$0              00000001800a0771 f   LIBCMT:commit.obj
 0001:0009f790       ??__Eg_allocaror@dgInternalMemory@@YAXXZ 00000001800a0790 f   corelib_2009:dgMemory.obj
 0001:0009f7a0       ??__Fg_allocaror@dgInternalMemory@@YAXXZ 00000001800a07a0 f   corelib_2009:dgMemory.obj
